

Microchip Technology PIC18 LITE Macro Assembler V2.00 build -1524193055 
                                                                                               Wed Nov 07 11:21:59 2018

Microchip Technology Omniscient Code Generator v2.00 (Free mode) build 20180527130849
     1  0000                     
     2                           ; Version 2.00
     3                           ; Generated 27/05/2018 GMT
     4                           
     5                           ; 
     6                           ; Copyright © 2018, Microchip Technology Inc. and its subsidiaries ("Microchip")
     7                           ; All rights reserved.
     8                           ; 
     9                           ; This software is developed by Microchip Technology Inc. and its subsidiaries ("Microch
                                 ip").
    10                           ; 
    11                           ; Redistribution and use in source and binary forms, with or without modification, are
    12                           ; permitted provided that the following conditions are met:
    13                           ; 
    14                           ;     1. Redistributions of source code must retain the above copyright notice, this lis
                                 t of
    15                           ;        conditions and the following disclaimer.
    16                           ; 
    17                           ;     2. Redistributions in binary form must reproduce the above copyright notice, this 
                                 list
    18                           ;        of conditions and the following disclaimer in the documentation and/or other
    19                           ;        materials provided with the distribution.
    20                           ; 
    21                           ;     3. Microchip's name may not be used to endorse or promote products derived from th
                                 is
    22                           ;        software without specific prior written permission.
    23                           ; 
    24                           ; THIS SOFTWARE IS PROVIDED BY MICROCHIP "AS IS" AND ANY EXPRESS OR IMPLIED WARRANTIES,

    25                           ; INCLUDING, BUT NOT LIMITED TO, THE IMPLIED WARRANTIES OF MERCHANTABILITY AND FITNESS F
                                 OR
    26                           ; PURPOSE ARE DISCLAIMED.  IN NO EVENT SHALL MICROCHIP BE LIABLE FOR ANY DIRECT, INDIREC
                                 T,
    27                           ; INCIDENTAL, SPECIAL, EXEMPLARY, OR CONSEQUENTIAL DAMAGES (INCLUDING BUT NOT LIMITED TO
                                 
    28                           ; PROCUREMENT OF SUBSTITUTE GOODS OR SERVICES; LOSS OF USE, DATA OR PROFITS; OR BUSINESS
                                 
    29                           ; INTERRUPTION) HOWSOEVER CAUSED AND ON ANY THEORY OF LIABILITY, WHETHER IN CONTRACT, ST
                                 RICT
    30                           ; LIABILITY, OR TORT (INCLUDING NEGLIGENCE OR OTHERWISE) ARISING IN ANY WAY OUT OF THE U
                                 SE OF
    31                           ; THIS SOFTWARE, EVEN IF ADVISED OF THE POSSIBILITY OF SUCH DAMAGE.
    32                           ; 
    33                           
    34                           
    35                           ; 
    36                           ; Code-generator required, PIC18F452 Definitions
    37                           ; 
    38  0000                     fsr0 equ 0FE9h
    39  0000                     fsr0h equ 0FEAh
    40  0000                     fsr0l equ 0FE9h
    41  0000                     fsr1 equ 0FE1h
    42  0000                     fsr1h equ 0FE2h
    43  0000                     fsr1l equ 0FE1h
    44  0000                     fsr2 equ 0FD9h
    45  0000                     fsr2h equ 0FDAh
    46  0000                     fsr2l equ 0FD9h
    47  0000                     indf0 equ 0FEFh
    48  0000                     indf1 equ 0FE7h
    49  0000                     indf2 equ 0FDFh
    50  0000                     intcon equ 0FF2h
    51  0000                     nvmcon equ 00h
    52  0000                     pcl equ 0FF9h
    53  0000                     pclath equ 0FFAh
    54  0000                     pclatu equ 0FFBh
    55  0000                     plusw0 equ 0FEBh
    56  0000                     plusw1 equ 0FE3h
    57  0000                     plusw2 equ 0FDBh
    58  0000                     postdec0 equ 0FEDh
    59  0000                     postdec1 equ 0FE5h
    60  0000                     postdec2 equ 0FDDh
    61  0000                     postinc0 equ 0FEEh
    62  0000                     postinc1 equ 0FE6h
    63  0000                     postinc2 equ 0FDEh
    64  0000                     preinc0 equ 0FECh
    65  0000                     preinc1 equ 0FE4h
    66  0000                     preinc2 equ 0FDCh
    67  0000                     prod equ 0FF3h
    68  0000                     prodh equ 0FF4h
    69  0000                     prodl equ 0FF3h
    70  0000                     status equ 0FD8h
    71  0000                     tablat equ 0FF5h
    72  0000                     tblptr equ 0FF6h
    73  0000                     tblptrh equ 0FF7h
    74  0000                     tblptrl equ 0FF6h
    75  0000                     tblptru equ 0FF8h
    76  0000                     tosl equ 0FFDh
    77  0000                     wreg equ 0FE8h
    78  0000                     
     2                           opt pagewidth 120
     3  0000                     byte0	macro	val
     4                           	(getbyte(val,0))
     5                           endm
     6  0000                     byte1	macro	val
     7                           	(getbyte(val,1))
     8                           endm
     9  0000                     byte2	macro	val
    10                           	(getbyte(val,2))
    11                           endm
    12  0000                     byte3	macro	val
    13                           	(getbyte(val,3))
    14                           endm
    15  0000                     byte4	macro	val
    16                           	(getbyte(val,4))
    17                           endm
    18  0000                     byte5	macro	val
    19                           	(getbyte(val,5))
    20                           endm
    21  0000                     byte6	macro	val
    22                           	(getbyte(val,6))
    23                           endm
    24  0000                     byte7	macro	val
    25                           	(getbyte(val,7))
    26                           endm
    27  0000                     getword	macro	val,pos
    28                           	(((val) >> (8 * pos)) and 0xffff)
    29                           endm
    30  0000                     word0	macro	val
    31                           	(getword(val,0))
    32                           endm
    33  0000                     word1	macro	val
    34                           	(getword(val,2))
    35                           endm
    36  0000                     word2	macro	val
    37                           	(getword(val,4))
    38                           endm
    39  0000                     word3	macro	val
    40                           	(getword(val,6))
    41                           endm
    42  0000                     gettword	macro	val,pos
    43                           	(((val) >> (8 * pos)) and 0xffffff)
    44                           endm
    45  0000                     tword0	macro	val
    46                           	(gettword(val,0))
    47                           endm
    48  0000                     tword1	macro	val
    49                           	(gettword(val,3))
    50                           endm
    51  0000                     tword2	macro	val
    52                           	(gettword(val,6))
    53                           endm
    54  0000                     getdword	macro	val,pos
    55                           	(((val) >> (8 * pos)) and 0xffffffff)
    56                           endm
    57  0000                     dword0	macro	val
    58                           	(getdword(val,0))
    59                           endm
    60  0000                     dword1	macro	val
    61                           	(getdword(val,4))
    62                           endm
    63  0000                     clrc   macro
    64                           	bcf	status,0
    65                           endm
    66  0000                     setc   macro
    67                           	bsf	status,0
    68                           endm
    69  0000                     clrz   macro
    70                           	bcf	status,2
    71                           endm
    72  0000                     setz   macro
    73                           	bsf	status,2
    74                           endm
    75  0000                     skipnz macro
    76                           	btfsc	status,2
    77                           endm
    78  0000                     skipz  macro
    79                           	btfss	status,2
    80                           endm
    81  0000                     skipnc macro
    82                           	btfsc	status,0
    83                           endm
    84  0000                     skipc  macro
    85                           	btfss	status,0
    86                           endm
    87  0000                     pushw macro
    88                           	movwf postinc1
    89                           endm
    90  0000                     pushf macro arg1
    91                           	movff arg1, postinc1
    92                           endm
    93  0000                     popw macro
    94                           	movf postdec1,f
    95                           	movf indf1,w
    96                           endm
    97  0000                     popf macro arg1
    98                           	movf postdec1,f
    99                           	movff indf1,arg1
   100                           endm
   101  0000                     popfc macro arg1
   102                           	movff plusw1,arg1
   103                           	decfsz fsr1,f
   104                           endm
   105  0000                     	global	__ramtop
   106                           	global	__accesstop
   107                           # 54 "C:\Program Files (x86)\Microchip\xc8\v2.00\pic\include\pic18f452.h"
   108                           PORTA equ 0F80h ;# 
   109  0000                     # 199 "C:\Program Files (x86)\Microchip\xc8\v2.00\pic\include\pic18f452.h"
   110                           PORTB equ 0F81h ;# 
   111  0000                     # 324 "C:\Program Files (x86)\Microchip\xc8\v2.00\pic\include\pic18f452.h"
   112                           PORTC equ 0F82h ;# 
   113  0000                     # 491 "C:\Program Files (x86)\Microchip\xc8\v2.00\pic\include\pic18f452.h"
   114                           PORTD equ 0F83h ;# 
   115  0000                     # 612 "C:\Program Files (x86)\Microchip\xc8\v2.00\pic\include\pic18f452.h"
   116                           PORTE equ 0F84h ;# 
   117  0000                     # 724 "C:\Program Files (x86)\Microchip\xc8\v2.00\pic\include\pic18f452.h"
   118                           LATA equ 0F89h ;# 
   119  0000                     # 824 "C:\Program Files (x86)\Microchip\xc8\v2.00\pic\include\pic18f452.h"
   120                           LATB equ 0F8Ah ;# 
   121  0000                     # 936 "C:\Program Files (x86)\Microchip\xc8\v2.00\pic\include\pic18f452.h"
   122                           LATC equ 0F8Bh ;# 
   123  0000                     # 1048 "C:\Program Files (x86)\Microchip\xc8\v2.00\pic\include\pic18f452.h"
   124                           LATD equ 0F8Ch ;# 
   125  0000                     # 1160 "C:\Program Files (x86)\Microchip\xc8\v2.00\pic\include\pic18f452.h"
   126                           LATE equ 0F8Dh ;# 
   127  0000                     # 1212 "C:\Program Files (x86)\Microchip\xc8\v2.00\pic\include\pic18f452.h"
   128                           TRISA equ 0F92h ;# 
   129  0000                     # 1217 "C:\Program Files (x86)\Microchip\xc8\v2.00\pic\include\pic18f452.h"
   130                           DDRA equ 0F92h ;# 
   131  0000                     # 1410 "C:\Program Files (x86)\Microchip\xc8\v2.00\pic\include\pic18f452.h"
   132                           TRISB equ 0F93h ;# 
   133  0000                     # 1415 "C:\Program Files (x86)\Microchip\xc8\v2.00\pic\include\pic18f452.h"
   134                           DDRB equ 0F93h ;# 
   135  0000                     # 1650 "C:\Program Files (x86)\Microchip\xc8\v2.00\pic\include\pic18f452.h"
   136                           TRISC equ 0F94h ;# 
   137  0000                     # 1655 "C:\Program Files (x86)\Microchip\xc8\v2.00\pic\include\pic18f452.h"
   138                           DDRC equ 0F94h ;# 
   139  0000                     # 1890 "C:\Program Files (x86)\Microchip\xc8\v2.00\pic\include\pic18f452.h"
   140                           TRISD equ 0F95h ;# 
   141  0000                     # 1895 "C:\Program Files (x86)\Microchip\xc8\v2.00\pic\include\pic18f452.h"
   142                           DDRD equ 0F95h ;# 
   143  0000                     # 2112 "C:\Program Files (x86)\Microchip\xc8\v2.00\pic\include\pic18f452.h"
   144                           TRISE equ 0F96h ;# 
   145  0000                     # 2117 "C:\Program Files (x86)\Microchip\xc8\v2.00\pic\include\pic18f452.h"
   146                           DDRE equ 0F96h ;# 
   147  0000                     # 2264 "C:\Program Files (x86)\Microchip\xc8\v2.00\pic\include\pic18f452.h"
   148                           PIE1 equ 0F9Dh ;# 
   149  0000                     # 2341 "C:\Program Files (x86)\Microchip\xc8\v2.00\pic\include\pic18f452.h"
   150                           PIR1 equ 0F9Eh ;# 
   151  0000                     # 2418 "C:\Program Files (x86)\Microchip\xc8\v2.00\pic\include\pic18f452.h"
   152                           IPR1 equ 0F9Fh ;# 
   153  0000                     # 2495 "C:\Program Files (x86)\Microchip\xc8\v2.00\pic\include\pic18f452.h"
   154                           PIE2 equ 0FA0h ;# 
   155  0000                     # 2539 "C:\Program Files (x86)\Microchip\xc8\v2.00\pic\include\pic18f452.h"
   156                           PIR2 equ 0FA1h ;# 
   157  0000                     # 2583 "C:\Program Files (x86)\Microchip\xc8\v2.00\pic\include\pic18f452.h"
   158                           IPR2 equ 0FA2h ;# 
   159  0000                     # 2627 "C:\Program Files (x86)\Microchip\xc8\v2.00\pic\include\pic18f452.h"
   160                           EECON1 equ 0FA6h ;# 
   161  0000                     # 2693 "C:\Program Files (x86)\Microchip\xc8\v2.00\pic\include\pic18f452.h"
   162                           EECON2 equ 0FA7h ;# 
   163  0000                     # 2700 "C:\Program Files (x86)\Microchip\xc8\v2.00\pic\include\pic18f452.h"
   164                           EEDATA equ 0FA8h ;# 
   165  0000                     # 2707 "C:\Program Files (x86)\Microchip\xc8\v2.00\pic\include\pic18f452.h"
   166                           EEADR equ 0FA9h ;# 
   167  0000                     # 2714 "C:\Program Files (x86)\Microchip\xc8\v2.00\pic\include\pic18f452.h"
   168                           RCSTA equ 0FABh ;# 
   169  0000                     # 2719 "C:\Program Files (x86)\Microchip\xc8\v2.00\pic\include\pic18f452.h"
   170                           RCSTA1 equ 0FABh ;# 
   171  0000                     # 2938 "C:\Program Files (x86)\Microchip\xc8\v2.00\pic\include\pic18f452.h"
   172                           TXSTA equ 0FACh ;# 
   173  0000                     # 2943 "C:\Program Files (x86)\Microchip\xc8\v2.00\pic\include\pic18f452.h"
   174                           TXSTA1 equ 0FACh ;# 
   175  0000                     # 3206 "C:\Program Files (x86)\Microchip\xc8\v2.00\pic\include\pic18f452.h"
   176                           TXREG equ 0FADh ;# 
   177  0000                     # 3211 "C:\Program Files (x86)\Microchip\xc8\v2.00\pic\include\pic18f452.h"
   178                           TXREG1 equ 0FADh ;# 
   179  0000                     # 3218 "C:\Program Files (x86)\Microchip\xc8\v2.00\pic\include\pic18f452.h"
   180                           RCREG equ 0FAEh ;# 
   181  0000                     # 3223 "C:\Program Files (x86)\Microchip\xc8\v2.00\pic\include\pic18f452.h"
   182                           RCREG1 equ 0FAEh ;# 
   183  0000                     # 3230 "C:\Program Files (x86)\Microchip\xc8\v2.00\pic\include\pic18f452.h"
   184                           SPBRG equ 0FAFh ;# 
   185  0000                     # 3235 "C:\Program Files (x86)\Microchip\xc8\v2.00\pic\include\pic18f452.h"
   186                           SPBRG1 equ 0FAFh ;# 
   187  0000                     # 3242 "C:\Program Files (x86)\Microchip\xc8\v2.00\pic\include\pic18f452.h"
   188                           T3CON equ 0FB1h ;# 
   189  0000                     # 3363 "C:\Program Files (x86)\Microchip\xc8\v2.00\pic\include\pic18f452.h"
   190                           TMR3 equ 0FB2h ;# 
   191  0000                     # 3370 "C:\Program Files (x86)\Microchip\xc8\v2.00\pic\include\pic18f452.h"
   192                           TMR3L equ 0FB2h ;# 
   193  0000                     # 3377 "C:\Program Files (x86)\Microchip\xc8\v2.00\pic\include\pic18f452.h"
   194                           TMR3H equ 0FB3h ;# 
   195  0000                     # 3384 "C:\Program Files (x86)\Microchip\xc8\v2.00\pic\include\pic18f452.h"
   196                           CCP2CON equ 0FBAh ;# 
   197  0000                     # 3472 "C:\Program Files (x86)\Microchip\xc8\v2.00\pic\include\pic18f452.h"
   198                           CCPR2 equ 0FBBh ;# 
   199  0000                     # 3479 "C:\Program Files (x86)\Microchip\xc8\v2.00\pic\include\pic18f452.h"
   200                           CCPR2L equ 0FBBh ;# 
   201  0000                     # 3486 "C:\Program Files (x86)\Microchip\xc8\v2.00\pic\include\pic18f452.h"
   202                           CCPR2H equ 0FBCh ;# 
   203  0000                     # 3493 "C:\Program Files (x86)\Microchip\xc8\v2.00\pic\include\pic18f452.h"
   204                           CCP1CON equ 0FBDh ;# 
   205  0000                     # 3572 "C:\Program Files (x86)\Microchip\xc8\v2.00\pic\include\pic18f452.h"
   206                           CCPR1 equ 0FBEh ;# 
   207  0000                     # 3579 "C:\Program Files (x86)\Microchip\xc8\v2.00\pic\include\pic18f452.h"
   208                           CCPR1L equ 0FBEh ;# 
   209  0000                     # 3586 "C:\Program Files (x86)\Microchip\xc8\v2.00\pic\include\pic18f452.h"
   210                           CCPR1H equ 0FBFh ;# 
   211  0000                     # 3593 "C:\Program Files (x86)\Microchip\xc8\v2.00\pic\include\pic18f452.h"
   212                           ADCON1 equ 0FC1h ;# 
   213  0000                     # 3661 "C:\Program Files (x86)\Microchip\xc8\v2.00\pic\include\pic18f452.h"
   214                           ADCON0 equ 0FC2h ;# 
   215  0000                     # 3802 "C:\Program Files (x86)\Microchip\xc8\v2.00\pic\include\pic18f452.h"
   216                           ADRES equ 0FC3h ;# 
   217  0000                     # 3809 "C:\Program Files (x86)\Microchip\xc8\v2.00\pic\include\pic18f452.h"
   218                           ADRESL equ 0FC3h ;# 
   219  0000                     # 3816 "C:\Program Files (x86)\Microchip\xc8\v2.00\pic\include\pic18f452.h"
   220                           ADRESH equ 0FC4h ;# 
   221  0000                     # 3823 "C:\Program Files (x86)\Microchip\xc8\v2.00\pic\include\pic18f452.h"
   222                           SSPCON2 equ 0FC5h ;# 
   223  0000                     # 3885 "C:\Program Files (x86)\Microchip\xc8\v2.00\pic\include\pic18f452.h"
   224                           SSPCON1 equ 0FC6h ;# 
   225  0000                     # 3955 "C:\Program Files (x86)\Microchip\xc8\v2.00\pic\include\pic18f452.h"
   226                           SSPSTAT equ 0FC7h ;# 
   227  0000                     # 4212 "C:\Program Files (x86)\Microchip\xc8\v2.00\pic\include\pic18f452.h"
   228                           SSPADD equ 0FC8h ;# 
   229  0000                     # 4219 "C:\Program Files (x86)\Microchip\xc8\v2.00\pic\include\pic18f452.h"
   230                           SSPBUF equ 0FC9h ;# 
   231  0000                     # 4226 "C:\Program Files (x86)\Microchip\xc8\v2.00\pic\include\pic18f452.h"
   232                           T2CON equ 0FCAh ;# 
   233  0000                     # 4297 "C:\Program Files (x86)\Microchip\xc8\v2.00\pic\include\pic18f452.h"
   234                           PR2 equ 0FCBh ;# 
   235  0000                     # 4302 "C:\Program Files (x86)\Microchip\xc8\v2.00\pic\include\pic18f452.h"
   236                           MEMCON equ 0FCBh ;# 
   237  0000                     # 4407 "C:\Program Files (x86)\Microchip\xc8\v2.00\pic\include\pic18f452.h"
   238                           TMR2 equ 0FCCh ;# 
   239  0000                     # 4414 "C:\Program Files (x86)\Microchip\xc8\v2.00\pic\include\pic18f452.h"
   240                           T1CON equ 0FCDh ;# 
   241  0000                     # 4521 "C:\Program Files (x86)\Microchip\xc8\v2.00\pic\include\pic18f452.h"
   242                           TMR1 equ 0FCEh ;# 
   243  0000                     # 4528 "C:\Program Files (x86)\Microchip\xc8\v2.00\pic\include\pic18f452.h"
   244                           TMR1L equ 0FCEh ;# 
   245  0000                     # 4535 "C:\Program Files (x86)\Microchip\xc8\v2.00\pic\include\pic18f452.h"
   246                           TMR1H equ 0FCFh ;# 
   247  0000                     # 4542 "C:\Program Files (x86)\Microchip\xc8\v2.00\pic\include\pic18f452.h"
   248                           RCON equ 0FD0h ;# 
   249  0000                     # 4685 "C:\Program Files (x86)\Microchip\xc8\v2.00\pic\include\pic18f452.h"
   250                           WDTCON equ 0FD1h ;# 
   251  0000                     # 4713 "C:\Program Files (x86)\Microchip\xc8\v2.00\pic\include\pic18f452.h"
   252                           LVDCON equ 0FD2h ;# 
   253  0000                     # 4771 "C:\Program Files (x86)\Microchip\xc8\v2.00\pic\include\pic18f452.h"
   254                           OSCCON equ 0FD3h ;# 
   255  0000                     # 4791 "C:\Program Files (x86)\Microchip\xc8\v2.00\pic\include\pic18f452.h"
   256                           T0CON equ 0FD5h ;# 
   257  0000                     # 4861 "C:\Program Files (x86)\Microchip\xc8\v2.00\pic\include\pic18f452.h"
   258                           TMR0 equ 0FD6h ;# 
   259  0000                     # 4868 "C:\Program Files (x86)\Microchip\xc8\v2.00\pic\include\pic18f452.h"
   260                           TMR0L equ 0FD6h ;# 
   261  0000                     # 4875 "C:\Program Files (x86)\Microchip\xc8\v2.00\pic\include\pic18f452.h"
   262                           TMR0H equ 0FD7h ;# 
   263  0000                     # 4882 "C:\Program Files (x86)\Microchip\xc8\v2.00\pic\include\pic18f452.h"
   264                           STATUS equ 0FD8h ;# 
   265  0000                     # 4953 "C:\Program Files (x86)\Microchip\xc8\v2.00\pic\include\pic18f452.h"
   266                           FSR2 equ 0FD9h ;# 
   267  0000                     # 4960 "C:\Program Files (x86)\Microchip\xc8\v2.00\pic\include\pic18f452.h"
   268                           FSR2L equ 0FD9h ;# 
   269  0000                     # 4967 "C:\Program Files (x86)\Microchip\xc8\v2.00\pic\include\pic18f452.h"
   270                           FSR2H equ 0FDAh ;# 
   271  0000                     # 4974 "C:\Program Files (x86)\Microchip\xc8\v2.00\pic\include\pic18f452.h"
   272                           PLUSW2 equ 0FDBh ;# 
   273  0000                     # 4981 "C:\Program Files (x86)\Microchip\xc8\v2.00\pic\include\pic18f452.h"
   274                           PREINC2 equ 0FDCh ;# 
   275  0000                     # 4988 "C:\Program Files (x86)\Microchip\xc8\v2.00\pic\include\pic18f452.h"
   276                           POSTDEC2 equ 0FDDh ;# 
   277  0000                     # 4995 "C:\Program Files (x86)\Microchip\xc8\v2.00\pic\include\pic18f452.h"
   278                           POSTINC2 equ 0FDEh ;# 
   279  0000                     # 5002 "C:\Program Files (x86)\Microchip\xc8\v2.00\pic\include\pic18f452.h"
   280                           INDF2 equ 0FDFh ;# 
   281  0000                     # 5009 "C:\Program Files (x86)\Microchip\xc8\v2.00\pic\include\pic18f452.h"
   282                           BSR equ 0FE0h ;# 
   283  0000                     # 5016 "C:\Program Files (x86)\Microchip\xc8\v2.00\pic\include\pic18f452.h"
   284                           FSR1 equ 0FE1h ;# 
   285  0000                     # 5023 "C:\Program Files (x86)\Microchip\xc8\v2.00\pic\include\pic18f452.h"
   286                           FSR1L equ 0FE1h ;# 
   287  0000                     # 5030 "C:\Program Files (x86)\Microchip\xc8\v2.00\pic\include\pic18f452.h"
   288                           FSR1H equ 0FE2h ;# 
   289  0000                     # 5037 "C:\Program Files (x86)\Microchip\xc8\v2.00\pic\include\pic18f452.h"
   290                           PLUSW1 equ 0FE3h ;# 
   291  0000                     # 5044 "C:\Program Files (x86)\Microchip\xc8\v2.00\pic\include\pic18f452.h"
   292                           PREINC1 equ 0FE4h ;# 
   293  0000                     # 5051 "C:\Program Files (x86)\Microchip\xc8\v2.00\pic\include\pic18f452.h"
   294                           POSTDEC1 equ 0FE5h ;# 
   295  0000                     # 5058 "C:\Program Files (x86)\Microchip\xc8\v2.00\pic\include\pic18f452.h"
   296                           POSTINC1 equ 0FE6h ;# 
   297  0000                     # 5065 "C:\Program Files (x86)\Microchip\xc8\v2.00\pic\include\pic18f452.h"
   298                           INDF1 equ 0FE7h ;# 
   299  0000                     # 5072 "C:\Program Files (x86)\Microchip\xc8\v2.00\pic\include\pic18f452.h"
   300                           WREG equ 0FE8h ;# 
   301  0000                     # 5084 "C:\Program Files (x86)\Microchip\xc8\v2.00\pic\include\pic18f452.h"
   302                           FSR0 equ 0FE9h ;# 
   303  0000                     # 5091 "C:\Program Files (x86)\Microchip\xc8\v2.00\pic\include\pic18f452.h"
   304                           FSR0L equ 0FE9h ;# 
   305  0000                     # 5098 "C:\Program Files (x86)\Microchip\xc8\v2.00\pic\include\pic18f452.h"
   306                           FSR0H equ 0FEAh ;# 
   307  0000                     # 5105 "C:\Program Files (x86)\Microchip\xc8\v2.00\pic\include\pic18f452.h"
   308                           PLUSW0 equ 0FEBh ;# 
   309  0000                     # 5112 "C:\Program Files (x86)\Microchip\xc8\v2.00\pic\include\pic18f452.h"
   310                           PREINC0 equ 0FECh ;# 
   311  0000                     # 5119 "C:\Program Files (x86)\Microchip\xc8\v2.00\pic\include\pic18f452.h"
   312                           POSTDEC0 equ 0FEDh ;# 
   313  0000                     # 5126 "C:\Program Files (x86)\Microchip\xc8\v2.00\pic\include\pic18f452.h"
   314                           POSTINC0 equ 0FEEh ;# 
   315  0000                     # 5133 "C:\Program Files (x86)\Microchip\xc8\v2.00\pic\include\pic18f452.h"
   316                           INDF0 equ 0FEFh ;# 
   317  0000                     # 5140 "C:\Program Files (x86)\Microchip\xc8\v2.00\pic\include\pic18f452.h"
   318                           INTCON3 equ 0FF0h ;# 
   319  0000                     # 5232 "C:\Program Files (x86)\Microchip\xc8\v2.00\pic\include\pic18f452.h"
   320                           INTCON2 equ 0FF1h ;# 
   321  0000                     # 5309 "C:\Program Files (x86)\Microchip\xc8\v2.00\pic\include\pic18f452.h"
   322                           INTCON equ 0FF2h ;# 
   323  0000                     # 5314 "C:\Program Files (x86)\Microchip\xc8\v2.00\pic\include\pic18f452.h"
   324                           INTCON1 equ 0FF2h ;# 
   325  0000                     # 5541 "C:\Program Files (x86)\Microchip\xc8\v2.00\pic\include\pic18f452.h"
   326                           PROD equ 0FF3h ;# 
   327  0000                     # 5548 "C:\Program Files (x86)\Microchip\xc8\v2.00\pic\include\pic18f452.h"
   328                           PRODL equ 0FF3h ;# 
   329  0000                     # 5555 "C:\Program Files (x86)\Microchip\xc8\v2.00\pic\include\pic18f452.h"
   330                           PRODH equ 0FF4h ;# 
   331  0000                     # 5562 "C:\Program Files (x86)\Microchip\xc8\v2.00\pic\include\pic18f452.h"
   332                           TABLAT equ 0FF5h ;# 
   333  0000                     # 5571 "C:\Program Files (x86)\Microchip\xc8\v2.00\pic\include\pic18f452.h"
   334                           TBLPTR equ 0FF6h ;# 
   335  0000                     # 5578 "C:\Program Files (x86)\Microchip\xc8\v2.00\pic\include\pic18f452.h"
   336                           TBLPTRL equ 0FF6h ;# 
   337  0000                     # 5585 "C:\Program Files (x86)\Microchip\xc8\v2.00\pic\include\pic18f452.h"
   338                           TBLPTRH equ 0FF7h ;# 
   339  0000                     # 5592 "C:\Program Files (x86)\Microchip\xc8\v2.00\pic\include\pic18f452.h"
   340                           TBLPTRU equ 0FF8h ;# 
   341  0000                     # 5601 "C:\Program Files (x86)\Microchip\xc8\v2.00\pic\include\pic18f452.h"
   342                           PCLAT equ 0FF9h ;# 
   343  0000                     # 5608 "C:\Program Files (x86)\Microchip\xc8\v2.00\pic\include\pic18f452.h"
   344                           PC equ 0FF9h ;# 
   345  0000                     # 5615 "C:\Program Files (x86)\Microchip\xc8\v2.00\pic\include\pic18f452.h"
   346                           PCL equ 0FF9h ;# 
   347  0000                     # 5622 "C:\Program Files (x86)\Microchip\xc8\v2.00\pic\include\pic18f452.h"
   348                           PCLATH equ 0FFAh ;# 
   349  0000                     # 5629 "C:\Program Files (x86)\Microchip\xc8\v2.00\pic\include\pic18f452.h"
   350                           PCLATU equ 0FFBh ;# 
   351  0000                     # 5636 "C:\Program Files (x86)\Microchip\xc8\v2.00\pic\include\pic18f452.h"
   352                           STKPTR equ 0FFCh ;# 
   353  0000                     # 5742 "C:\Program Files (x86)\Microchip\xc8\v2.00\pic\include\pic18f452.h"
   354                           TOS equ 0FFDh ;# 
   355  0000                     # 5749 "C:\Program Files (x86)\Microchip\xc8\v2.00\pic\include\pic18f452.h"
   356                           TOSL equ 0FFDh ;# 
   357  0000                     # 5756 "C:\Program Files (x86)\Microchip\xc8\v2.00\pic\include\pic18f452.h"
   358                           TOSH equ 0FFEh ;# 
   359  0000                     # 5763 "C:\Program Files (x86)\Microchip\xc8\v2.00\pic\include\pic18f452.h"
   360                           TOSU equ 0FFFh ;# 
   361  0000                     	FNCALL	_main,_enable_timer
   362                           	FNCALL	_main,_printf
   363                           	FNCALL	_printf,___awdiv
   364                           	FNCALL	_printf,___fladd
   365                           	FNCALL	_printf,___fleq
   366                           	FNCALL	_printf,___flge
   367                           	FNCALL	_printf,___flmul
   368                           	FNCALL	_printf,___flneg
   369                           	FNCALL	_printf,___flsub
   370                           	FNCALL	_printf,___fltol
   371                           	FNCALL	_printf,___lldiv
   372                           	FNCALL	_printf,___llmod
   373                           	FNCALL	_printf,___wmul
   374                           	FNCALL	_printf,___xxtofl
   375                           	FNCALL	_printf,__div_to_l_
   376                           	FNCALL	_printf,__tdiv_to_l_
   377                           	FNCALL	_printf,_fround
   378                           	FNCALL	_printf,_isdigit
   379                           	FNCALL	_printf,_putch
   380                           	FNCALL	_printf,_scale
   381                           	FNCALL	_scale,___awdiv
   382                           	FNCALL	_scale,___awmod
   383                           	FNCALL	_scale,___flmul
   384                           	FNCALL	_fround,___flmul
   385                           	FNCALL	_fround,___lwdiv
   386                           	FNCALL	_fround,___lwmod
   387                           	FNCALL	___flsub,___fladd
   388                           	FNROOT	_main
   389                           	FNCALL	_Timer,_show_freq
   390                           	FNCALL	_show_freq,___aldiv
   391                           	FNCALL	_show_freq,i2___xxtofl
   392                           	FNCALL	intlevel2,_Timer
   393                           	global	intlevel2
   394                           	FNROOT	intlevel2
   395                           	global	__powers_
   396                           psect	smallconst,class=SMALLCONST,space=0,reloc=2,noexec
   397                           global __psmallconst
   398                           __psmallconst:
   399  000600                     	db	0
   400  000600  00                 	file	"C:\Program Files (x86)\Microchip\xc8\v2.00\pic\sources\c90\common\powers.c"
   401                           	line	7
   402                           __powers_:
   403  000601                     	dw	(normalize32(0x3f800000) & 0ffffh)
   404  000601  0000               	dw	highword (normalize32(0x3f800000))
   405  000603  3F80               	dw	(normalize32(0x41200000) & 0ffffh)
   406  000605  0000               	dw	highword (normalize32(0x41200000))
   407  000607  4120               	dw	(normalize32(0x42c80000) & 0ffffh)
   408  000609  0000               	dw	highword (normalize32(0x42c80000))
   409  00060B  42C8               	dw	(normalize32(0x447a0000) & 0ffffh)
   410  00060D  0000               	dw	highword (normalize32(0x447a0000))
   411  00060F  447A               	dw	(normalize32(0x461c4000) & 0ffffh)
   412  000611  4000               	dw	highword (normalize32(0x461c4000))
   413  000613  461C               	dw	(normalize32(0x47c35000) & 0ffffh)
   414  000615  5000               	dw	highword (normalize32(0x47c35000))
   415  000617  47C3               	dw	(normalize32(0x49742400) & 0ffffh)
   416  000619  2400               	dw	highword (normalize32(0x49742400))
   417  00061B  4974               	dw	(normalize32(0x4b189680) & 0ffffh)
   418  00061D  9680               	dw	highword (normalize32(0x4b189680))
   419  00061F  4B18               	dw	(normalize32(0x4cbebc20) & 0ffffh)
   420  000621  BC20               	dw	highword (normalize32(0x4cbebc20))
   421  000623  4CBE               	dw	(normalize32(0x4e6e6b28) & 0ffffh)
   422  000625  6B28               	dw	highword (normalize32(0x4e6e6b28))
   423  000627  4E6E               	dw	(normalize32(0x501502f9) & 0ffffh)
   424  000629  02F9               	dw	highword (normalize32(0x501502f9))
   425  00062B  5015               	dw	(normalize32(0x60ad78ec) & 0ffffh)
   426  00062D  78EC               	dw	highword (normalize32(0x60ad78ec))
   427  00062F  60AD               	dw	(normalize32(0x7149f2ca) & 0ffffh)
   428  000631  F2CA               	dw	highword (normalize32(0x7149f2ca))
   429  000633  7149               	global __end_of__powers_
   430                           __end_of__powers_:
   431  000635                     	global	__npowers_
   432                           psect	smallconst
   433                           	file	"C:\Program Files (x86)\Microchip\xc8\v2.00\pic\sources\c90\common\powers.c"
   434                           	line	39
   435                           __npowers_:
   436  000635                     	dw	(normalize32(0x3f800000) & 0ffffh)
   437  000635  0000               	dw	highword (normalize32(0x3f800000))
   438  000637  3F80               	dw	(normalize32(0x3dcccccd) & 0ffffh)
   439  000639  CCCD               	dw	highword (normalize32(0x3dcccccd))
   440  00063B  3DCC               	dw	(normalize32(0x3c23d70a) & 0ffffh)
   441  00063D  D70A               	dw	highword (normalize32(0x3c23d70a))
   442  00063F  3C23               	dw	(normalize32(0x3a83126f) & 0ffffh)
   443  000641  126F               	dw	highword (normalize32(0x3a83126f))
   444  000643  3A83               	dw	(normalize32(0x38d1b717) & 0ffffh)
   445  000645  B717               	dw	highword (normalize32(0x38d1b717))
   446  000647  38D1               	dw	(normalize32(0x3727c5ac) & 0ffffh)
   447  000649  C5AC               	dw	highword (normalize32(0x3727c5ac))
   448  00064B  3727               	dw	(normalize32(0x358637bd) & 0ffffh)
   449  00064D  37BD               	dw	highword (normalize32(0x358637bd))
   450  00064F  3586               	dw	(normalize32(0x33d6bf95) & 0ffffh)
   451  000651  BF95               	dw	highword (normalize32(0x33d6bf95))
   452  000653  33D6               	dw	(normalize32(0x322bcc77) & 0ffffh)
   453  000655  CC77               	dw	highword (normalize32(0x322bcc77))
   454  000657  322B               	dw	(normalize32(0x3089705f) & 0ffffh)
   455  000659  705F               	dw	highword (normalize32(0x3089705f))
   456  00065B  3089               	dw	(normalize32(0x2edbe6ff) & 0ffffh)
   457  00065D  E6FF               	dw	highword (normalize32(0x2edbe6ff))
   458  00065F  2EDB               	dw	(normalize32(0x1e3ce508) & 0ffffh)
   459  000661  E508               	dw	highword (normalize32(0x1e3ce508))
   460  000663  1E3C               	dw	(normalize32(0xda24260) & 0ffffh)
   461  000665  4260               	dw	highword (normalize32(0xda24260))
   462  000667  0DA2               	global __end_of__npowers_
   463                           __end_of__npowers_:
   464  000669                     	global	_dpowers
   465                           psect	smallconst
   466                           	file	"C:\Program Files (x86)\Microchip\xc8\v2.00\pic\sources\c90\common\doprnt.c"
   467                           	line	358
   468                           _dpowers:
   469  000669                     	dw	(01h) & 0xffff
   470  000669  0001               	dw	highword(01h)
   471  00066B  0000               	dw	(0Ah) & 0xffff
   472  00066D  000A               	dw	highword(0Ah)
   473  00066F  0000               	dw	(064h) & 0xffff
   474  000671  0064               	dw	highword(064h)
   475  000673  0000               	dw	(03E8h) & 0xffff
   476  000675  03E8               	dw	highword(03E8h)
   477  000677  0000               	dw	(02710h) & 0xffff
   478  000679  2710               	dw	highword(02710h)
   479  00067B  0000               	dw	(0186A0h) & 0xffff
   480  00067D  86A0               	dw	highword(0186A0h)
   481  00067F  0001               	dw	(0F4240h) & 0xffff
   482  000681  4240               	dw	highword(0F4240h)
   483  000683  000F               	dw	(0989680h) & 0xffff
   484  000685  9680               	dw	highword(0989680h)
   485  000687  0098               	dw	(05F5E100h) & 0xffff
   486  000689  E100               	dw	highword(05F5E100h)
   487  00068B  05F5               	dw	(03B9ACA00h) & 0xffff
   488  00068D  CA00               	dw	highword(03B9ACA00h)
   489  00068F  3B9A               	global __end_of_dpowers
   490                           __end_of_dpowers:
   491  000691                     	global	__powers_
   492                           	global	__npowers_
   493                           	global	_dpowers
   494                           	global	_t2
   495                           	global	_t1
   496                           	global	_f
   497                           	global	_T3CONbits
   498                           _T3CONbits	set	0xFB1
   499  0000                     	global	_CCPR1L
   500                           _CCPR1L	set	0xFBE
   501  0000                     	global	_CCPR1H
   502                           _CCPR1H	set	0xFBF
   503  0000                     	global	_TXREG
   504                           _TXREG	set	0xFAD
   505  0000                     	global	_PIR1bits
   506                           _PIR1bits	set	0xF9E
   507  0000                     	global	_INTCONbits
   508                           _INTCONbits	set	0xFF2
   509  0000                     	global	_IPR1bits
   510                           _IPR1bits	set	0xF9F
   511  0000                     	global	_PIE1bits
   512                           _PIE1bits	set	0xF9D
   513  0000                     	global	_T3CON
   514                           _T3CON	set	0xFB1
   515  0000                     	global	_TRISCbits
   516                           _TRISCbits	set	0xF94
   517  0000                     	global	_CCP1CON
   518                           _CCP1CON	set	0xFBD
   519  0000                     	global	_RCSTAbits
   520                           _RCSTAbits	set	0xFAB
   521  0000                     	global	_TXSTAbits
   522                           _TXSTAbits	set	0xFAC
   523  0000                     	
   524                           STR_1:
   525  000691                     	db	102	;'f'
   526  000691  66                 	db	32
   527  000692  20                 	db	61	;'='
   528  000693  3D                 	db	32
   529  000694  20                 	db	37
   530  000695  25                 	db	48	;'0'
   531  000696  30                 	db	46
   532  000697  2E                 	db	51	;'3'
   533  000698  33                 	db	102	;'f'
   534  000699  66                 	db	32
   535  00069A  20                 	db	72	;'H'
   536  00069B  48                 	db	122	;'z'
   537  00069C  7A                 	db	10
   538  00069D  0A                 	db	0
   539  00069E  00                 ; #config settings
   540                           global __CFG_OSC$HS
   541                           __CFG_OSC$HS equ 0x0
   542  0000                     global __CFG_OSCS$OFF
   543                           __CFG_OSCS$OFF equ 0x0
   544  0000                     global __CFG_PWRT$OFF
   545                           __CFG_PWRT$OFF equ 0x0
   546  0000                     global __CFG_BOR$OFF
   547                           __CFG_BOR$OFF equ 0x0
   548  0000                     global __CFG_BORV$20
   549                           __CFG_BORV$20 equ 0x0
   550  0000                     global __CFG_WDT$OFF
   551                           __CFG_WDT$OFF equ 0x0
   552  0000                     global __CFG_WDTPS$128
   553                           __CFG_WDTPS$128 equ 0x0
   554  0000                     global __CFG_CCP2MUX$ON
   555                           __CFG_CCP2MUX$ON equ 0x0
   556  0000                     global __CFG_STVR$OFF
   557                           __CFG_STVR$OFF equ 0x0
   558  0000                     global __CFG_LVP$OFF
   559                           __CFG_LVP$OFF equ 0x0
   560  0000                     	file	"C:\Users\Nathan\AppData\Local\Temp\s8nk."
   561                           	line	#
   562                           psect	cinit,class=CODE,delta=1,reloc=2
   563                           global __pcinit
   564                           __pcinit:
   565  003C66                     global start_initialization
   566                           start_initialization:
   567  003C66                     
   568                           global __initialization
   569                           __initialization:
   570  003C66                     psect	bssCOMRAM,class=COMRAM,space=1,noexec
   571                           global __pbssCOMRAM
   572                           __pbssCOMRAM:
   573  00005B                     	global	_t2
   574                           _t2:
   575  00005B                            ds      2
   576  00005B                     	global	_t1
   577                           _t1:
   578  00005D                            ds      2
   579  00005D                     psect	bssBANK0,class=BANK0,space=1,noexec,lowdata
   580                           global __pbssBANK0
   581                           __pbssBANK0:
   582  0000B9                     	global	_f
   583                           _f:
   584  0000B9                            ds      4
   585  0000B9                     	file	"C:\Users\Nathan\AppData\Local\Temp\s8nk."
   586                           	line	#
   587                           psect	cinit
   588                           ; Clear objects allocated to BANK0 (4 bytes)
   589                           	global __pbssBANK0
   590                           movlb	0
   591  003C66  0100               clrf	(__pbssBANK0+3)&0xffh,b
   592  003C68  6BBC               clrf	(__pbssBANK0+2)&0xffh,b
   593  003C6A  6BBB               clrf	(__pbssBANK0+1)&0xffh,b
   594  003C6C  6BBA               clrf	(__pbssBANK0+0)&0xffh,b
   595  003C6E  6BB9               ; Clear objects allocated to COMRAM (4 bytes)
   596                           	global __pbssCOMRAM
   597                           clrf	(__pbssCOMRAM+3)&0xffh,c
   598  003C70  6A5E               clrf	(__pbssCOMRAM+2)&0xffh,c
   599  003C72  6A5D               clrf	(__pbssCOMRAM+1)&0xffh,c
   600  003C74  6A5C               clrf	(__pbssCOMRAM+0)&0xffh,c
   601  003C76  6A5B               psect cinit,class=CODE,delta=1
   602                           global end_of_initialization,__end_of__initialization
   603                           
   604                           ;End of C runtime variable initialization code
   605                           
   606                           end_of_initialization:
   607  003C78                     __end_of__initialization:
   608  003C78                     	bcf int$flags,0,c ;clear compiler interrupt flag (level 1)
   609  003C78  905F               	bcf int$flags,1,c ;clear compiler interrupt flag (level 2)
   610  003C7A  925F               	GLOBAL	__Lmediumconst
   611                           	movlw	low highword(__Lmediumconst)
   612  003C7C  0E00               	movwf	tblptru
   613  003C7E  6EF8               movlb 0
   614  003C80  0100               goto _main	;jump to C main() function
   615  003C82  EF95  F01D         psect	cstackBANK0,class=BANK0,space=1,noexec
   616                           global __pcstackBANK0
   617                           __pcstackBANK0:
   618  000080                     ??___fladd:	; 1 bytes @ 0x0
   619  000080                     	ds   8
   620  000080                     	global	___fladd@signs
   621                           ___fladd@signs:	; 1 bytes @ 0x8
   622  000088                     	ds   1
   623  000088                     	global	___fladd@aexp
   624                           ___fladd@aexp:	; 1 bytes @ 0x9
   625  000089                     	ds   1
   626  000089                     	global	___fladd@bexp
   627                           ___fladd@bexp:	; 1 bytes @ 0xA
   628  00008A                     	ds   1
   629  00008A                     	global	___fladd@grs
   630                           ___fladd@grs:	; 1 bytes @ 0xB
   631  00008B                     	ds   1
   632  00008B                     	global	?___flsub
   633                           ?___flsub:	; 4 bytes @ 0xC
   634  00008C                     	global	___flsub@b
   635                           ___flsub@b:	; 4 bytes @ 0xC
   636  00008C                     	ds   4
   637  00008C                     	global	___flsub@a
   638                           ___flsub@a:	; 4 bytes @ 0x10
   639  000090                     	ds   4
   640  000090                     	global	?_printf
   641                           ?_printf:	; 2 bytes @ 0x14
   642  000094                     	global	printf@f
   643                           printf@f:	; 2 bytes @ 0x14
   644  000094                     	ds   6
   645  000094                     ??_printf:	; 1 bytes @ 0x1A
   646  00009A                     	ds   4
   647  00009A                     	global	_printf$1186
   648                           _printf$1186:	; 4 bytes @ 0x1E
   649  00009E                     	ds   4
   650  00009E                     	global	printf@ap
   651                           printf@ap:	; 2 bytes @ 0x22
   652  0000A2                     	ds   2
   653  0000A2                     	global	printf@val
   654                           printf@val:	; 4 bytes @ 0x24
   655  0000A4                     	ds   4
   656  0000A4                     	global	printf@tmpval
   657                           printf@tmpval:	; 4 bytes @ 0x28
   658  0000A8                     	ds   4
   659  0000A8                     	global	printf@eexp
   660                           printf@eexp:	; 2 bytes @ 0x2C
   661  0000AC                     	ds   2
   662  0000AC                     	global	printf@flag
   663                           printf@flag:	; 2 bytes @ 0x2E
   664  0000AE                     	ds   2
   665  0000AE                     	global	printf@width
   666                           printf@width:	; 2 bytes @ 0x30
   667  0000B0                     	ds   2
   668  0000B0                     	global	printf@fval
   669                           printf@fval:	; 4 bytes @ 0x32
   670  0000B2                     	ds   4
   671  0000B2                     	global	printf@prec
   672                           printf@prec:	; 2 bytes @ 0x36
   673  0000B6                     	ds   2
   674  0000B6                     	global	printf@c
   675                           printf@c:	; 1 bytes @ 0x38
   676  0000B8                     	ds   1
   677  0000B8                     psect	cstackCOMRAM,class=COMRAM,space=1,noexec
   678                           global __pcstackCOMRAM
   679                           __pcstackCOMRAM:
   680  000001                     ?_isdigit:	; 1 bit 
   681  000001                     ?_enable_timer:	; 1 bytes @ 0x0
   682  000001                     ?_show_freq:	; 1 bytes @ 0x0
   683  000001                     ?_main:	; 1 bytes @ 0x0
   684  000001                     ?_putch:	; 1 bytes @ 0x0
   685  000001                     ?_Timer:	; 1 bytes @ 0x0
   686  000001                     	global	?___aldiv
   687                           ?___aldiv:	; 4 bytes @ 0x0
   688  000001                     	global	___aldiv@dividend
   689                           ___aldiv@dividend:	; 4 bytes @ 0x0
   690  000001                     	ds   4
   691  000001                     	global	___aldiv@divisor
   692                           ___aldiv@divisor:	; 4 bytes @ 0x4
   693  000005                     	ds   4
   694  000005                     ??___aldiv:	; 1 bytes @ 0x8
   695  000009                     	global	___aldiv@counter
   696                           ___aldiv@counter:	; 1 bytes @ 0x8
   697  000009                     	ds   1
   698  000009                     	global	___aldiv@sign
   699                           ___aldiv@sign:	; 1 bytes @ 0x9
   700  00000A                     	ds   1
   701  00000A                     	global	___aldiv@quotient
   702                           ___aldiv@quotient:	; 4 bytes @ 0xA
   703  00000B                     	ds   4
   704  00000B                     	global	?i2___xxtofl
   705                           ?i2___xxtofl:	; 4 bytes @ 0xE
   706  00000F                     	global	i2___xxtofl@val
   707                           i2___xxtofl@val:	; 4 bytes @ 0xE
   708  00000F                     	ds   4
   709  00000F                     ??i2___xxtofl:	; 1 bytes @ 0x12
   710  000013                     	ds   4
   711  000013                     	global	i2___xxtofl@sign
   712                           i2___xxtofl@sign:	; 1 bytes @ 0x16
   713  000017                     	ds   1
   714  000017                     	global	i2___xxtofl@exp
   715                           i2___xxtofl@exp:	; 1 bytes @ 0x17
   716  000018                     	ds   1
   717  000018                     	global	i2___xxtofl@arg
   718                           i2___xxtofl@arg:	; 4 bytes @ 0x18
   719  000019                     	ds   4
   720  000019                     ??_show_freq:	; 1 bytes @ 0x1C
   721  00001D                     	ds   2
   722  00001D                     ?___fleq:	; 1 bit 
   723  00001F                     ?___flge:	; 1 bit 
   724  00001F                     ??_enable_timer:	; 1 bytes @ 0x1E
   725  00001F                     ??_isdigit:	; 1 bytes @ 0x1E
   726  00001F                     ??_putch:	; 1 bytes @ 0x1E
   727  00001F                     ??_Timer:	; 1 bytes @ 0x1E
   728  00001F                     	global	?___wmul
   729                           ?___wmul:	; 2 bytes @ 0x1E
   730  00001F                     	global	?___awmod
   731                           ?___awmod:	; 2 bytes @ 0x1E
   732  00001F                     	global	?___lwmod
   733                           ?___lwmod:	; 2 bytes @ 0x1E
   734  00001F                     	global	?__tdiv_to_l_
   735                           ?__tdiv_to_l_:	; 4 bytes @ 0x1E
   736  00001F                     	global	?__div_to_l_
   737                           ?__div_to_l_:	; 4 bytes @ 0x1E
   738  00001F                     	global	?___lldiv
   739                           ?___lldiv:	; 4 bytes @ 0x1E
   740  00001F                     	global	?___flneg
   741                           ?___flneg:	; 4 bytes @ 0x1E
   742  00001F                     	global	?___llmod
   743                           ?___llmod:	; 4 bytes @ 0x1E
   744  00001F                     	global	?___xxtofl
   745                           ?___xxtofl:	; 4 bytes @ 0x1E
   746  00001F                     	global	putch@data
   747                           putch@data:	; 1 bytes @ 0x1E
   748  00001F                     	global	___wmul@multiplier
   749                           ___wmul@multiplier:	; 2 bytes @ 0x1E
   750  00001F                     	global	___awmod@dividend
   751                           ___awmod@dividend:	; 2 bytes @ 0x1E
   752  00001F                     	global	___lwmod@dividend
   753                           ___lwmod@dividend:	; 2 bytes @ 0x1E
   754  00001F                     	global	___lldiv@dividend
   755                           ___lldiv@dividend:	; 4 bytes @ 0x1E
   756  00001F                     	global	__div_to_l_@f1
   757                           __div_to_l_@f1:	; 4 bytes @ 0x1E
   758  00001F                     	global	___fleq@ff1
   759                           ___fleq@ff1:	; 4 bytes @ 0x1E
   760  00001F                     	global	___flge@ff1
   761                           ___flge@ff1:	; 4 bytes @ 0x1E
   762  00001F                     	global	___flneg@f1
   763                           ___flneg@f1:	; 4 bytes @ 0x1E
   764  00001F                     	global	__tdiv_to_l_@f1
   765                           __tdiv_to_l_@f1:	; 4 bytes @ 0x1E
   766  00001F                     	global	___llmod@dividend
   767                           ___llmod@dividend:	; 4 bytes @ 0x1E
   768  00001F                     	global	___xxtofl@val
   769                           ___xxtofl@val:	; 4 bytes @ 0x1E
   770  00001F                     	ds   1
   771  00001F                     	global	_isdigit$1002
   772                           _isdigit$1002:	; 1 bytes @ 0x1F
   773  000020                     	ds   1
   774  000020                     	global	isdigit@c
   775                           isdigit@c:	; 1 bytes @ 0x20
   776  000021                     	global	___wmul@multiplicand
   777                           ___wmul@multiplicand:	; 2 bytes @ 0x20
   778  000021                     	global	___awmod@divisor
   779                           ___awmod@divisor:	; 2 bytes @ 0x20
   780  000021                     	global	___lwmod@divisor
   781                           ___lwmod@divisor:	; 2 bytes @ 0x20
   782  000021                     	ds   2
   783  000021                     ??___wmul:	; 1 bytes @ 0x22
   784  000023                     ??___awmod:	; 1 bytes @ 0x22
   785  000023                     ??___flneg:	; 1 bytes @ 0x22
   786  000023                     ??___lwmod:	; 1 bytes @ 0x22
   787  000023                     ??___xxtofl:	; 1 bytes @ 0x22
   788  000023                     	global	___awmod@counter
   789                           ___awmod@counter:	; 1 bytes @ 0x22
   790  000023                     	global	___lwmod@counter
   791                           ___lwmod@counter:	; 1 bytes @ 0x22
   792  000023                     	global	___wmul@product
   793                           ___wmul@product:	; 2 bytes @ 0x22
   794  000023                     	global	___lldiv@divisor
   795                           ___lldiv@divisor:	; 4 bytes @ 0x22
   796  000023                     	global	__div_to_l_@f2
   797                           __div_to_l_@f2:	; 4 bytes @ 0x22
   798  000023                     	global	___fleq@ff2
   799                           ___fleq@ff2:	; 4 bytes @ 0x22
   800  000023                     	global	___flge@ff2
   801                           ___flge@ff2:	; 4 bytes @ 0x22
   802  000023                     	global	__tdiv_to_l_@f2
   803                           __tdiv_to_l_@f2:	; 4 bytes @ 0x22
   804  000023                     	global	___llmod@divisor
   805                           ___llmod@divisor:	; 4 bytes @ 0x22
   806  000023                     	ds   1
   807  000023                     	global	?___lwdiv
   808                           ?___lwdiv:	; 2 bytes @ 0x23
   809  000024                     	global	___awmod@sign
   810                           ___awmod@sign:	; 1 bytes @ 0x23
   811  000024                     	global	___lwdiv@dividend
   812                           ___lwdiv@dividend:	; 2 bytes @ 0x23
   813  000024                     	ds   1
   814  000024                     	global	?___awdiv
   815                           ?___awdiv:	; 2 bytes @ 0x24
   816  000025                     	global	___awdiv@dividend
   817                           ___awdiv@dividend:	; 2 bytes @ 0x24
   818  000025                     	ds   1
   819  000025                     	global	___lwdiv@divisor
   820                           ___lwdiv@divisor:	; 2 bytes @ 0x25
   821  000026                     	ds   1
   822  000026                     ??__tdiv_to_l_:	; 1 bytes @ 0x26
   823  000027                     ??__div_to_l_:	; 1 bytes @ 0x26
   824  000027                     ??___lldiv:	; 1 bytes @ 0x26
   825  000027                     ??___fleq:	; 1 bytes @ 0x26
   826  000027                     ??___flge:	; 1 bytes @ 0x26
   827  000027                     ??___llmod:	; 1 bytes @ 0x26
   828  000027                     	global	___llmod@counter
   829                           ___llmod@counter:	; 1 bytes @ 0x26
   830  000027                     	global	___xxtofl@sign
   831                           ___xxtofl@sign:	; 1 bytes @ 0x26
   832  000027                     	global	___awdiv@divisor
   833                           ___awdiv@divisor:	; 2 bytes @ 0x26
   834  000027                     	global	___lldiv@quotient
   835                           ___lldiv@quotient:	; 4 bytes @ 0x26
   836  000027                     	global	__div_to_l_@quot
   837                           __div_to_l_@quot:	; 4 bytes @ 0x26
   838  000027                     	ds   1
   839  000027                     ??___lwdiv:	; 1 bytes @ 0x27
   840  000028                     	global	___xxtofl@exp
   841                           ___xxtofl@exp:	; 1 bytes @ 0x27
   842  000028                     	global	___lwdiv@quotient
   843                           ___lwdiv@quotient:	; 2 bytes @ 0x27
   844  000028                     	ds   1
   845  000028                     ??___awdiv:	; 1 bytes @ 0x28
   846  000029                     	global	___awdiv@counter
   847                           ___awdiv@counter:	; 1 bytes @ 0x28
   848  000029                     	global	___xxtofl@arg
   849                           ___xxtofl@arg:	; 4 bytes @ 0x28
   850  000029                     	ds   1
   851  000029                     	global	___awdiv@sign
   852                           ___awdiv@sign:	; 1 bytes @ 0x29
   853  00002A                     	global	___lwdiv@counter
   854                           ___lwdiv@counter:	; 1 bytes @ 0x29
   855  00002A                     	global	__tdiv_to_l_@quot
   856                           __tdiv_to_l_@quot:	; 4 bytes @ 0x29
   857  00002A                     	ds   1
   858  00002A                     	global	___lldiv@counter
   859                           ___lldiv@counter:	; 1 bytes @ 0x2A
   860  00002B                     	global	__div_to_l_@cntr
   861                           __div_to_l_@cntr:	; 1 bytes @ 0x2A
   862  00002B                     	global	___awdiv@quotient
   863                           ___awdiv@quotient:	; 2 bytes @ 0x2A
   864  00002B                     	ds   1
   865  00002B                     	global	__div_to_l_@exp1
   866                           __div_to_l_@exp1:	; 1 bytes @ 0x2B
   867  00002C                     	ds   1
   868  00002C                     	global	?___flmul
   869                           ?___flmul:	; 4 bytes @ 0x2C
   870  00002D                     	global	___flmul@b
   871                           ___flmul@b:	; 4 bytes @ 0x2C
   872  00002D                     	ds   1
   873  00002D                     	global	__tdiv_to_l_@cntr
   874                           __tdiv_to_l_@cntr:	; 1 bytes @ 0x2D
   875  00002E                     	ds   1
   876  00002E                     	global	__tdiv_to_l_@exp1
   877                           __tdiv_to_l_@exp1:	; 1 bytes @ 0x2E
   878  00002F                     	ds   2
   879  00002F                     	global	___flmul@a
   880                           ___flmul@a:	; 4 bytes @ 0x30
   881  000031                     	ds   4
   882  000031                     ??___flmul:	; 1 bytes @ 0x34
   883  000035                     	ds   4
   884  000035                     	global	___flmul@sign
   885                           ___flmul@sign:	; 1 bytes @ 0x38
   886  000039                     	ds   1
   887  000039                     	global	___flmul@grs
   888                           ___flmul@grs:	; 4 bytes @ 0x39
   889  00003A                     	ds   4
   890  00003A                     	global	___flmul@aexp
   891                           ___flmul@aexp:	; 1 bytes @ 0x3D
   892  00003E                     	ds   1
   893  00003E                     	global	___flmul@bexp
   894                           ___flmul@bexp:	; 1 bytes @ 0x3E
   895  00003F                     	ds   1
   896  00003F                     	global	___flmul@prod
   897                           ___flmul@prod:	; 4 bytes @ 0x3F
   898  000040                     	ds   4
   899  000040                     	global	___flmul@temp
   900                           ___flmul@temp:	; 2 bytes @ 0x43
   901  000044                     	ds   2
   902  000044                     	global	?_fround
   903                           ?_fround:	; 4 bytes @ 0x45
   904  000046                     	global	?_scale
   905                           ?_scale:	; 4 bytes @ 0x45
   906  000046                     	ds   4
   907  000046                     ??_fround:	; 1 bytes @ 0x49
   908  00004A                     ??_scale:	; 1 bytes @ 0x49
   909  00004A                     	global	_fround$1184
   910                           _fround$1184:	; 4 bytes @ 0x49
   911  00004A                     	global	_scale$1185
   912                           _scale$1185:	; 4 bytes @ 0x49
   913  00004A                     	ds   4
   914  00004A                     	global	scale@scl
   915                           scale@scl:	; 1 bytes @ 0x4D
   916  00004E                     	global	_fround$1183
   917                           _fround$1183:	; 4 bytes @ 0x4D
   918  00004E                     	ds   1
   919  00004E                     	global	?___fltol
   920                           ?___fltol:	; 4 bytes @ 0x4E
   921  00004F                     	global	___fltol@f1
   922                           ___fltol@f1:	; 4 bytes @ 0x4E
   923  00004F                     	ds   3
   924  00004F                     	global	fround@prec
   925                           fround@prec:	; 1 bytes @ 0x51
   926  000052                     	ds   1
   927  000052                     ??___fltol:	; 1 bytes @ 0x52
   928  000053                     	global	?___fladd
   929                           ?___fladd:	; 4 bytes @ 0x52
   930  000053                     	global	___fladd@b
   931                           ___fladd@b:	; 4 bytes @ 0x52
   932  000053                     	ds   4
   933  000053                     	global	___fltol@sign1
   934                           ___fltol@sign1:	; 1 bytes @ 0x56
   935  000057                     	global	___fladd@a
   936                           ___fladd@a:	; 4 bytes @ 0x56
   937  000057                     	ds   1
   938  000057                     	global	___fltol@exp1
   939                           ___fltol@exp1:	; 1 bytes @ 0x57
   940  000058                     	ds   3
   941  000058                     ??___flsub:	; 1 bytes @ 0x5A
   942  00005B                     ??_main:	; 1 bytes @ 0x5A
   943  00005B                     ;!
   944                           ;!Data Sizes:
   945                           ;!    Strings     14
   946                           ;!    Constant    144
   947                           ;!    Data        0
   948                           ;!    BSS         8
   949                           ;!    Persistent  0
   950                           ;!    Stack       0
   951                           ;!
   952                           ;!Auto Spaces:
   953                           ;!    Space          Size  Autos    Used
   954                           ;!    COMRAM          126     90      94
   955                           ;!    BANK0           128     57      61
   956                           ;!    BANK1           256      0       0
   957                           ;!    BANK2           256      0       0
   958                           ;!    BANK3           256      0       0
   959                           ;!    BANK4           256      0       0
   960                           ;!    BANK5           256      0       0
   961                           
   962                           ;!
   963                           ;!Pointer List with Targets:
   964                           ;!
   965                           ;!    printf@f	PTR const unsigned char  size(2) Largest target is 14
   966                           ;!		 -> STR_1(CODE[14]), 
   967                           ;!
   968                           ;!    printf@ap	PTR void [1] size(2) Largest target is 2
   969                           ;!		 -> ?_printf(BANK0[2]), 
   970                           ;!
   971                           
   972                           
   973                           ;!
   974                           ;!Critical Paths under _main in COMRAM
   975                           ;!
   976                           ;!    _printf->___fladd
   977                           ;!    _scale->___flmul
   978                           ;!    ___awdiv->___awmod
   979                           ;!    _fround->___flmul
   980                           ;!    ___lwdiv->___lwmod
   981                           ;!    ___flmul->___awdiv
   982                           ;!    ___fltol->_scale
   983                           ;!    ___flsub->___fladd
   984                           ;!    ___fladd->_fround
   985                           ;!
   986                           ;!Critical Paths under _Timer in COMRAM
   987                           ;!
   988                           ;!    _Timer->_show_freq
   989                           ;!    _show_freq->i2___xxtofl
   990                           ;!    i2___xxtofl->___aldiv
   991                           ;!
   992                           ;!Critical Paths under _main in BANK0
   993                           ;!
   994                           ;!    _main->_printf
   995                           ;!    _printf->___flsub
   996                           ;!    ___flsub->___fladd
   997                           ;!
   998                           ;!Critical Paths under _Timer in BANK0
   999                           ;!
  1000                           ;!    None.
  1001                           ;!
  1002                           ;!Critical Paths under _main in BANK1
  1003                           ;!
  1004                           ;!    None.
  1005                           ;!
  1006                           ;!Critical Paths under _Timer in BANK1
  1007                           ;!
  1008                           ;!    None.
  1009                           ;!
  1010                           ;!Critical Paths under _main in BANK2
  1011                           ;!
  1012                           ;!    None.
  1013                           ;!
  1014                           ;!Critical Paths under _Timer in BANK2
  1015                           ;!
  1016                           ;!    None.
  1017                           ;!
  1018                           ;!Critical Paths under _main in BANK3
  1019                           ;!
  1020                           ;!    None.
  1021                           ;!
  1022                           ;!Critical Paths under _Timer in BANK3
  1023                           ;!
  1024                           ;!    None.
  1025                           ;!
  1026                           ;!Critical Paths under _main in BANK4
  1027                           ;!
  1028                           ;!    None.
  1029                           ;!
  1030                           ;!Critical Paths under _Timer in BANK4
  1031                           ;!
  1032                           ;!    None.
  1033                           ;!
  1034                           ;!Critical Paths under _main in BANK5
  1035                           ;!
  1036                           ;!    None.
  1037                           ;!
  1038                           ;!Critical Paths under _Timer in BANK5
  1039                           ;!
  1040                           ;!    None.
  1041                           
  1042 ;;
  1043 ;;Main: autosize = 0, tempsize = 0, incstack = 0, save=0
  1044 ;;
  1045                           
  1046                           ;!
  1047                           ;!Call Graph Tables:
  1048                           ;!
  1049                           ;! ---------------------------------------------------------------------------------
  1050                           ;! (Depth) Function   	        Calls       Base Space   Used Autos Params    Refs
  1051                           ;! ---------------------------------------------------------------------------------
  1052                           ;! (0) _main                                                 0     0      0   32788
  1053                           ;!                       _enable_timer
  1054                           ;!                             _printf
  1055                           ;! ---------------------------------------------------------------------------------
  1056                           ;! (1) _printf                                              43    37      6   32788
  1057                           ;!                                             20 BANK0     37    31      6
  1058                           ;!                            ___awdiv
  1059                           ;!                            ___fladd
  1060                           ;!                             ___fleq
  1061                           ;!                             ___flge
  1062                           ;!                            ___flmul
  1063                           ;!                            ___flneg
  1064                           ;!                            ___flsub
  1065                           ;!                            ___fltol
  1066                           ;!                            ___lldiv
  1067                           ;!                            ___llmod
  1068                           ;!                             ___wmul
  1069                           ;!                           ___xxtofl
  1070                           ;!                         __div_to_l_
  1071                           ;!                        __tdiv_to_l_
  1072                           ;!                             _fround
  1073                           ;!                            _isdigit
  1074                           ;!                              _putch
  1075                           ;!                              _scale
  1076                           ;! ---------------------------------------------------------------------------------
  1077                           ;! (2) _scale                                                9     5      4    6735
  1078                           ;!                                             69 COMRAM     9     5      4
  1079                           ;!                            ___awdiv
  1080                           ;!                            ___awmod
  1081                           ;!                            ___flmul
  1082                           ;! ---------------------------------------------------------------------------------
  1083                           ;! (3) ___awmod                                              6     2      4    1208
  1084                           ;!                                             30 COMRAM     6     2      4
  1085                           ;! ---------------------------------------------------------------------------------
  1086                           ;! (3) ___awdiv                                              8     4      4    1364
  1087                           ;!                                             36 COMRAM     8     4      4
  1088                           ;!                            ___awmod (ARG)
  1089                           ;! ---------------------------------------------------------------------------------
  1090                           ;! (2) _putch                                                1     1      0      22
  1091                           ;!                                             30 COMRAM     1     1      0
  1092                           ;! ---------------------------------------------------------------------------------
  1093                           ;! (2) _isdigit                                              3     3      0      68
  1094                           ;!                                             30 COMRAM     3     3      0
  1095                           ;! ---------------------------------------------------------------------------------
  1096                           ;! (2) _fround                                              13     9      4    5198
  1097                           ;!                                             69 COMRAM    13     9      4
  1098                           ;!                            ___flmul
  1099                           ;!                            ___lwdiv
  1100                           ;!                            ___lwmod
  1101                           ;! ---------------------------------------------------------------------------------
  1102                           ;! (3) ___lwmod                                              5     1      4     615
  1103                           ;!                                             30 COMRAM     5     1      4
  1104                           ;! ---------------------------------------------------------------------------------
  1105                           ;! (3) ___lwdiv                                              7     3      4     618
  1106                           ;!                                             35 COMRAM     7     3      4
  1107                           ;!                            ___lwmod (ARG)
  1108                           ;! ---------------------------------------------------------------------------------
  1109                           ;! (3) ___flmul                                             25    17      8    3720
  1110                           ;!                                             44 COMRAM    25    17      8
  1111                           ;!                            ___awdiv (ARG)
  1112                           ;!                            ___awmod (ARG)
  1113                           ;!                            ___lwdiv (ARG)
  1114                           ;!                            ___lwmod (ARG)
  1115                           ;! ---------------------------------------------------------------------------------
  1116                           ;! (2) __tdiv_to_l_                                         17     9      8     455
  1117                           ;!                                             30 COMRAM    17     9      8
  1118                           ;! ---------------------------------------------------------------------------------
  1119                           ;! (2) __div_to_l_                                          14     6      8     455
  1120                           ;!                                             30 COMRAM    14     6      8
  1121                           ;! ---------------------------------------------------------------------------------
  1122                           ;! (2) ___xxtofl                                            14    10      4     448
  1123                           ;!                                             30 COMRAM    14    10      4
  1124                           ;! ---------------------------------------------------------------------------------
  1125                           ;! (2) ___wmul                                               6     2      4     615
  1126                           ;!                                             30 COMRAM     6     2      4
  1127                           ;! ---------------------------------------------------------------------------------
  1128                           ;! (2) ___llmod                                              9     1      8     615
  1129                           ;!                                             30 COMRAM     9     1      8
  1130                           ;! ---------------------------------------------------------------------------------
  1131                           ;! (2) ___lldiv                                             13     5      8     466
  1132                           ;!                                             30 COMRAM    13     5      8
  1133                           ;! ---------------------------------------------------------------------------------
  1134                           ;! (2) ___fltol                                             10     6      4     457
  1135                           ;!                                             78 COMRAM    10     6      4
  1136                           ;!                            ___flmul (ARG)
  1137                           ;!                              _scale (ARG)
  1138                           ;! ---------------------------------------------------------------------------------
  1139                           ;! (2) ___flsub                                              8     0      8    3827
  1140                           ;!                                             12 BANK0      8     0      8
  1141                           ;!                            ___fladd
  1142                           ;!                           ___xxtofl (ARG)
  1143                           ;! ---------------------------------------------------------------------------------
  1144                           ;! (3) ___fladd                                             20    12      8    3442
  1145                           ;!                                             82 COMRAM     8     0      8
  1146                           ;!                                              0 BANK0     12    12      0
  1147                           ;!                             _fround (ARG)
  1148                           ;! ---------------------------------------------------------------------------------
  1149                           ;! (2) ___flneg                                              4     0      4     121
  1150                           ;!                                             30 COMRAM     4     0      4
  1151                           ;! ---------------------------------------------------------------------------------
  1152                           ;! (2) ___flge                                              12     4      8     638
  1153                           ;!                                             30 COMRAM    12     4      8
  1154                           ;! ---------------------------------------------------------------------------------
  1155                           ;! (2) ___fleq                                              12     4      8     646
  1156                           ;!                                             30 COMRAM    12     4      8
  1157                           ;! ---------------------------------------------------------------------------------
  1158                           ;! (1) _enable_timer                                         0     0      0       0
  1159                           ;! ---------------------------------------------------------------------------------
  1160                           ;! Estimated maximum stack depth 3
  1161                           ;! ---------------------------------------------------------------------------------
  1162                           ;! (Depth) Function   	        Calls       Base Space   Used Autos Params    Refs
  1163                           ;! ---------------------------------------------------------------------------------
  1164                           ;! (4) _Timer                                                0     0      0     800
  1165                           ;!                          _show_freq
  1166                           ;! ---------------------------------------------------------------------------------
  1167                           ;! (5) _show_freq                                            2     2      0     800
  1168                           ;!                                             28 COMRAM     2     2      0
  1169                           ;!                            ___aldiv
  1170                           ;!                         i2___xxtofl
  1171                           ;! ---------------------------------------------------------------------------------
  1172                           ;! (6) i2___xxtofl                                          14    10      4     348
  1173                           ;!                                             14 COMRAM    14    10      4
  1174                           ;!                            ___aldiv (ARG)
  1175                           ;! ---------------------------------------------------------------------------------
  1176                           ;! (6) ___aldiv                                             14     6      8     452
  1177                           ;!                                              0 COMRAM    14     6      8
  1178                           ;! ---------------------------------------------------------------------------------
  1179                           ;! Estimated maximum stack depth 6
  1180                           ;! ---------------------------------------------------------------------------------
  1181                           ;!
  1182                           ;! Call Graph Graphs:
  1183                           ;!
  1184                           ;! _main (ROOT)
  1185                           ;!   _enable_timer
  1186                           ;!   _printf
  1187                           ;!     ___awdiv
  1188                           ;!       ___awmod (ARG)
  1189                           ;!     ___fladd
  1190                           ;!       _fround (ARG)
  1191                           ;!         ___flmul
  1192                           ;!           ___awdiv (ARG)
  1193                           ;!             ___awmod (ARG)
  1194                           ;!           ___awmod (ARG)
  1195                           ;!           ___lwdiv (ARG)
  1196                           ;!             ___lwmod (ARG)
  1197                           ;!           ___lwmod (ARG)
  1198                           ;!         ___lwdiv
  1199                           ;!           ___lwmod (ARG)
  1200                           ;!         ___lwmod
  1201                           ;!     ___fleq
  1202                           ;!     ___flge
  1203                           ;!     ___flmul
  1204                           ;!       ___awdiv (ARG)
  1205                           ;!         ___awmod (ARG)
  1206                           ;!       ___awmod (ARG)
  1207                           ;!       ___lwdiv (ARG)
  1208                           ;!         ___lwmod (ARG)
  1209                           ;!       ___lwmod (ARG)
  1210                           ;!     ___flneg
  1211                           ;!     ___flsub
  1212                           ;!       ___fladd
  1213                           ;!         _fround (ARG)
  1214                           ;!           ___flmul
  1215                           ;!             ___awdiv (ARG)
  1216                           ;!               ___awmod (ARG)
  1217                           ;!             ___awmod (ARG)
  1218                           ;!             ___lwdiv (ARG)
  1219                           ;!               ___lwmod (ARG)
  1220                           ;!             ___lwmod (ARG)
  1221                           ;!           ___lwdiv
  1222                           ;!             ___lwmod (ARG)
  1223                           ;!           ___lwmod
  1224                           ;!       ___xxtofl (ARG)
  1225                           ;!     ___fltol
  1226                           ;!       ___flmul (ARG)
  1227                           ;!         ___awdiv (ARG)
  1228                           ;!           ___awmod (ARG)
  1229                           ;!         ___awmod (ARG)
  1230                           ;!         ___lwdiv (ARG)
  1231                           ;!           ___lwmod (ARG)
  1232                           ;!         ___lwmod (ARG)
  1233                           ;!       _scale (ARG)
  1234                           ;!         ___awdiv
  1235                           ;!           ___awmod (ARG)
  1236                           ;!         ___awmod
  1237                           ;!         ___flmul
  1238                           ;!           ___awdiv (ARG)
  1239                           ;!             ___awmod (ARG)
  1240                           ;!           ___awmod (ARG)
  1241                           ;!           ___lwdiv (ARG)
  1242                           ;!             ___lwmod (ARG)
  1243                           ;!           ___lwmod (ARG)
  1244                           ;!     ___lldiv
  1245                           ;!     ___llmod
  1246                           ;!     ___wmul
  1247                           ;!     ___xxtofl
  1248                           ;!     __div_to_l_
  1249                           ;!     __tdiv_to_l_
  1250                           ;!     _fround
  1251                           ;!       ___flmul
  1252                           ;!         ___awdiv (ARG)
  1253                           ;!           ___awmod (ARG)
  1254                           ;!         ___awmod (ARG)
  1255                           ;!         ___lwdiv (ARG)
  1256                           ;!           ___lwmod (ARG)
  1257                           ;!         ___lwmod (ARG)
  1258                           ;!       ___lwdiv
  1259                           ;!         ___lwmod (ARG)
  1260                           ;!       ___lwmod
  1261                           ;!     _isdigit
  1262                           ;!     _putch
  1263                           ;!     _scale
  1264                           ;!       ___awdiv
  1265                           ;!         ___awmod (ARG)
  1266                           ;!       ___awmod
  1267                           ;!       ___flmul
  1268                           ;!         ___awdiv (ARG)
  1269                           ;!           ___awmod (ARG)
  1270                           ;!         ___awmod (ARG)
  1271                           ;!         ___lwdiv (ARG)
  1272                           ;!           ___lwmod (ARG)
  1273                           ;!         ___lwmod (ARG)
  1274                           ;!
  1275                           ;! _Timer (ROOT)
  1276                           ;!   _show_freq
  1277                           ;!     ___aldiv
  1278                           ;!     i2___xxtofl
  1279                           ;!       ___aldiv (ARG)
  1280                           ;!
  1281                           
  1282                           ;! Address spaces:
  1283                           
  1284                           ;!Name               Size   Autos  Total    Cost      Usage
  1285                           ;!BIGRAM             5FF      0       0      17        0.0%
  1286                           ;!EEDATA             100      0       0       0        0.0%
  1287                           ;!BITBANK5           100      0       0      16        0.0%
  1288                           ;!BANK5              100      0       0      14        0.0%
  1289                           ;!BITBANK4           100      0       0      12        0.0%
  1290                           ;!BANK4              100      0       0      13        0.0%
  1291                           ;!BITBANK3           100      0       0      10        0.0%
  1292                           ;!BANK3              100      0       0      11        0.0%
  1293                           ;!BITBANK2           100      0       0       8        0.0%
  1294                           ;!BANK2              100      0       0       9        0.0%
  1295                           ;!BITBANK1           100      0       0       6        0.0%
  1296                           ;!BANK1              100      0       0       7        0.0%
  1297                           ;!BITBANK0            80      0       0       4        0.0%
  1298                           ;!BANK0               80     39      3D       5       47.7%
  1299                           ;!BITCOMRAM           7E      0       0       0        0.0%
  1300                           ;!COMRAM              7E     5A      5E       1       74.6%
  1301                           ;!BITSFR               0      0       0     200        0.0%
  1302                           ;!SFR                  0      0       0     200        0.0%
  1303                           ;!STACK                0      0       0       2        0.0%
  1304                           ;!NULL                 0      0       0       0        0.0%
  1305                           ;!ABS                  0      0      9B      15        0.0%
  1306                           ;!DATA                 0      0      9B       3        0.0%
  1307                           ;!CODE                 0      0       0       0        0.0%
  1308                           
  1309                           	global	_main
  1310                           
  1311 ;; *************** function _main *****************
  1312 ;; Defined at:
  1313 ;;		line 51 in file "HW2.c"
  1314 ;; Parameters:    Size  Location     Type
  1315 ;;		None
  1316 ;; Auto vars:     Size  Location     Type
  1317 ;;		None
  1318 ;; Return value:  Size  Location     Type
  1319 ;;                  1    wreg      void 
  1320 ;; Registers used:
  1321 ;;		wreg, fsr2l, fsr2h, status,2, status,0, tblptrl, tblptrh, tblptru, prodl, prodh, cstack
  1322 ;; Tracked objects:
  1323 ;;		On entry : 0/0
  1324 ;;		On exit  : 0/0
  1325 ;;		Unchanged: 0/0
  1326 ;; Data sizes:     COMRAM   BANK0   BANK1   BANK2   BANK3   BANK4   BANK5
  1327 ;;      Params:         0       0       0       0       0       0       0
  1328 ;;      Locals:         0       0       0       0       0       0       0
  1329 ;;      Temps:          0       0       0       0       0       0       0
  1330 ;;      Totals:         0       0       0       0       0       0       0
  1331 ;;Total ram usage:        0 bytes
  1332 ;; Hardware stack levels required when called:    6
  1333 ;; This function calls:
  1334 ;;		_enable_timer
  1335 ;;		_printf
  1336 ;; This function is called by:
  1337 ;;		Startup code after reset
  1338 ;; This function uses a non-reentrant model
  1339 ;;
  1340                           psect	text0,class=CODE,space=0,reloc=2,group=0
  1341                           	file	"HW2.c"
  1342                           	line	51
  1343                           global __ptext0
  1344                           __ptext0:
  1345  003B2A                     psect	text0
  1346                           	file	"HW2.c"
  1347                           	line	51
  1348                           	global	__size_of_main
  1349                           	__size_of_main	equ	__end_of_main-_main
  1350  0000                     	
  1351                           _main:
  1352  003B2A                     ;incstack = 0
  1353                           	opt	stack 25
  1354                           	line	54
  1355                           	
  1356                           l3919:
  1357  003B2A                     ;HW2.c: 54: TXSTAbits.TXEN = 1;
  1358                           	bsf	((c:4012)),c,5	;volatile
  1359  003B2C  8AAC               	line	55
  1360                           ;HW2.c: 55: RCSTAbits.SPEN = 1;
  1361                           	bsf	((c:4011)),c,7	;volatile
  1362  003B2E  8EAB               	line	58
  1363                           	
  1364                           l3921:
  1365  003B30                     ;HW2.c: 58: CCP1CON = 0b00000101;
  1366                           	movlw	low(05h)
  1367  003B30  0E05               	movwf	((c:4029)),c	;volatile
  1368  003B32  6EBD               	line	59
  1369                           	
  1370                           l3923:
  1371  003B34                     ;HW2.c: 59: TRISCbits.RC2 = 1;
  1372                           	bsf	((c:3988)),c,2	;volatile
  1373  003B34  8494               	line	60
  1374                           ;HW2.c: 60: T3CON = 0b01000000;
  1375                           	movlw	low(040h)
  1376  003B36  0E40               	movwf	((c:4017)),c	;volatile
  1377  003B38  6EB1               	line	61
  1378                           	
  1379                           l3925:
  1380  003B3A                     ;HW2.c: 61: PIE1bits.CCP1IE = 1;
  1381                           	bsf	((c:3997)),c,2	;volatile
  1382  003B3A  849D               	line	63
  1383                           	
  1384                           l3927:
  1385  003B3C                     ;HW2.c: 63: IPR1bits.CCP1IP = 1;
  1386                           	bsf	((c:3999)),c,2	;volatile
  1387  003B3C  849F               	line	64
  1388                           	
  1389                           l3929:
  1390  003B3E                     ;HW2.c: 64: INTCONbits.PEIE = 1;
  1391                           	bsf	((c:4082)),c,6	;volatile
  1392  003B3E  8CF2               	line	65
  1393                           	
  1394                           l3931:
  1395  003B40                     ;HW2.c: 65: INTCONbits.GIE = 1;
  1396                           	bsf	((c:4082)),c,7	;volatile
  1397  003B40  8EF2               	line	67
  1398                           	
  1399                           l3933:
  1400  003B42                     ;HW2.c: 67: enable_timer();
  1401                           	call	_enable_timer	;wreg free
  1402  003B42  EC43  F01E         	goto	l3935
  1403  003B46  EFA5  F01D         	line	69
  1404                           ;HW2.c: 69: while(1) {
  1405                           	
  1406                           l43:
  1407  003B4A                     	line	71
  1408                           	
  1409                           l3935:
  1410  003B4A                     ;HW2.c: 71: printf("f = %0.3f Hz\n", f);
  1411                           		movlw	low(STR_1)
  1412  003B4C  0E91               	movlb	0	; () banked
  1413  003B4E  0100               	movwf	((printf@f))&0ffh
  1414  003B50  6F94               	movlw	high(STR_1)
  1415  003B52  0E06               	movwf	((printf@f+1))&0ffh
  1416  003B54  6F95               
  1417                           	movff	(_f),0+(?_printf+02h)
  1418  003B56  C0B9  F096         	movff	(_f+1),1+(?_printf+02h)
  1419  003B5A  C0BA  F097         	movff	(_f+2),2+(?_printf+02h)
  1420  003B5E  C0BB  F098         	movff	(_f+3),3+(?_printf+02h)
  1421  003B62  C0BC  F099         	call	_printf	;wreg free
  1422  003B66  EC50  F003         	goto	l3935
  1423  003B6A  EFA5  F01D         	line	72
  1424                           	
  1425                           l44:
  1426  003B6E                     	line	69
  1427                           	goto	l3935
  1428  003B6E  EFA5  F01D         	
  1429                           l45:
  1430  003B72                     	line	73
  1431                           	
  1432                           l46:
  1433  003B72                     	global	start
  1434                           	goto	start
  1435  003B72  EF21  F000         	opt stack 0
  1436                           GLOBAL	__end_of_main
  1437                           	__end_of_main:
  1438  003B76                     	signat	_main,89
  1439                           	global	_printf
  1440                           
  1441 ;; *************** function _printf *****************
  1442 ;; Defined at:
  1443 ;;		line 472 in file "C:\Program Files (x86)\Microchip\xc8\v2.00\pic\sources\c90\common\doprnt.c"
  1444 ;; Parameters:    Size  Location     Type
  1445 ;;  f               2   20[BANK0 ] PTR const unsigned char 
  1446 ;;		 -> STR_1(14), 
  1447 ;; Auto vars:     Size  Location     Type
  1448 ;;  fval            4   50[BANK0 ] PTR const unsigned char 
  1449 ;;  tmpval          4   40[BANK0 ] struct .
  1450 ;;  val             4   36[BANK0 ] unsigned long 
  1451 ;;  cp              3    0        PTR const unsigned char 
  1452 ;;  prec            2   54[BANK0 ] int 
  1453 ;;  width           2   48[BANK0 ] int 
  1454 ;;  flag            2   46[BANK0 ] unsigned short 
  1455 ;;  eexp            2   44[BANK0 ] int 
  1456 ;;  ap              2   34[BANK0 ] PTR void [1]
  1457 ;;		 -> ?_printf(2), 
  1458 ;;  len             2    0        unsigned int 
  1459 ;;  c               1   56[BANK0 ] unsigned char 
  1460 ;;  d               1    0        unsigned char 
  1461 ;; Return value:  Size  Location     Type
  1462 ;;                  2   20[BANK0 ] int 
  1463 ;; Registers used:
  1464 ;;		wreg, fsr2l, fsr2h, status,2, status,0, tblptrl, tblptrh, tblptru, prodl, prodh, cstack
  1465 ;; Tracked objects:
  1466 ;;		On entry : 0/0
  1467 ;;		On exit  : 0/0
  1468 ;;		Unchanged: 0/0
  1469 ;; Data sizes:     COMRAM   BANK0   BANK1   BANK2   BANK3   BANK4   BANK5
  1470 ;;      Params:         0       6       0       0       0       0       0
  1471 ;;      Locals:         0      27       0       0       0       0       0
  1472 ;;      Temps:          0       4       0       0       0       0       0
  1473 ;;      Totals:         0      37       0       0       0       0       0
  1474 ;;Total ram usage:       37 bytes
  1475 ;; Hardware stack levels used:    1
  1476 ;; Hardware stack levels required when called:    5
  1477 ;; This function calls:
  1478 ;;		___awdiv
  1479 ;;		___fladd
  1480 ;;		___fleq
  1481 ;;		___flge
  1482 ;;		___flmul
  1483 ;;		___flneg
  1484 ;;		___flsub
  1485 ;;		___fltol
  1486 ;;		___lldiv
  1487 ;;		___llmod
  1488 ;;		___wmul
  1489 ;;		___xxtofl
  1490 ;;		__div_to_l_
  1491 ;;		__tdiv_to_l_
  1492 ;;		_fround
  1493 ;;		_isdigit
  1494 ;;		_putch
  1495 ;;		_scale
  1496 ;; This function is called by:
  1497 ;;		_main
  1498 ;; This function uses a non-reentrant model
  1499 ;;
  1500                           psect	text1,class=CODE,space=0,reloc=2,group=0
  1501                           	file	"C:\Program Files (x86)\Microchip\xc8\v2.00\pic\sources\c90\common\doprnt.c"
  1502                           	line	472
  1503                           global __ptext1
  1504                           __ptext1:
  1505  0006A0                     psect	text1
  1506                           	file	"C:\Program Files (x86)\Microchip\xc8\v2.00\pic\sources\c90\common\doprnt.c"
  1507                           	line	472
  1508                           	global	__size_of_printf
  1509                           	__size_of_printf	equ	__end_of_printf-_printf
  1510  0000                     	
  1511                           _printf:
  1512  0006A0                     ;incstack = 0
  1513                           	opt	stack 25
  1514                           	line	545
  1515                           	
  1516                           l3653:
  1517  0006A2                     ;doprnt.c: 474: va_list ap;;doprnt.c: 507: char c;;doprnt.c: 509: int width;;doprnt.c: 5
                                 12: int prec;;doprnt.c: 520: unsigned short flag;;doprnt.c: 527: char d;;doprnt.c: 528: 
                                 double fval;;doprnt.c: 529: int eexp;;doprnt.c: 535: union {;doprnt.c: 536: unsigned lon
                                 g vd;;doprnt.c: 537: double integ;;doprnt.c: 538: } tmpval;;doprnt.c: 540: unsigned long
                                  val;;doprnt.c: 541: unsigned len;;doprnt.c: 542: const char * cp;;doprnt.c: 545: *ap = 
                                 __va_start();
  1518                           		movlw	low(?_printf+02h)
  1519  0006A2  0E96               	movlb	0	; () banked
  1520  0006A4  0100               	movwf	((printf@ap))&0ffh
  1521  0006A6  6FA2               	movlw	high(?_printf+02h)
  1522  0006A8  0E00               	movwf	((printf@ap+1))&0ffh
  1523  0006AA  6FA3               
  1524                           	line	548
  1525                           ;doprnt.c: 548: while((c = *f++)) {
  1526                           	goto	l3917
  1527  0006AC  EF76  F00A         	
  1528                           l102:; BSR set to: 0
  1529  0006B0                     
  1530                           	line	550
  1531                           	
  1532                           l3655:; BSR set to: 0
  1533  0006B0                     
  1534                           ;doprnt.c: 550: if(c != '%')
  1535                           		movlw	37
  1536  0006B2  0E25               	xorwf	((printf@c))&0ffh,w
  1537  0006B4  19B8               	btfsc	status,2
  1538  0006B6  B4D8               	goto	u4461
  1539  0006B8  EF60  F003         	goto	u4460
  1540  0006BC  EF63  F003         
  1541                           u4461:
  1542  0006C0                     	goto	l3659
  1543  0006C2  EF69  F003         u4460:
  1544  0006C6                     	line	553
  1545                           	
  1546                           l3657:; BSR set to: 0
  1547  0006C8                     
  1548                           ;doprnt.c: 552: {;doprnt.c: 553: (putch(c) );
  1549                           	movf	((printf@c))&0ffh,w
  1550  0006C8  51B8               	
  1551                           	call	_putch
  1552  0006CA  EC1E  F01E         	line	554
  1553                           ;doprnt.c: 554: continue;
  1554                           	goto	l3917
  1555  0006CE  EF76  F00A         	line	555
  1556                           	
  1557                           l103:
  1558  0006D2                     	line	558
  1559                           	
  1560                           l3659:
  1561  0006D2                     ;doprnt.c: 555: };doprnt.c: 558: width = 0;
  1562                           	movlw	high(0)
  1563  0006D4  0E00               	movlb	0	; () banked
  1564  0006D6  0100               	movwf	((printf@width+1))&0ffh
  1565  0006D8  6FB1               	movlw	low(0)
  1566  0006DA  0E00               	movwf	((printf@width))&0ffh
  1567  0006DC  6FB0               	line	560
  1568                           ;doprnt.c: 560: flag = 0;
  1569                           	movlw	high(0)
  1570  0006DE  0E00               	movwf	((printf@flag+1))&0ffh
  1571  0006E0  6FAF               	movlw	low(0)
  1572  0006E2  0E00               	movwf	((printf@flag))&0ffh
  1573  0006E4  6FAE               	goto	l3665
  1574  0006E6  EF80  F003         	line	562
  1575                           ;doprnt.c: 562: for(;;) {
  1576                           	
  1577                           l104:; BSR set to: 0
  1578  0006EA                     
  1579                           	line	563
  1580                           ;doprnt.c: 563: switch(*f) {
  1581                           	goto	l3665
  1582  0006EA  EF80  F003         	line	591
  1583                           ;doprnt.c: 591: case '0':
  1584                           	
  1585                           l106:; BSR set to: 0
  1586  0006EE                     
  1587                           	line	592
  1588                           	
  1589                           l3661:
  1590  0006EE                     ;doprnt.c: 592: flag |= 0x04;
  1591                           	movlb	0	; () banked
  1592  0006F0  0100               	bsf	(0+(2/8)+(printf@flag))&0ffh,(2)&7
  1593  0006F2  85AE               	line	593
  1594                           ;doprnt.c: 593: f++;
  1595                           	infsnz	((printf@f))&0ffh
  1596  0006F4  4B94               	incf	((printf@f+1))&0ffh
  1597  0006F6  2B95               	line	594
  1598                           ;doprnt.c: 594: continue;
  1599                           	goto	l3665
  1600  0006F8  EF80  F003         	line	596
  1601                           	
  1602                           l3663:; BSR set to: 0
  1603  0006FC                     
  1604                           ;doprnt.c: 596: }
  1605                           	goto	l3667
  1606  0006FC  EF92  F003         	line	563
  1607                           	
  1608                           l105:; BSR set to: 0
  1609  000700                     
  1610                           	
  1611                           l3665:
  1612  000700                     	movff	(printf@f),tblptrl
  1613  000702  C094  FFF6         	movff	(printf@f+1),tblptrh
  1614  000706  C095  FFF7         	if	0	;tblptru may be non-zero
  1615  00070A                     	clrf	tblptru
  1617  00070A                     	if	0	;tblptru may be non-zero
  1618  00070A                     	global __mediumconst
  1619                           movlw	low highword(__mediumconst)
  1622  00070A                     	tblrd	*
  1623  00070A  0008               		dw	0FFFFh; errata NOP
  1624  00070C  FFFF               
  1625                           	movf	tablat,w
  1626  00070E  50F5               	; Switch size 1, requested type "space"
  1627                           ; Number of cases is 1, Range of values is 48 to 48
  1628                           ; switch strategies available:
  1629                           ; Name         Instructions Cycles
  1630                           ; simple_byte            4     3 (average)
  1631                           ;	Chosen strategy is simple_byte
  1632                           
  1633                           	xorlw	48^0	; case 48
  1634  000710  0A30               	skipnz
  1635  000712  B4D8               	goto	l3661
  1636  000714  EF77  F003         	goto	l3667
  1637  000718  EF92  F003         
  1638                           	line	596
  1639                           	
  1640                           l108:
  1641  00071C                     	line	597
  1642                           ;doprnt.c: 597: break;
  1643                           	goto	l3667
  1644  00071C  EF92  F003         	line	598
  1645                           	
  1646                           l107:
  1647  000720                     ;doprnt.c: 598: }
  1648                           	goto	l3665
  1649  000720  EF80  F003         	
  1650                           l109:
  1651  000724                     	line	609
  1652                           	
  1653                           l3667:
  1654  000724                     ;doprnt.c: 609: if(isdigit((unsigned)*f)) {
  1655                           	movff	(printf@f),tblptrl
  1656  000726  C094  FFF6         	movff	(printf@f+1),tblptrh
  1657  00072A  C095  FFF7         	if	0	;tblptru may be non-zero
  1658  00072E                     	clrf	tblptru
  1660  00072E                     	if	0	;tblptru may be non-zero
  1661  00072E                     	global __mediumconst
  1662                           movlw	low highword(__mediumconst)
  1665  00072E                     	tblrd	*
  1666  00072E  0008               		dw	0FFFFh; errata NOP
  1667  000730  FFFF               
  1668                           	movf	tablat,w
  1669  000732  50F5               	
  1670                           	call	_isdigit
  1671  000734  ECE1  F01D         	btfss	status,0
  1672  000738  A0D8               	goto	u4471
  1673  00073A  EFA1  F003         	goto	u4470
  1674  00073E  EFA4  F003         u4471:
  1675  000742                     	goto	l3679
  1676  000744  EFE9  F003         u4470:
  1677  000748                     	line	610
  1678                           	
  1679                           l3669:
  1680  00074A                     ;doprnt.c: 610: width = 0;
  1681                           	movlw	high(0)
  1682  00074A  0E00               	movlb	0	; () banked
  1683  00074C  0100               	movwf	((printf@width+1))&0ffh
  1684  00074E  6FB1               	movlw	low(0)
  1685  000750  0E00               	movwf	((printf@width))&0ffh
  1686  000752  6FB0               	goto	l3671
  1687  000754  EFAC  F003         	line	611
  1688                           ;doprnt.c: 611: do {
  1689                           	
  1690                           l111:; BSR set to: 0
  1691  000758                     
  1692                           	line	612
  1693                           	
  1694                           l3671:
  1695  000758                     ;doprnt.c: 612: width *= 10;
  1696                           	movff	(printf@width),(c:___wmul@multiplier)
  1697  00075A  C0B0  F01F         	movff	(printf@width+1),(c:___wmul@multiplier+1)
  1698  00075E  C0B1  F020         	movlw	high(0Ah)
  1699  000762  0E00               	movwf	((c:___wmul@multiplicand+1)),c
  1700  000764  6E22               	movlw	low(0Ah)
  1701  000766  0E0A               	movwf	((c:___wmul@multiplicand)),c
  1702  000768  6E21               	call	___wmul	;wreg free
  1703  00076A  EC06  F01E         	movff	0+?___wmul,(printf@width)
  1704  00076E  C01F  F0B0         	movff	1+?___wmul,(printf@width+1)
  1705  000772  C020  F0B1         	line	613
  1706                           	
  1707                           l3673:
  1708  000776                     ;doprnt.c: 613: width += *f++ - '0';
  1709                           	movlw	low(-48)
  1710  000776  0ED0               	movlb	0	; () banked
  1711  000778  0100               	movwf	(??_printf+0+0)&0ffh
  1712  00077A  6F9A               	movlw	high(-48)
  1713  00077C  0EFF               	movwf	1+(??_printf+0+0)&0ffh
  1714  00077E  6F9B               	movff	(printf@f),tblptrl
  1715  000780  C094  FFF6         	movff	(printf@f+1),tblptrh
  1716  000784  C095  FFF7         	if	0	;tblptru may be non-zero
  1717  000788                     	clrf	tblptru
  1719  000788                     	if	0	;tblptru may be non-zero
  1720  000788                     	global __mediumconst
  1721                           movlw	low highword(__mediumconst)
  1724  000788                     	tblrd	*
  1725  000788  0008               		dw	0FFFFh; errata NOP
  1726  00078A  FFFF               
  1727                           	movf	tablat,w
  1728  00078C  50F5               	movwf	(??_printf+2+0)&0ffh
  1729  00078E  6F9C               	clrf	(??_printf+2+0+1)&0ffh
  1730  000790  6B9D               
  1731                           	movf	(??_printf+0+0)&0ffh,w
  1732  000792  519A               	addwf	(??_printf+2+0)&0ffh
  1733  000794  279C               	movf	(??_printf+0+1)&0ffh,w
  1734  000796  519B               	addwfc	(??_printf+2+1)&0ffh
  1735  000798  239D               	movf	(??_printf+2+0)&0ffh,w
  1736  00079A  519C               	addwf	((printf@width))&0ffh
  1737  00079C  27B0               	movf	(??_printf+2+1)&0ffh,w
  1738  00079E  519D               	addwfc	((printf@width+1))&0ffh
  1739  0007A0  23B1               
  1740                           	
  1741                           l3675:; BSR set to: 0
  1742  0007A2                     
  1743                           	infsnz	((printf@f))&0ffh
  1744  0007A2  4B94               	incf	((printf@f+1))&0ffh
  1745  0007A4  2B95               	line	614
  1746                           	
  1747                           l3677:; BSR set to: 0
  1748  0007A6                     
  1749                           ;doprnt.c: 614: } while(isdigit((unsigned)*f));
  1750                           	movff	(printf@f),tblptrl
  1751  0007A6  C094  FFF6         	movff	(printf@f+1),tblptrh
  1752  0007AA  C095  FFF7         	if	0	;tblptru may be non-zero
  1753  0007AE                     	clrf	tblptru
  1755  0007AE                     	if	0	;tblptru may be non-zero
  1756  0007AE                     	global __mediumconst
  1757                           movlw	low highword(__mediumconst)
  1760  0007AE                     	tblrd	*
  1761  0007AE  0008               		dw	0FFFFh; errata NOP
  1762  0007B0  FFFF               
  1763                           	movf	tablat,w
  1764  0007B2  50F5               	
  1765                           	call	_isdigit
  1766  0007B4  ECE1  F01D         	btfsc	status,0
  1767  0007B8  B0D8               	goto	u4481
  1768  0007BA  EFE1  F003         	goto	u4480
  1769  0007BE  EFE4  F003         u4481:
  1770  0007C2                     	goto	l3671
  1771  0007C4  EFAC  F003         u4480:
  1772  0007C8                     	goto	l3679
  1773  0007CA  EFE9  F003         	
  1774                           l112:
  1775  0007CE                     	goto	l3679
  1776  0007CE  EFE9  F003         	line	620
  1777                           	
  1778                           l110:
  1779  0007D2                     	line	623
  1780                           	
  1781                           l3679:
  1782  0007D2                     ;doprnt.c: 620: };doprnt.c: 623: if(*f == '.') {
  1783                           	movff	(printf@f),tblptrl
  1784  0007D4  C094  FFF6         	movff	(printf@f+1),tblptrh
  1785  0007D8  C095  FFF7         	if	0	;tblptru may be non-zero
  1786  0007DC                     	clrf	tblptru
  1788  0007DC                     	if	0	;tblptru may be non-zero
  1789  0007DC                     	global __mediumconst
  1790                           movlw	low highword(__mediumconst)
  1793  0007DC                     	tblrd	*
  1794  0007DC  0008               		dw	0FFFFh; errata NOP
  1795  0007DE  FFFF               
  1796                           	movf	tablat,w
  1797  0007E0  50F5               	xorlw	02Eh
  1798  0007E2  0A2E               	btfss	status,2
  1799  0007E4  A4D8               	goto	u4491
  1800  0007E6  EFF7  F003         	goto	u4490
  1801  0007EA  EFFA  F003         u4491:
  1802  0007EE                     	goto	l3691
  1803  0007F0  EF3C  F004         u4490:
  1804  0007F4                     	line	624
  1805                           	
  1806                           l3681:
  1807  0007F6                     ;doprnt.c: 624: flag |= 0x4000;
  1808                           	movlb	0	; () banked
  1809  0007F6  0100               	bsf	(0+(14/8)+(printf@flag))&0ffh,(14)&7
  1810  0007F8  8DAF               	line	625
  1811                           ;doprnt.c: 625: f++;
  1812                           	infsnz	((printf@f))&0ffh
  1813  0007FA  4B94               	incf	((printf@f+1))&0ffh
  1814  0007FC  2B95               	line	640
  1815                           	
  1816                           l3683:; BSR set to: 0
  1817  0007FE                     
  1818                           ;doprnt.c: 639: {;doprnt.c: 640: prec = 0;
  1819                           	movlw	high(0)
  1820  0007FE  0E00               	movwf	((printf@prec+1))&0ffh
  1821  000800  6FB7               	movlw	low(0)
  1822  000802  0E00               	movwf	((printf@prec))&0ffh
  1823  000804  6FB6               	line	641
  1824                           ;doprnt.c: 641: while(isdigit((unsigned)*f))
  1825                           	goto	l3689
  1826  000806  EF25  F004         	
  1827                           l115:; BSR set to: 0
  1828  00080A                     
  1829                           	line	642
  1830                           	
  1831                           l3685:
  1832  00080A                     ;doprnt.c: 642: prec = prec*10 + *f++ - '0';
  1833                           	movff	(printf@prec),(c:___wmul@multiplier)
  1834  00080C  C0B6  F01F         	movff	(printf@prec+1),(c:___wmul@multiplier+1)
  1835  000810  C0B7  F020         	movlw	high(0Ah)
  1836  000814  0E00               	movwf	((c:___wmul@multiplicand+1)),c
  1837  000816  6E22               	movlw	low(0Ah)
  1838  000818  0E0A               	movwf	((c:___wmul@multiplicand)),c
  1839  00081A  6E21               	call	___wmul	;wreg free
  1840  00081C  EC06  F01E         	movff	(printf@f),tblptrl
  1841  000820  C094  FFF6         	movff	(printf@f+1),tblptrh
  1842  000824  C095  FFF7         	if	0	;tblptru may be non-zero
  1843  000828                     	clrf	tblptru
  1845  000828                     	if	0	;tblptru may be non-zero
  1846  000828                     	global __mediumconst
  1847                           movlw	low highword(__mediumconst)
  1850  000828                     	tblrd	*
  1851  000828  0008               		dw	0FFFFh; errata NOP
  1852  00082A  FFFF               
  1853                           	movf	tablat,w
  1854  00082C  50F5               
  1855                           	addwf	(0+?___wmul),c
  1856  00082E  261F               	movlw	0
  1857  000830  0E00               	addwfc	(1+?___wmul),c
  1858  000832  2220               	movlw	low(0FFD0h)
  1859  000834  0ED0               	addwf	(0+?___wmul),c,w
  1860  000836  241F               	movlb	0	; () banked
  1861  000838  0100               	movwf	((printf@prec))&0ffh
  1862  00083A  6FB6               	movlw	high(0FFD0h)
  1863  00083C  0EFF               	addwfc	(1+?___wmul),c,w
  1864  00083E  2020               	movwf	1+((printf@prec))&0ffh
  1865  000840  6FB7               	
  1866                           l3687:; BSR set to: 0
  1867  000842                     
  1868                           	infsnz	((printf@f))&0ffh
  1869  000842  4B94               	incf	((printf@f+1))&0ffh
  1870  000844  2B95               	goto	l3689
  1871  000846  EF25  F004         	
  1872                           l114:; BSR set to: 0
  1873  00084A                     
  1874                           	line	641
  1875                           	
  1876                           l3689:; BSR set to: 0
  1877  00084A                     
  1878                           	movff	(printf@f),tblptrl
  1879  00084C  C094  FFF6         	movff	(printf@f+1),tblptrh
  1880  000850  C095  FFF7         	if	0	;tblptru may be non-zero
  1881  000854                     	clrf	tblptru
  1883  000854                     	if	0	;tblptru may be non-zero
  1884  000854                     	global __mediumconst
  1885                           movlw	low highword(__mediumconst)
  1888  000854                     	tblrd	*
  1889  000854  0008               		dw	0FFFFh; errata NOP
  1890  000856  FFFF               
  1891                           	movf	tablat,w
  1892  000858  50F5               	
  1893                           	call	_isdigit
  1894  00085A  ECE1  F01D         	btfsc	status,0
  1895  00085E  B0D8               	goto	u4501
  1896  000860  EF34  F004         	goto	u4500
  1897  000864  EF37  F004         u4501:
  1898  000868                     	goto	l3685
  1899  00086A  EF05  F004         u4500:
  1900  00086E                     	goto	l3699
  1901  000870  EF51  F004         	
  1902                           l116:
  1903  000874                     	line	644
  1904                           ;doprnt.c: 643: };doprnt.c: 644: } else {
  1905                           	goto	l3699
  1906  000874  EF51  F004         	
  1907                           l113:
  1908  000878                     	line	645
  1909                           	
  1910                           l3691:
  1911  000878                     ;doprnt.c: 645: prec = 0;
  1912                           	movlw	high(0)
  1913  00087A  0E00               	movlb	0	; () banked
  1914  00087C  0100               	movwf	((printf@prec+1))&0ffh
  1915  00087E  6FB7               	movlw	low(0)
  1916  000880  0E00               	movwf	((printf@prec))&0ffh
  1917  000882  6FB6               	line	647
  1918                           	
  1919                           l3693:; BSR set to: 0
  1920  000884                     
  1921                           ;doprnt.c: 647: flag |= 0x1000;
  1922                           	bsf	(0+(12/8)+(printf@flag))&0ffh,(12)&7
  1923  000884  89AF               	goto	l3699
  1924  000886  EF51  F004         	line	649
  1925                           	
  1926                           l117:; BSR set to: 0
  1927  00088A                     
  1928                           	line	654
  1929                           ;doprnt.c: 649: };doprnt.c: 654: switch(c = *f++) {
  1930                           	goto	l3699
  1931  00088A  EF51  F004         	line	656
  1932                           ;doprnt.c: 656: case 0:
  1933                           	
  1934                           l119:; BSR set to: 0
  1935  00088E                     
  1936                           	line	657
  1937                           ;doprnt.c: 657: goto alldone;
  1938                           	goto	l194
  1939  00088E  EF90  F00A         	line	681
  1940                           ;doprnt.c: 681: case 'f':
  1941                           	
  1942                           l121:; BSR set to: 0
  1943  000892                     
  1944                           	line	682
  1945                           	
  1946                           l3695:; BSR set to: 0
  1947  000892                     
  1948                           ;doprnt.c: 682: flag |= 0x400;
  1949                           	bsf	(0+(10/8)+(printf@flag))&0ffh,(10)&7
  1950  000894  85AF               	line	683
  1951                           ;doprnt.c: 683: break;
  1952                           	goto	l3701
  1953  000896  EF68  F004         	line	821
  1954                           ;doprnt.c: 821: default:
  1955                           	
  1956                           l123:; BSR set to: 0
  1957  00089A                     
  1958                           	line	832
  1959                           ;doprnt.c: 832: continue;
  1960                           	goto	l3917
  1961  00089A  EF76  F00A         	line	841
  1962                           	
  1963                           l3697:; BSR set to: 0
  1964  00089E                     
  1965                           ;doprnt.c: 841: }
  1966                           	goto	l3701
  1967  00089E  EF68  F004         	line	654
  1968                           	
  1969                           l118:; BSR set to: 0
  1970  0008A2                     
  1971                           	
  1972                           l3699:
  1973  0008A2                     	movff	(printf@f),tblptrl
  1974  0008A4  C094  FFF6         	movff	(printf@f+1),tblptrh
  1975  0008A8  C095  FFF7         	movlb	0	; () banked
  1976  0008AC  0100               	infsnz	((printf@f))&0ffh
  1977  0008AE  4B94               	incf	((printf@f+1))&0ffh
  1978  0008B0  2B95               	if	0	;tblptru may be non-zero
  1979  0008B2                     	clrf	tblptru
  1981  0008B2                     	if	0	;tblptru may be non-zero
  1982  0008B2                     	global __mediumconst
  1983                           movlw	low highword(__mediumconst)
  1986  0008B2                     	tblrd	*
  1987  0008B2  0008               		dw	0FFFFh; errata NOP
  1988  0008B4  FFFF               
  1989                           	movff	tablat,(printf@c)
  1990  0008B6  CFF5 F0B8          	movf	((printf@c))&0ffh,w
  1991  0008BA  51B8               	; Switch size 1, requested type "space"
  1992                           ; Number of cases is 2, Range of values is 0 to 102
  1993                           ; switch strategies available:
  1994                           ; Name         Instructions Cycles
  1995                           ; simple_byte            7     4 (average)
  1996                           ;	Chosen strategy is simple_byte
  1997                           
  1998                           	xorlw	0^0	; case 0
  1999  0008BC  0A00               	skipnz
  2000  0008BE  B4D8               	goto	l194
  2001  0008C0  EF90  F00A         	xorlw	102^0	; case 102
  2002  0008C4  0A66               	skipnz
  2003  0008C6  B4D8               	goto	l3695
  2004  0008C8  EF49  F004         	goto	l3917
  2005  0008CC  EF76  F00A         
  2006                           	line	841
  2007                           	
  2008                           l122:; BSR set to: 0
  2009  0008D0                     
  2010                           	line	844
  2011                           	
  2012                           l3701:; BSR set to: 0
  2013  0008D0                     
  2014                           ;doprnt.c: 844: if(flag & (0x700)) {
  2015                           	movlw	high(0700h)
  2016  0008D2  0E07               	andwf	((printf@flag+1))&0ffh,w
  2017  0008D4  15AF               
  2018                           	btfsc	status,2
  2019  0008D6  B4D8               	goto	u4511
  2020  0008D8  EF70  F004         	goto	u4510
  2021  0008DC  EF73  F004         u4511:
  2022  0008E0                     	goto	l3861
  2023  0008E2  EF2E  F009         u4510:
  2024  0008E6                     	line	846
  2025                           	
  2026                           l3703:; BSR set to: 0
  2027  0008E8                     
  2028                           ;doprnt.c: 846: if(flag & 0x1000)
  2029                           	
  2030                           	btfss	((printf@flag+1))&0ffh,(12)&7
  2031  0008E8  A9AF               	goto	u4521
  2032  0008EA  EF79  F004         	goto	u4520
  2033  0008EE  EF7C  F004         u4521:
  2034  0008F2                     	goto	l3707
  2035  0008F4  EF83  F004         u4520:
  2036  0008F8                     	line	848
  2037                           	
  2038                           l3705:; BSR set to: 0
  2039  0008FA                     
  2040                           ;doprnt.c: 848: prec = 6;
  2041                           	movlw	high(06h)
  2042  0008FA  0E00               	movwf	((printf@prec+1))&0ffh
  2043  0008FC  6FB7               	movlw	low(06h)
  2044  0008FE  0E06               	movwf	((printf@prec))&0ffh
  2045  000900  6FB6               	goto	l3707
  2046  000902  EF83  F004         	
  2047                           l125:; BSR set to: 0
  2048  000906                     
  2049                           	line	849
  2050                           	
  2051                           l3707:; BSR set to: 0
  2052  000906                     
  2053                           ;doprnt.c: 849: fval = (*(double *)__va_arg((*(double **)ap), (double)0));
  2054                           	movff	(printf@ap),fsr2l
  2055  000908  C0A2  FFD9         	movff	(printf@ap+1),fsr2h
  2056  00090C  C0A3  FFDA         	movff	postinc2,(printf@fval)
  2057  000910  CFDE F0B2          	movff	postinc2,(printf@fval+1)
  2058  000914  CFDE F0B3          	movff	postinc2,(printf@fval+2)
  2059  000918  CFDE F0B4          	movff	postinc2,(printf@fval+3)
  2060  00091C  CFDE F0B5          	
  2061                           l3709:; BSR set to: 0
  2062  000920                     
  2063                           	movlw	04h
  2064  000920  0E04               	addwf	((printf@ap))&0ffh
  2065  000922  27A2               	movlw	0
  2066  000924  0E00               	addwfc	((printf@ap+1))&0ffh
  2067  000926  23A3               	line	850
  2068                           	
  2069                           l3711:; BSR set to: 0
  2070  000928                     
  2071                           ;doprnt.c: 850: if(fval < 0.0) {
  2072                           	btfsc	((printf@fval+3))&0ffh,7
  2073  000928  BFB5               	goto	u4530
  2074  00092A  EF9C  F004         	goto	u4531
  2075  00092E  EF99  F004         
  2076                           u4531:
  2077  000932                     	goto	l3717
  2078  000934  EFB4  F004         u4530:
  2079  000938                     	line	851
  2080                           	
  2081                           l3713:; BSR set to: 0
  2082  00093A                     
  2083                           ;doprnt.c: 851: fval = -fval;
  2084                           	movff	(printf@fval),(c:___flneg@f1)
  2085  00093A  C0B2  F01F         	movff	(printf@fval+1),(c:___flneg@f1+1)
  2086  00093E  C0B3  F020         	movff	(printf@fval+2),(c:___flneg@f1+2)
  2087  000942  C0B4  F021         	movff	(printf@fval+3),(c:___flneg@f1+3)
  2088  000946  C0B5  F022         	call	___flneg	;wreg free
  2089  00094A  ECBB  F01D         	movff	0+?___flneg,(printf@fval)
  2090  00094E  C01F  F0B2         	movff	1+?___flneg,(printf@fval+1)
  2091  000952  C020  F0B3         	movff	2+?___flneg,(printf@fval+2)
  2092  000956  C021  F0B4         	movff	3+?___flneg,(printf@fval+3)
  2093  00095A  C022  F0B5         	
  2094                           	line	852
  2095                           	
  2096                           l3715:
  2097  00095E                     ;doprnt.c: 852: flag |= 0x03;
  2098                           	movlw	03h
  2099  00095E  0E03               	movlb	0	; () banked
  2100  000960  0100               	iorwf	((printf@flag))&0ffh
  2101  000962  13AE               	goto	l3717
  2102  000964  EFB4  F004         	line	853
  2103                           	
  2104                           l126:; BSR set to: 0
  2105  000968                     
  2106                           	line	854
  2107                           	
  2108                           l3717:; BSR set to: 0
  2109  000968                     
  2110                           ;doprnt.c: 853: };doprnt.c: 854: eexp = 0;
  2111                           	movlw	high(0)
  2112  00096A  0E00               	movwf	((printf@eexp+1))&0ffh
  2113  00096C  6FAD               	movlw	low(0)
  2114  00096E  0E00               	movwf	((printf@eexp))&0ffh
  2115  000970  6FAC               	line	855
  2116                           	
  2117                           l3719:; BSR set to: 0
  2118  000972                     
  2119                           ;doprnt.c: 855: if( fval!=0) {
  2120                           	movff	(printf@fval),(c:___fleq@ff1)
  2121  000972  C0B2  F01F         	movff	(printf@fval+1),(c:___fleq@ff1+1)
  2122  000976  C0B3  F020         	movff	(printf@fval+2),(c:___fleq@ff1+2)
  2123  00097A  C0B4  F021         	movff	(printf@fval+3),(c:___fleq@ff1+3)
  2124  00097E  C0B5  F022         	movlw	low(normalize32(0x0))
  2125  000982  0E00               	movwf	((c:___fleq@ff2)),c
  2126  000984  6E23               	movlw	high(normalize32(0x0))
  2127  000986  0E00               	movwf	((c:___fleq@ff2+1)),c
  2128  000988  6E24               	movlw	low highword(normalize32(0x0))
  2129  00098A  0E00               	movwf	((c:___fleq@ff2+2)),c
  2130  00098C  6E25               	movlw	high highword(normalize32(0x0))
  2131  00098E  0E00               	movwf	((c:___fleq@ff2+3)),c
  2132  000990  6E26               	call	___fleq	;wreg free
  2133  000992  ECCF  F01B         	btfsc	status,0
  2134  000996  B0D8               	goto	u4541
  2135  000998  EFD0  F004         	goto	u4540
  2136  00099C  EFD3  F004         u4541:
  2137  0009A0                     	goto	l3745
  2138  0009A2  EF77  F005         u4540:
  2139  0009A6                     	line	856
  2140                           	
  2141                           l3721:
  2142  0009A8                     ;doprnt.c: 856: (void)(*(&eexp) = (unsigned char)((*(unsigned long *)&fval >> 23) & 255)
                                  - 126);
  2143                           	movlb	0	; () banked
  2144  0009A8  0100               	rlcf	((printf@fval+2))&0ffh,w
  2145  0009AA  35B4               	rlcf	((printf@fval+3))&0ffh,w
  2146  0009AC  35B5               	addlw	low(-126)
  2147  0009AE  0F82               	movwf	((printf@eexp))&0ffh
  2148  0009B0  6FAC               	clrf	1+((printf@eexp))&0ffh
  2149  0009B2  6BAD               	movlw	high(-126)
  2150  0009B4  0EFF               	addwfc	1+((printf@eexp))&0ffh
  2151  0009B6  23AD               	line	857
  2152                           	
  2153                           l3723:; BSR set to: 0
  2154  0009B8                     
  2155                           ;doprnt.c: 857: eexp--;
  2156                           	decf	((printf@eexp))&0ffh
  2157  0009B8  07AC               	btfss	status,0
  2158  0009BA  A0D8               	decf	((printf@eexp+1))&0ffh
  2159  0009BC  07AD               	line	858
  2160                           	
  2161                           l3725:; BSR set to: 0
  2162  0009BE                     
  2163                           ;doprnt.c: 858: eexp *= 3;
  2164                           	movff	(printf@eexp),(c:___wmul@multiplier)
  2165  0009BE  C0AC  F01F         	movff	(printf@eexp+1),(c:___wmul@multiplier+1)
  2166  0009C2  C0AD  F020         	movlw	high(03h)
  2167  0009C6  0E00               	movwf	((c:___wmul@multiplicand+1)),c
  2168  0009C8  6E22               	movlw	low(03h)
  2169  0009CA  0E03               	movwf	((c:___wmul@multiplicand)),c
  2170  0009CC  6E21               	call	___wmul	;wreg free
  2171  0009CE  EC06  F01E         	movff	0+?___wmul,(printf@eexp)
  2172  0009D2  C01F  F0AC         	movff	1+?___wmul,(printf@eexp+1)
  2173  0009D6  C020  F0AD         	line	859
  2174                           	
  2175                           l3727:
  2176  0009DA                     ;doprnt.c: 859: eexp /= 10;
  2177                           	movff	(printf@eexp),(c:___awdiv@dividend)
  2178  0009DA  C0AC  F025         	movff	(printf@eexp+1),(c:___awdiv@dividend+1)
  2179  0009DE  C0AD  F026         	movlw	high(0Ah)
  2180  0009E2  0E00               	movwf	((c:___awdiv@divisor+1)),c
  2181  0009E4  6E28               	movlw	low(0Ah)
  2182  0009E6  0E0A               	movwf	((c:___awdiv@divisor)),c
  2183  0009E8  6E27               	call	___awdiv	;wreg free
  2184  0009EA  EC56  F01A         	movff	0+?___awdiv,(printf@eexp)
  2185  0009EE  C025  F0AC         	movff	1+?___awdiv,(printf@eexp+1)
  2186  0009F2  C026  F0AD         	line	860
  2187                           	
  2188                           l3729:
  2189  0009F6                     ;doprnt.c: 860: if(eexp < 0)
  2190                           	movlb	0	; () banked
  2191  0009F6  0100               	btfsc	((printf@eexp+1))&0ffh,7
  2192  0009F8  BFAD               	goto	u4550
  2193  0009FA  EF04  F005         	goto	u4551
  2194  0009FE  EF01  F005         
  2195                           u4551:
  2196  000A02                     	goto	l3733
  2197  000A04  EF0A  F005         u4550:
  2198  000A08                     	line	861
  2199                           	
  2200                           l3731:; BSR set to: 0
  2201  000A0A                     
  2202                           ;doprnt.c: 861: eexp--;
  2203                           	decf	((printf@eexp))&0ffh
  2204  000A0A  07AC               	btfss	status,0
  2205  000A0C  A0D8               	decf	((printf@eexp+1))&0ffh
  2206  000A0E  07AD               	goto	l3733
  2207  000A10  EF0A  F005         	
  2208                           l128:; BSR set to: 0
  2209  000A14                     
  2210                           	line	865
  2211                           	
  2212                           l3733:; BSR set to: 0
  2213  000A14                     
  2214                           ;doprnt.c: 865: tmpval.integ = scale(-eexp);
  2215                           	movf	((printf@eexp))&0ffh,w
  2216  000A16  51AC               	sublw	0
  2217  000A18  0800               	
  2218                           	call	_scale
  2219  000A1A  EC41  F010         	movff	0+?_scale,(printf@tmpval)
  2220  000A1E  C046  F0A8         	movff	1+?_scale,(printf@tmpval+1)
  2221  000A22  C047  F0A9         	movff	2+?_scale,(printf@tmpval+2)
  2222  000A26  C048  F0AA         	movff	3+?_scale,(printf@tmpval+3)
  2223  000A2A  C049  F0AB         	
  2224                           	line	866
  2225                           	
  2226                           l3735:
  2227  000A2E                     ;doprnt.c: 866: tmpval.integ *= fval;
  2228                           	movff	(printf@tmpval),(c:___flmul@b)
  2229  000A2E  C0A8  F02D         	movff	(printf@tmpval+1),(c:___flmul@b+1)
  2230  000A32  C0A9  F02E         	movff	(printf@tmpval+2),(c:___flmul@b+2)
  2231  000A36  C0AA  F02F         	movff	(printf@tmpval+3),(c:___flmul@b+3)
  2232  000A3A  C0AB  F030         	movff	(printf@fval),(c:___flmul@a)
  2233  000A3E  C0B2  F031         	movff	(printf@fval+1),(c:___flmul@a+1)
  2234  000A42  C0B3  F032         	movff	(printf@fval+2),(c:___flmul@a+2)
  2235  000A46  C0B4  F033         	movff	(printf@fval+3),(c:___flmul@a+3)
  2236  000A4A  C0B5  F034         	call	___flmul	;wreg free
  2237  000A4E  ECCC  F00D         	movff	0+?___flmul,(printf@tmpval)
  2238  000A52  C02D  F0A8         	movff	1+?___flmul,(printf@tmpval+1)
  2239  000A56  C02E  F0A9         	movff	2+?___flmul,(printf@tmpval+2)
  2240  000A5A  C02F  F0AA         	movff	3+?___flmul,(printf@tmpval+3)
  2241  000A5E  C030  F0AB         	
  2242                           	line	867
  2243                           	
  2244                           l3737:
  2245  000A62                     ;doprnt.c: 867: if(tmpval.integ < 1.0)
  2246                           	movff	(printf@tmpval),(c:___flge@ff1)
  2247  000A62  C0A8  F01F         	movff	(printf@tmpval+1),(c:___flge@ff1+1)
  2248  000A66  C0A9  F020         	movff	(printf@tmpval+2),(c:___flge@ff1+2)
  2249  000A6A  C0AA  F021         	movff	(printf@tmpval+3),(c:___flge@ff1+3)
  2250  000A6E  C0AB  F022         	movlw	low(normalize32(0x3f800000))
  2251  000A72  0E00               	movwf	((c:___flge@ff2)),c
  2252  000A74  6E23               	movlw	high(normalize32(0x3f800000))
  2253  000A76  0E00               	movwf	((c:___flge@ff2+1)),c
  2254  000A78  6E24               	movlw	low highword(normalize32(0x3f800000))
  2255  000A7A  0E80               	movwf	((c:___flge@ff2+2)),c
  2256  000A7C  6E25               	movlw	high highword(normalize32(0x3f800000))
  2257  000A7E  0E3F               	movwf	((c:___flge@ff2+3)),c
  2258  000A80  6E26               	call	___flge	;wreg free
  2259  000A82  EC1E  F018         	btfsc	status,0
  2260  000A86  B0D8               	goto	u4561
  2261  000A88  EF48  F005         	goto	u4560
  2262  000A8C  EF4B  F005         u4561:
  2263  000A90                     	goto	l3741
  2264  000A92  EF52  F005         u4560:
  2265  000A96                     	line	868
  2266                           	
  2267                           l3739:
  2268  000A98                     ;doprnt.c: 868: eexp--;
  2269                           	movlb	0	; () banked
  2270  000A98  0100               	decf	((printf@eexp))&0ffh
  2271  000A9A  07AC               	btfss	status,0
  2272  000A9C  A0D8               	decf	((printf@eexp+1))&0ffh
  2273  000A9E  07AD               	goto	l3745
  2274  000AA0  EF77  F005         	line	869
  2275                           	
  2276                           l129:; BSR set to: 0
  2277  000AA4                     
  2278                           	
  2279                           l3741:
  2280  000AA4                     ;doprnt.c: 869: else if(tmpval.integ >= 10.0)
  2281                           	movff	(printf@tmpval),(c:___flge@ff1)
  2282  000AA6  C0A8  F01F         	movff	(printf@tmpval+1),(c:___flge@ff1+1)
  2283  000AAA  C0A9  F020         	movff	(printf@tmpval+2),(c:___flge@ff1+2)
  2284  000AAE  C0AA  F021         	movff	(printf@tmpval+3),(c:___flge@ff1+3)
  2285  000AB2  C0AB  F022         	movlw	low(normalize32(0x41200000))
  2286  000AB6  0E00               	movwf	((c:___flge@ff2)),c
  2287  000AB8  6E23               	movlw	high(normalize32(0x41200000))
  2288  000ABA  0E00               	movwf	((c:___flge@ff2+1)),c
  2289  000ABC  6E24               	movlw	low highword(normalize32(0x41200000))
  2290  000ABE  0E20               	movwf	((c:___flge@ff2+2)),c
  2291  000AC0  6E25               	movlw	high highword(normalize32(0x41200000))
  2292  000AC2  0E41               	movwf	((c:___flge@ff2+3)),c
  2293  000AC4  6E26               	call	___flge	;wreg free
  2294  000AC6  EC1E  F018         	btfss	status,0
  2295  000ACA  A0D8               	goto	u4571
  2296  000ACC  EF6A  F005         	goto	u4570
  2297  000AD0  EF6D  F005         u4571:
  2298  000AD4                     	goto	l3745
  2299  000AD6  EF77  F005         u4570:
  2300  000ADA                     	line	870
  2301                           	
  2302                           l3743:
  2303  000ADC                     ;doprnt.c: 870: eexp++;
  2304                           	movlb	0	; () banked
  2305  000ADC  0100               	infsnz	((printf@eexp))&0ffh
  2306  000ADE  4BAC               	incf	((printf@eexp+1))&0ffh
  2307  000AE0  2BAD               	goto	l3745
  2308  000AE2  EF77  F005         	
  2309                           l131:; BSR set to: 0
  2310  000AE6                     
  2311                           	goto	l3745
  2312  000AE6  EF77  F005         	line	871
  2313                           	
  2314                           l130:; BSR set to: 0
  2315  000AEA                     
  2316                           	goto	l3745
  2317  000AEA  EF77  F005         	
  2318                           l127:; BSR set to: 0
  2319  000AEE                     
  2320                           	line	1131
  2321                           	
  2322                           l3745:
  2323  000AEE                     ;doprnt.c: 871: };doprnt.c: 1131: if(prec <= 12)
  2324                           	movlb	0	; () banked
  2325  000AF0  0100               	btfsc	((printf@prec+1))&0ffh,7
  2326  000AF2  BFB7               	goto	u4580
  2327  000AF4  EF88  F005         	movf	((printf@prec+1))&0ffh,w
  2328  000AF8  51B7               	bnz	u4581
  2329  000AFA  E107               	movlw	13
  2330  000AFC  0E0D               	subwf	 ((printf@prec))&0ffh,w
  2331  000AFE  5DB6               	btfsc	status,0
  2332  000B00  B0D8               	goto	u4581
  2333  000B02  EF85  F005         	goto	u4580
  2334  000B06  EF88  F005         
  2335                           u4581:
  2336  000B0A                     	goto	l3749
  2337  000B0C  EFA8  F005         u4580:
  2338  000B10                     	line	1132
  2339                           	
  2340                           l3747:; BSR set to: 0
  2341  000B12                     
  2342                           ;doprnt.c: 1132: fval += fround((unsigned int)prec);
  2343                           	movff	(printf@fval),(c:___fladd@b)
  2344  000B12  C0B2  F053         	movff	(printf@fval+1),(c:___fladd@b+1)
  2345  000B16  C0B3  F054         	movff	(printf@fval+2),(c:___fladd@b+2)
  2346  000B1A  C0B4  F055         	movff	(printf@fval+3),(c:___fladd@b+3)
  2347  000B1E  C0B5  F056         	movf	((printf@prec))&0ffh,w
  2348  000B22  51B6               	
  2349                           	call	_fround
  2350  000B24  EC9D  F012         	movff	0+?_fround,(c:___fladd@a)
  2351  000B28  C046  F057         	movff	1+?_fround,(c:___fladd@a+1)
  2352  000B2C  C047  F058         	movff	2+?_fround,(c:___fladd@a+2)
  2353  000B30  C048  F059         	movff	3+?_fround,(c:___fladd@a+3)
  2354  000B34  C049  F05A         	
  2355                           	call	___fladd	;wreg free
  2356  000B38  EC93  F00A         	movff	0+?___fladd,(printf@fval)
  2357  000B3C  C053  F0B2         	movff	1+?___fladd,(printf@fval+1)
  2358  000B40  C054  F0B3         	movff	2+?___fladd,(printf@fval+2)
  2359  000B44  C055  F0B4         	movff	3+?___fladd,(printf@fval+3)
  2360  000B48  C056  F0B5         	
  2361                           	goto	l3749
  2362  000B4C  EFA8  F005         	
  2363                           l132:
  2364  000B50                     	line	1135
  2365                           	
  2366                           l3749:
  2367  000B50                     ;doprnt.c: 1135: if((eexp > 9)||(fval != 0 && (unsigned long)fval == 0 && eexp > 1)) {
  2368                           	movlb	0	; () banked
  2369  000B52  0100               	btfsc	((printf@eexp+1))&0ffh,7
  2370  000B54  BFAD               	goto	u4590
  2371  000B56  EFB9  F005         	movf	((printf@eexp+1))&0ffh,w
  2372  000B5A  51AD               	bnz	u4591
  2373  000B5C  E107               	movlw	10
  2374  000B5E  0E0A               	subwf	 ((printf@eexp))&0ffh,w
  2375  000B60  5DAC               	btfsc	status,0
  2376  000B62  B0D8               	goto	u4591
  2377  000B64  EFB6  F005         	goto	u4590
  2378  000B68  EFB9  F005         
  2379                           u4591:
  2380  000B6C                     	goto	l3757
  2381  000B6E  EFFF  F005         u4590:
  2382  000B72                     	
  2383                           l3751:; BSR set to: 0
  2384  000B74                     
  2385                           	movff	(printf@fval),(c:___fleq@ff1)
  2386  000B74  C0B2  F01F         	movff	(printf@fval+1),(c:___fleq@ff1+1)
  2387  000B78  C0B3  F020         	movff	(printf@fval+2),(c:___fleq@ff1+2)
  2388  000B7C  C0B4  F021         	movff	(printf@fval+3),(c:___fleq@ff1+3)
  2389  000B80  C0B5  F022         	movlw	low(normalize32(0x0))
  2390  000B84  0E00               	movwf	((c:___fleq@ff2)),c
  2391  000B86  6E23               	movlw	high(normalize32(0x0))
  2392  000B88  0E00               	movwf	((c:___fleq@ff2+1)),c
  2393  000B8A  6E24               	movlw	low highword(normalize32(0x0))
  2394  000B8C  0E00               	movwf	((c:___fleq@ff2+2)),c
  2395  000B8E  6E25               	movlw	high highword(normalize32(0x0))
  2396  000B90  0E00               	movwf	((c:___fleq@ff2+3)),c
  2397  000B92  6E26               	call	___fleq	;wreg free
  2398  000B94  ECCF  F01B         	btfsc	status,0
  2399  000B98  B0D8               	goto	u4601
  2400  000B9A  EFD1  F005         	goto	u4600
  2401  000B9E  EFD4  F005         u4601:
  2402  000BA2                     	goto	l3771
  2403  000BA4  EF7A  F006         u4600:
  2404  000BA8                     	
  2405                           l3753:
  2406  000BAA                     	movff	(printf@fval),(c:___fltol@f1)
  2407  000BAA  C0B2  F04F         	movff	(printf@fval+1),(c:___fltol@f1+1)
  2408  000BAE  C0B3  F050         	movff	(printf@fval+2),(c:___fltol@f1+2)
  2409  000BB2  C0B4  F051         	movff	(printf@fval+3),(c:___fltol@f1+3)
  2410  000BB6  C0B5  F052         	call	___fltol	;wreg free
  2411  000BBA  ECE4  F018         	movf	(0+?___fltol),c,w
  2412  000BBE  504F               iorwf	(1+?___fltol),c,w
  2413  000BC0  1050               iorwf	(2+?___fltol),c,w
  2414  000BC2  1051               iorwf	(3+?___fltol),c,w
  2415  000BC4  1052               	btfss	status,2
  2416  000BC6  A4D8               	goto	u4611
  2417  000BC8  EFE8  F005         	goto	u4610
  2418  000BCC  EFEB  F005         
  2419                           u4611:
  2420  000BD0                     	goto	l3771
  2421  000BD2  EF7A  F006         u4610:
  2422  000BD6                     	
  2423                           l3755:
  2424  000BD8                     	movlb	0	; () banked
  2425  000BD8  0100               	btfsc	((printf@eexp+1))&0ffh,7
  2426  000BDA  BFAD               	goto	u4621
  2427  000BDC  EFF9  F005         	movf	((printf@eexp+1))&0ffh,w
  2428  000BE0  51AD               	bnz	u4620
  2429  000BE2  E10A               	movlw	2
  2430  000BE4  0E02               	subwf	 ((printf@eexp))&0ffh,w
  2431  000BE6  5DAC               	btfss	status,0
  2432  000BE8  A0D8               	goto	u4621
  2433  000BEA  EFF9  F005         	goto	u4620
  2434  000BEE  EFFC  F005         
  2435                           u4621:
  2436  000BF2                     	goto	l3771
  2437  000BF4  EF7A  F006         u4620:
  2438  000BF8                     	goto	l3757
  2439  000BFA  EFFF  F005         	
  2440                           l135:; BSR set to: 0
  2441  000BFE                     
  2442                           	line	1139
  2443                           	
  2444                           l3757:; BSR set to: 0
  2445  000BFE                     
  2446                           ;doprnt.c: 1139: if(tmpval.integ < 4.294967296){
  2447                           	movff	(printf@tmpval),(c:___flge@ff1)
  2448  000C00  C0A8  F01F         	movff	(printf@tmpval+1),(c:___flge@ff1+1)
  2449  000C04  C0A9  F020         	movff	(printf@tmpval+2),(c:___flge@ff1+2)
  2450  000C08  C0AA  F021         	movff	(printf@tmpval+3),(c:___flge@ff1+3)
  2451  000C0C  C0AB  F022         	movlw	low(normalize32(0x4089705f))
  2452  000C10  0E5F               	movwf	((c:___flge@ff2)),c
  2453  000C12  6E23               	movlw	high(normalize32(0x4089705f))
  2454  000C14  0E70               	movwf	((c:___flge@ff2+1)),c
  2455  000C16  6E24               	movlw	low highword(normalize32(0x4089705f))
  2456  000C18  0E89               	movwf	((c:___flge@ff2+2)),c
  2457  000C1A  6E25               	movlw	high highword(normalize32(0x4089705f))
  2458  000C1C  0E40               	movwf	((c:___flge@ff2+3)),c
  2459  000C1E  6E26               	call	___flge	;wreg free
  2460  000C20  EC1E  F018         	btfsc	status,0
  2461  000C24  B0D8               	goto	u4631
  2462  000C26  EF17  F006         	goto	u4630
  2463  000C2A  EF1A  F006         u4631:
  2464  000C2E                     	goto	l3761
  2465  000C30  EF22  F006         u4630:
  2466  000C34                     	line	1140
  2467                           	
  2468                           l3759:
  2469  000C36                     ;doprnt.c: 1140: eexp -= (sizeof dpowers/sizeof dpowers[0])-1;
  2470                           	movlb	0	; () banked
  2471  000C36  0100               	movlw	low(-9)
  2472  000C38  0EF7               	addwf	((printf@eexp))&0ffh
  2473  000C3A  27AC               	movlw	high(-9)
  2474  000C3C  0EFF               	addwfc	((printf@eexp+1))&0ffh
  2475  000C3E  23AD               	line	1141
  2476                           ;doprnt.c: 1141: }else{
  2477                           	goto	l3763
  2478  000C40  EF2A  F006         	
  2479                           l136:; BSR set to: 0
  2480  000C44                     
  2481                           	line	1142
  2482                           	
  2483                           l3761:
  2484  000C44                     ;doprnt.c: 1142: eexp -= (sizeof dpowers/sizeof dpowers[0])-2;
  2485                           	movlb	0	; () banked
  2486  000C46  0100               	movlw	low(-8)
  2487  000C48  0EF8               	addwf	((printf@eexp))&0ffh
  2488  000C4A  27AC               	movlw	high(-8)
  2489  000C4C  0EFF               	addwfc	((printf@eexp+1))&0ffh
  2490  000C4E  23AD               	goto	l3763
  2491  000C50  EF2A  F006         	line	1143
  2492                           	
  2493                           l137:; BSR set to: 0
  2494  000C54                     
  2495                           	line	1144
  2496                           	
  2497                           l3763:; BSR set to: 0
  2498  000C54                     
  2499                           ;doprnt.c: 1145: val = ((sizeof(double)== 3) ? _tdiv_to_l_(fval,tmpval.integ) : _div_to_
                                 l_(fval,tmpval.integ));
  2500                           	movf	((printf@eexp))&0ffh,w
  2501  000C56  51AC               	
  2502                           	call	_scale
  2503  000C58  EC41  F010         	movff	0+?_scale,(printf@tmpval)
  2504  000C5C  C046  F0A8         	movff	1+?_scale,(printf@tmpval+1)
  2505  000C60  C047  F0A9         	movff	2+?_scale,(printf@tmpval+2)
  2506  000C64  C048  F0AA         	movff	3+?_scale,(printf@tmpval+3)
  2507  000C68  C049  F0AB         	
  2508                           	line	1145
  2509                           	
  2510                           l3765:
  2511  000C6C                     	movff	(printf@fval),(c:__div_to_l_@f1)
  2512  000C6C  C0B2  F01F         	movff	(printf@fval+1),(c:__div_to_l_@f1+1)
  2513  000C70  C0B3  F020         	movff	(printf@fval+2),(c:__div_to_l_@f1+2)
  2514  000C74  C0B4  F021         	movff	(printf@fval+3),(c:__div_to_l_@f1+3)
  2515  000C78  C0B5  F022         	movff	(printf@tmpval),(c:__div_to_l_@f2)
  2516  000C7C  C0A8  F023         	movff	(printf@tmpval+1),(c:__div_to_l_@f2+1)
  2517  000C80  C0A9  F024         	movff	(printf@tmpval+2),(c:__div_to_l_@f2+2)
  2518  000C84  C0AA  F025         	movff	(printf@tmpval+3),(c:__div_to_l_@f2+3)
  2519  000C88  C0AB  F026         	call	__div_to_l_	;wreg free
  2520  000C8C  EC2D  F017         	movff	0+?__div_to_l_,(printf@val)
  2521  000C90  C01F  F0A4         	movff	1+?__div_to_l_,(printf@val+1)
  2522  000C94  C020  F0A5         	movff	2+?__div_to_l_,(printf@val+2)
  2523  000C98  C021  F0A6         	movff	3+?__div_to_l_,(printf@val+3)
  2524  000C9C  C022  F0A7         	
  2525                           	goto	l3769
  2526  000CA0  EF6E  F006         	
  2527                           l139:
  2528  000CA4                     	
  2529                           l3767:
  2530  000CA4                     	movff	(printf@fval),(c:__tdiv_to_l_@f1)
  2531  000CA4  C0B2  F01F         	movff	(printf@fval+1),(c:__tdiv_to_l_@f1+1)
  2532  000CA8  C0B3  F020         	movff	(printf@fval+2),(c:__tdiv_to_l_@f1+2)
  2533  000CAC  C0B4  F021         	movff	(printf@fval+3),(c:__tdiv_to_l_@f1+3)
  2534  000CB0  C0B5  F022         	movff	(printf@tmpval),(c:__tdiv_to_l_@f2)
  2535  000CB4  C0A8  F023         	movff	(printf@tmpval+1),(c:__tdiv_to_l_@f2+1)
  2536  000CB8  C0A9  F024         	movff	(printf@tmpval+2),(c:__tdiv_to_l_@f2+2)
  2537  000CBC  C0AA  F025         	movff	(printf@tmpval+3),(c:__tdiv_to_l_@f2+3)
  2538  000CC0  C0AB  F026         	call	__tdiv_to_l_	;wreg free
  2539  000CC4  EC3B  F016         	movff	0+?__tdiv_to_l_,(printf@val)
  2540  000CC8  C01F  F0A4         	movff	1+?__tdiv_to_l_,(printf@val+1)
  2541  000CCC  C020  F0A5         	movff	2+?__tdiv_to_l_,(printf@val+2)
  2542  000CD0  C021  F0A6         	movff	3+?__tdiv_to_l_,(printf@val+3)
  2543  000CD4  C022  F0A7         	
  2544                           	goto	l3769
  2545  000CD8  EF6E  F006         	
  2546                           l141:
  2547  000CDC                     	line	1148
  2548                           	
  2549                           l3769:
  2550  000CDC                     ;doprnt.c: 1148: fval = 0.0;
  2551                           	movlw	low(normalize32(0x0))
  2552  000CDE  0E00               	movlb	0	; () banked
  2553  000CE0  0100               	movwf	((printf@fval))&0ffh
  2554  000CE2  6FB2               	movlw	high(normalize32(0x0))
  2555  000CE4  0E00               	movwf	((printf@fval+1))&0ffh
  2556  000CE6  6FB3               	movlw	low highword(normalize32(0x0))
  2557  000CE8  0E00               	movwf	((printf@fval+2))&0ffh
  2558  000CEA  6FB4               	movlw	high highword(normalize32(0x0))
  2559  000CEC  0E00               	movwf	((printf@fval+3))&0ffh
  2560  000CEE  6FB5               	line	1149
  2561                           ;doprnt.c: 1149: } else {
  2562                           	goto	l3775
  2563  000CF0  EFB9  F006         	
  2564                           l133:; BSR set to: 0
  2565  000CF4                     
  2566                           	line	1150
  2567                           	
  2568                           l3771:
  2569  000CF4                     ;doprnt.c: 1150: val = (unsigned long)fval;
  2570                           	movff	(printf@fval),(c:___fltol@f1)
  2571  000CF6  C0B2  F04F         	movff	(printf@fval+1),(c:___fltol@f1+1)
  2572  000CFA  C0B3  F050         	movff	(printf@fval+2),(c:___fltol@f1+2)
  2573  000CFE  C0B4  F051         	movff	(printf@fval+3),(c:___fltol@f1+3)
  2574  000D02  C0B5  F052         	call	___fltol	;wreg free
  2575  000D06  ECE4  F018         	movff	0+?___fltol,(printf@val)
  2576  000D0A  C04F  F0A4         	movff	1+?___fltol,(printf@val+1)
  2577  000D0E  C050  F0A5         	movff	2+?___fltol,(printf@val+2)
  2578  000D12  C051  F0A6         	movff	3+?___fltol,(printf@val+3)
  2579  000D16  C052  F0A7         	
  2580                           	line	1151
  2581                           ;doprnt.c: 1151: fval -= (double)val;
  2582                           	movff	(printf@fval),(___flsub@b)
  2583  000D1A  C0B2  F08C         	movff	(printf@fval+1),(___flsub@b+1)
  2584  000D1E  C0B3  F08D         	movff	(printf@fval+2),(___flsub@b+2)
  2585  000D22  C0B4  F08E         	movff	(printf@fval+3),(___flsub@b+3)
  2586  000D26  C0B5  F08F         	movff	(printf@val),(c:___xxtofl@val)
  2587  000D2A  C0A4  F01F         	movff	(printf@val+1),(c:___xxtofl@val+1)
  2588  000D2E  C0A5  F020         	movff	(printf@val+2),(c:___xxtofl@val+2)
  2589  000D32  C0A6  F021         	movff	(printf@val+3),(c:___xxtofl@val+3)
  2590  000D36  C0A7  F022         	movlw	(0)&0ffh
  2591  000D3A  0E00               	
  2592                           	call	___xxtofl
  2593  000D3C  EC19  F014         	movff	0+?___xxtofl,(___flsub@a)
  2594  000D40  C01F  F090         	movff	1+?___xxtofl,(___flsub@a+1)
  2595  000D44  C020  F091         	movff	2+?___xxtofl,(___flsub@a+2)
  2596  000D48  C021  F092         	movff	3+?___xxtofl,(___flsub@a+3)
  2597  000D4C  C022  F093         	
  2598                           	call	___flsub	;wreg free
  2599  000D50  EC6C  F01D         	movff	0+?___flsub,(printf@fval)
  2600  000D54  C08C  F0B2         	movff	1+?___flsub,(printf@fval+1)
  2601  000D58  C08D  F0B3         	movff	2+?___flsub,(printf@fval+2)
  2602  000D5C  C08E  F0B4         	movff	3+?___flsub,(printf@fval+3)
  2603  000D60  C08F  F0B5         	
  2604                           	line	1152
  2605                           	
  2606                           l3773:
  2607  000D64                     ;doprnt.c: 1152: eexp = 0;
  2608                           	movlw	high(0)
  2609  000D64  0E00               	movlb	0	; () banked
  2610  000D66  0100               	movwf	((printf@eexp+1))&0ffh
  2611  000D68  6FAD               	movlw	low(0)
  2612  000D6A  0E00               	movwf	((printf@eexp))&0ffh
  2613  000D6C  6FAC               	goto	l3775
  2614  000D6E  EFB9  F006         	line	1153
  2615                           	
  2616                           l142:; BSR set to: 0
  2617  000D72                     
  2618                           	line	1155
  2619                           	
  2620                           l3775:; BSR set to: 0
  2621  000D72                     
  2622                           ;doprnt.c: 1153: };doprnt.c: 1155: for(c = 1 ; c != (sizeof dpowers/sizeof dpowers[0]) ;
                                  c++)
  2623                           	movlw	low(01h)
  2624  000D74  0E01               	movwf	((printf@c))&0ffh
  2625  000D76  6FB8               	
  2626                           l3777:; BSR set to: 0
  2627  000D78                     
  2628                           		movlw	10
  2629  000D78  0E0A               	xorwf	((printf@c))&0ffh,w
  2630  000D7A  19B8               	btfss	status,2
  2631  000D7C  A4D8               	goto	u4641
  2632  000D7E  EFC3  F006         	goto	u4640
  2633  000D82  EFC6  F006         
  2634                           u4641:
  2635  000D86                     	goto	l3781
  2636  000D88  EFCB  F006         u4640:
  2637  000D8C                     	goto	l3789
  2638  000D8E  EF00  F007         	
  2639                           l3779:; BSR set to: 0
  2640  000D92                     
  2641                           	goto	l3789
  2642  000D92  EF00  F007         	line	1156
  2643                           	
  2644                           l143:; BSR set to: 0
  2645  000D96                     
  2646                           	
  2647                           l3781:; BSR set to: 0
  2648  000D96                     
  2649                           ;doprnt.c: 1156: if(val < dpowers[c])
  2650                           	movf	((printf@c))&0ffh,w
  2651  000D98  51B8               	mullw	04h
  2652  000D9A  0D04               	movlw	low((_dpowers))
  2653  000D9C  0E69               	addwf	(prodl),c,w
  2654  000D9E  24F3               	movwf	tblptrl
  2655  000DA0  6EF6               	movlw	high((_dpowers))
  2656  000DA2  0E06               	addwfc	(prodh),c,w
  2657  000DA4  20F4               	movwf	tblptrh
  2658  000DA6  6EF7               	if	0	;There are less than 3 active tblptr bytes
  2659  000DA8                     	clrf	tblptru
  2661                           	global __mediumconst
  2664  000DA8                     		tblrd	*+
  2665  000DA8  0009               		dw	0FFFFh; errata NOP
  2666  000DAA  FFFF               movf	tablat,w
  2667  000DAC  50F5               	subwf	((printf@val))&0ffh,w
  2668  000DAE  5DA4               	tblrd	*+
  2669  000DB0  0009               		dw	0FFFFh; errata NOP
  2670  000DB2  FFFF               movf	tablat,w
  2671  000DB4  50F5               	subwfb	((printf@val+1))&0ffh,w
  2672  000DB6  59A5               	tblrd	*+
  2673  000DB8  0009               		dw	0FFFFh; errata NOP
  2674  000DBA  FFFF               movf	tablat,w
  2675  000DBC  50F5               	subwfb	((printf@val+2))&0ffh,w
  2676  000DBE  59A6               	tblrd	*+
  2677  000DC0  0009               		dw	0FFFFh; errata NOP
  2678  000DC2  FFFF               movf	tablat,w
  2679  000DC4  50F5               	subwfb	((printf@val+3))&0ffh,w
  2680  000DC6  59A7               	btfsc	status,0
  2681  000DC8  B0D8               	goto	u4651
  2682  000DCA  EFE9  F006         	goto	u4650
  2683  000DCE  EFEC  F006         
  2684                           u4651:
  2685  000DD2                     	goto	l3785
  2686  000DD4  EFF1  F006         u4650:
  2687  000DD8                     	goto	l3789
  2688  000DDA  EF00  F007         	line	1157
  2689                           	
  2690                           l3783:; BSR set to: 0
  2691  000DDE                     
  2692                           ;doprnt.c: 1157: break;
  2693                           	goto	l3789
  2694  000DDE  EF00  F007         	
  2695                           l145:; BSR set to: 0
  2696  000DE2                     
  2697                           	line	1155
  2698                           	
  2699                           l3785:; BSR set to: 0
  2700  000DE2                     
  2701                           	incf	((printf@c))&0ffh
  2702  000DE4  2BB8               	
  2703                           l3787:; BSR set to: 0
  2704  000DE6                     
  2705                           		movlw	10
  2706  000DE6  0E0A               	xorwf	((printf@c))&0ffh,w
  2707  000DE8  19B8               	btfss	status,2
  2708  000DEA  A4D8               	goto	u4661
  2709  000DEC  EFFA  F006         	goto	u4660
  2710  000DF0  EFFD  F006         
  2711                           u4661:
  2712  000DF4                     	goto	l3781
  2713  000DF6  EFCB  F006         u4660:
  2714  000DFA                     	goto	l3789
  2715  000DFC  EF00  F007         	
  2716                           l144:; BSR set to: 0
  2717  000E00                     
  2718                           	line	1161
  2719                           	
  2720                           l3789:; BSR set to: 0
  2721  000E00                     
  2722                           ;doprnt.c: 1161: width -= prec + c + eexp;
  2723                           	movf	((printf@c))&0ffh,w
  2724  000E02  51B8               	addwf	((printf@prec))&0ffh,w
  2725  000E04  25B6               	movwf	(??_printf+0+0)&0ffh
  2726  000E06  6F9A               	movlw	0
  2727  000E08  0E00               	addwfc	((printf@prec+1))&0ffh,w
  2728  000E0A  21B7               	movwf	(??_printf+0+0+1)&0ffh
  2729  000E0C  6F9B               	movf	((printf@eexp))&0ffh,w
  2730  000E0E  51AC               	addwf	(??_printf+0+0)&0ffh
  2731  000E10  279A               	movf	((printf@eexp+1))&0ffh,w
  2732  000E12  51AD               	addwfc	(??_printf+0+1)&0ffh
  2733  000E14  239B               	movf	(??_printf+0+0)&0ffh,w
  2734  000E16  519A               	subwf	((printf@width))&0ffh
  2735  000E18  5FB0               	movf	(??_printf+0+1)&0ffh,w
  2736  000E1A  519B               	subwfb	((printf@width+1))&0ffh
  2737  000E1C  5BB1               
  2738                           	line	1166
  2739                           ;doprnt.c: 1162: if(;doprnt.c: 1166: prec)
  2740                           	movf	((printf@prec))&0ffh,w
  2741  000E1E  51B6               iorwf	((printf@prec+1))&0ffh,w
  2742  000E20  11B7               	btfsc	status,2
  2743  000E22  B4D8               	goto	u4671
  2744  000E24  EF16  F007         	goto	u4670
  2745  000E28  EF19  F007         
  2746                           u4671:
  2747  000E2C                     	goto	l3793
  2748  000E2E  EF1F  F007         u4670:
  2749  000E32                     	line	1167
  2750                           	
  2751                           l3791:; BSR set to: 0
  2752  000E34                     
  2753                           ;doprnt.c: 1167: width--;
  2754                           	decf	((printf@width))&0ffh
  2755  000E34  07B0               	btfss	status,0
  2756  000E36  A0D8               	decf	((printf@width+1))&0ffh
  2757  000E38  07B1               	goto	l3793
  2758  000E3A  EF1F  F007         	
  2759                           l146:; BSR set to: 0
  2760  000E3E                     
  2761                           	line	1168
  2762                           	
  2763                           l3793:; BSR set to: 0
  2764  000E3E                     
  2765                           ;doprnt.c: 1168: if(flag & 0x03)
  2766                           	movlw	03h
  2767  000E40  0E03               	andwf	((printf@flag))&0ffh,w
  2768  000E42  15AE               	movwf	(??_printf+0+0)&0ffh
  2769  000E44  6F9A               	movlw	0
  2770  000E46  0E00               	andwf	((printf@flag+1))&0ffh,w
  2771  000E48  15AF               	movwf	(??_printf+0+0+1)&0ffh
  2772  000E4A  6F9B               	movf	(??_printf+0+0)&0ffh,w
  2773  000E4C  519A               iorwf	(??_printf+0+1)&0ffh,w
  2774  000E4E  119B               	btfsc	status,2
  2775  000E50  B4D8               	goto	u4681
  2776  000E52  EF2D  F007         	goto	u4680
  2777  000E56  EF30  F007         
  2778                           u4681:
  2779  000E5A                     	goto	l3797
  2780  000E5C  EF36  F007         u4680:
  2781  000E60                     	line	1169
  2782                           	
  2783                           l3795:; BSR set to: 0
  2784  000E62                     
  2785                           ;doprnt.c: 1169: width--;
  2786                           	decf	((printf@width))&0ffh
  2787  000E62  07B0               	btfss	status,0
  2788  000E64  A0D8               	decf	((printf@width+1))&0ffh
  2789  000E66  07B1               	goto	l3797
  2790  000E68  EF36  F007         	
  2791                           l147:; BSR set to: 0
  2792  000E6C                     
  2793                           	line	1172
  2794                           	
  2795                           l3797:; BSR set to: 0
  2796  000E6C                     
  2797                           ;doprnt.c: 1172: if(flag & 0x04) {
  2798                           	
  2799                           	btfss	((printf@flag))&0ffh,(2)&7
  2800  000E6E  A5AE               	goto	u4691
  2801  000E70  EF3C  F007         	goto	u4690
  2802  000E74  EF3F  F007         u4691:
  2803  000E78                     	goto	l3813
  2804  000E7A  EF83  F007         u4690:
  2805  000E7E                     	line	1176
  2806                           	
  2807                           l3799:; BSR set to: 0
  2808  000E80                     
  2809                           ;doprnt.c: 1176: if(flag & 0x03)
  2810                           	movlw	03h
  2811  000E80  0E03               	andwf	((printf@flag))&0ffh,w
  2812  000E82  15AE               	movwf	(??_printf+0+0)&0ffh
  2813  000E84  6F9A               	movlw	0
  2814  000E86  0E00               	andwf	((printf@flag+1))&0ffh,w
  2815  000E88  15AF               	movwf	(??_printf+0+0+1)&0ffh
  2816  000E8A  6F9B               	movf	(??_printf+0+0)&0ffh,w
  2817  000E8C  519A               iorwf	(??_printf+0+1)&0ffh,w
  2818  000E8E  119B               	btfsc	status,2
  2819  000E90  B4D8               	goto	u4701
  2820  000E92  EF4D  F007         	goto	u4700
  2821  000E96  EF50  F007         
  2822                           u4701:
  2823  000E9A                     	goto	l3807
  2824  000E9C  EF62  F007         u4700:
  2825  000EA0                     	line	1178
  2826                           	
  2827                           l3801:; BSR set to: 0
  2828  000EA2                     
  2829                           ;doprnt.c: 1178: (putch('-') );
  2830                           	movlw	(02Dh)&0ffh
  2831  000EA2  0E2D               	
  2832                           	call	_putch
  2833  000EA4  EC1E  F01E         	goto	l3807
  2834  000EA8  EF62  F007         	
  2835                           l149:
  2836  000EAC                     	line	1187
  2837                           ;doprnt.c: 1187: while(width > 0) {
  2838                           	goto	l3807
  2839  000EAC  EF62  F007         	
  2840                           l151:
  2841  000EB0                     	line	1188
  2842                           	
  2843                           l3803:
  2844  000EB0                     ;doprnt.c: 1188: (putch('0') );
  2845                           	movlw	(030h)&0ffh
  2846  000EB2  0E30               	
  2847                           	call	_putch
  2848  000EB4  EC1E  F01E         	line	1189
  2849                           	
  2850                           l3805:
  2851  000EB8                     ;doprnt.c: 1189: width--;
  2852                           	movlb	0	; () banked
  2853  000EB8  0100               	decf	((printf@width))&0ffh
  2854  000EBA  07B0               	btfss	status,0
  2855  000EBC  A0D8               	decf	((printf@width+1))&0ffh
  2856  000EBE  07B1               	goto	l3807
  2857  000EC0  EF62  F007         	line	1190
  2858                           	
  2859                           l150:; BSR set to: 0
  2860  000EC4                     
  2861                           	line	1187
  2862                           	
  2863                           l3807:
  2864  000EC4                     	movlb	0	; () banked
  2865  000EC6  0100               	btfsc	((printf@width+1))&0ffh,7
  2866  000EC8  BFB1               	goto	u4710
  2867  000ECA  EF72  F007         	movf	((printf@width+1))&0ffh,w
  2868  000ECE  51B1               	bnz	u4711
  2869  000ED0  E106               	decf	((printf@width))&0ffh,w
  2870  000ED2  05B0               	btfsc	status,0
  2871  000ED4  B0D8               	goto	u4711
  2872  000ED6  EF6F  F007         	goto	u4710
  2873  000EDA  EF72  F007         
  2874                           u4711:
  2875  000EDE                     	goto	l3803
  2876  000EE0  EF58  F007         u4710:
  2877  000EE4                     	goto	l3825
  2878  000EE6  EFFD  F007         	
  2879                           l152:; BSR set to: 0
  2880  000EEA                     
  2881                           	line	1192
  2882                           ;doprnt.c: 1190: };doprnt.c: 1192: } else
  2883                           	goto	l3825
  2884  000EEA  EFFD  F007         	
  2885                           l148:; BSR set to: 0
  2886  000EEE                     
  2887                           	line	1199
  2888                           ;doprnt.c: 1194: {;doprnt.c: 1199: while(width > 0) {
  2889                           	goto	l3813
  2890  000EEE  EF83  F007         	
  2891                           l155:; BSR set to: 0
  2892  000EF2                     
  2893                           	line	1200
  2894                           	
  2895                           l3809:; BSR set to: 0
  2896  000EF2                     
  2897                           ;doprnt.c: 1200: (putch(' ') );
  2898                           	movlw	(020h)&0ffh
  2899  000EF4  0E20               	
  2900                           	call	_putch
  2901  000EF6  EC1E  F01E         	line	1201
  2902                           	
  2903                           l3811:
  2904  000EFA                     ;doprnt.c: 1201: width--;
  2905                           	movlb	0	; () banked
  2906  000EFA  0100               	decf	((printf@width))&0ffh
  2907  000EFC  07B0               	btfss	status,0
  2908  000EFE  A0D8               	decf	((printf@width+1))&0ffh
  2909  000F00  07B1               	goto	l3813
  2910  000F02  EF83  F007         	line	1202
  2911                           	
  2912                           l154:; BSR set to: 0
  2913  000F06                     
  2914                           	line	1199
  2915                           	
  2916                           l3813:; BSR set to: 0
  2917  000F06                     
  2918                           	btfsc	((printf@width+1))&0ffh,7
  2919  000F08  BFB1               	goto	u4720
  2920  000F0A  EF92  F007         	movf	((printf@width+1))&0ffh,w
  2921  000F0E  51B1               	bnz	u4721
  2922  000F10  E106               	decf	((printf@width))&0ffh,w
  2923  000F12  05B0               	btfsc	status,0
  2924  000F14  B0D8               	goto	u4721
  2925  000F16  EF8F  F007         	goto	u4720
  2926  000F1A  EF92  F007         
  2927                           u4721:
  2928  000F1E                     	goto	l3809
  2929  000F20  EF79  F007         u4720:
  2930  000F24                     	goto	l3815
  2931  000F26  EF95  F007         	
  2932                           l156:; BSR set to: 0
  2933  000F2A                     
  2934                           	line	1207
  2935                           	
  2936                           l3815:; BSR set to: 0
  2937  000F2A                     
  2938                           ;doprnt.c: 1202: };doprnt.c: 1207: if(flag & 0x03)
  2939                           	movlw	03h
  2940  000F2C  0E03               	andwf	((printf@flag))&0ffh,w
  2941  000F2E  15AE               	movwf	(??_printf+0+0)&0ffh
  2942  000F30  6F9A               	movlw	0
  2943  000F32  0E00               	andwf	((printf@flag+1))&0ffh,w
  2944  000F34  15AF               	movwf	(??_printf+0+0+1)&0ffh
  2945  000F36  6F9B               	movf	(??_printf+0+0)&0ffh,w
  2946  000F38  519A               iorwf	(??_printf+0+1)&0ffh,w
  2947  000F3A  119B               	btfsc	status,2
  2948  000F3C  B4D8               	goto	u4731
  2949  000F3E  EFA3  F007         	goto	u4730
  2950  000F42  EFA6  F007         
  2951                           u4731:
  2952  000F46                     	goto	l3825
  2953  000F48  EFFD  F007         u4730:
  2954  000F4C                     	line	1209
  2955                           	
  2956                           l3817:; BSR set to: 0
  2957  000F4E                     
  2958                           ;doprnt.c: 1209: (putch('-') );
  2959                           	movlw	(02Dh)&0ffh
  2960  000F4E  0E2D               	
  2961                           	call	_putch
  2962  000F50  EC1E  F01E         	goto	l3825
  2963  000F54  EFFD  F007         	
  2964                           l157:
  2965  000F58                     	goto	l3825
  2966  000F58  EFFD  F007         	line	1214
  2967                           	
  2968                           l153:
  2969  000F5C                     	line	1215
  2970                           ;doprnt.c: 1214: };doprnt.c: 1215: while(c--) {
  2971                           	goto	l3825
  2972  000F5C  EFFD  F007         	
  2973                           l159:
  2974  000F60                     	line	1220
  2975                           	
  2976                           l3819:
  2977  000F60                     ;doprnt.c: 1219: {;doprnt.c: 1220: tmpval.vd = val/dpowers[c];
  2978                           	movff	(printf@val),(c:___lldiv@dividend)
  2979  000F62  C0A4  F01F         	movff	(printf@val+1),(c:___lldiv@dividend+1)
  2980  000F66  C0A5  F020         	movff	(printf@val+2),(c:___lldiv@dividend+2)
  2981  000F6A  C0A6  F021         	movff	(printf@val+3),(c:___lldiv@dividend+3)
  2982  000F6E  C0A7  F022         	movlb	0	; () banked
  2983  000F72  0100               	movf	((printf@c))&0ffh,w
  2984  000F74  51B8               	mullw	04h
  2985  000F76  0D04               	movlw	low((_dpowers))
  2986  000F78  0E69               	addwf	(prodl),c,w
  2987  000F7A  24F3               	movwf	tblptrl
  2988  000F7C  6EF6               	movlw	high((_dpowers))
  2989  000F7E  0E06               	addwfc	(prodh),c,w
  2990  000F80  20F4               	movwf	tblptrh
  2991  000F82  6EF7               	if	0	;There are less than 3 active tblptr bytes
  2992  000F84                     	clrf	tblptru
  2994                           	global __mediumconst
  2997  000F84                     	tblrd*+
  2998  000F84  0009               		dw	0FFFFh; errata NOP
  2999  000F86  FFFF               
  3000                           	movff	tablat,(c:___lldiv@divisor)
  3001  000F88  CFF5 F023          	tblrd*+
  3002  000F8C  0009               		dw	0FFFFh; errata NOP
  3003  000F8E  FFFF               
  3004                           	movff	tablat,(c:___lldiv@divisor+1)
  3005  000F90  CFF5 F024          	tblrd*+
  3006  000F94  0009               		dw	0FFFFh; errata NOP
  3007  000F96  FFFF               
  3008                           	movff	tablat,(c:___lldiv@divisor+2)
  3009  000F98  CFF5 F025          	tblrd*-
  3010  000F9C  000A               		dw	0FFFFh; errata NOP
  3011  000F9E  FFFF               
  3012                           	movff	tablat,(c:___lldiv@divisor+3)
  3013  000FA0  CFF5 F026          	call	___lldiv	;wreg free
  3014  000FA4  EC66  F01B         	movff	0+?___lldiv,(printf@tmpval)
  3015  000FA8  C01F  F0A8         	movff	1+?___lldiv,(printf@tmpval+1)
  3016  000FAC  C020  F0A9         	movff	2+?___lldiv,(printf@tmpval+2)
  3017  000FB0  C021  F0AA         	movff	3+?___lldiv,(printf@tmpval+3)
  3018  000FB4  C022  F0AB         	
  3019                           	line	1221
  3020                           	
  3021                           l3821:
  3022  000FB8                     ;doprnt.c: 1221: tmpval.vd %= 10;
  3023                           	movff	(printf@tmpval),(c:___llmod@dividend)
  3024  000FB8  C0A8  F01F         	movff	(printf@tmpval+1),(c:___llmod@dividend+1)
  3025  000FBC  C0A9  F020         	movff	(printf@tmpval+2),(c:___llmod@dividend+2)
  3026  000FC0  C0AA  F021         	movff	(printf@tmpval+3),(c:___llmod@dividend+3)
  3027  000FC4  C0AB  F022         	movlw	low(0Ah)
  3028  000FC8  0E0A               	movwf	((c:___llmod@divisor)),c
  3029  000FCA  6E23               	movlw	high(0Ah)
  3030  000FCC  0E00               	movwf	((c:___llmod@divisor+1)),c
  3031  000FCE  6E24               	movlw	low highword(0Ah)
  3032  000FD0  0E00               	movwf	((c:___llmod@divisor+2)),c
  3033  000FD2  6E25               	movlw	high highword(0Ah)
  3034  000FD4  0E00               	movwf	((c:___llmod@divisor+3)),c
  3035  000FD6  6E26               	call	___llmod	;wreg free
  3036  000FD8  EC38  F01C         	movff	0+?___llmod,(printf@tmpval)
  3037  000FDC  C01F  F0A8         	movff	1+?___llmod,(printf@tmpval+1)
  3038  000FE0  C020  F0A9         	movff	2+?___llmod,(printf@tmpval+2)
  3039  000FE4  C021  F0AA         	movff	3+?___llmod,(printf@tmpval+3)
  3040  000FE8  C022  F0AB         	
  3041                           	line	1222
  3042                           	
  3043                           l3823:
  3044  000FEC                     ;doprnt.c: 1222: (putch('0' + tmpval.vd) );
  3045                           	movlb	0	; () banked
  3046  000FEC  0100               	movf	((printf@tmpval))&0ffh,w
  3047  000FEE  51A8               	addlw	low(030h)
  3048  000FF0  0F30               	
  3049                           	call	_putch
  3050  000FF2  EC1E  F01E         	goto	l3825
  3051  000FF6  EFFD  F007         	line	1225
  3052                           	
  3053                           l158:
  3054  000FFA                     	line	1215
  3055                           	
  3056                           l3825:
  3057  000FFA                     	movlb	0	; () banked
  3058  000FFC  0100               	decf	((printf@c))&0ffh
  3059  000FFE  07B8               		incf	((printf@c))&0ffh,w
  3060  001000  29B8               	btfss	status,2
  3061  001002  A4D8               	goto	u4741
  3062  001004  EF06  F008         	goto	u4740
  3063  001008  EF09  F008         
  3064                           u4741:
  3065  00100C                     	goto	l3819
  3066  00100E  EFB0  F007         u4740:
  3067  001012                     	goto	l3831
  3068  001014  EF18  F008         	
  3069                           l160:; BSR set to: 0
  3070  001018                     
  3071                           	line	1226
  3072                           ;doprnt.c: 1223: };doprnt.c: 1225: };doprnt.c: 1226: while(eexp > 0) {
  3073                           	goto	l3831
  3074  001018  EF18  F008         	
  3075                           l162:; BSR set to: 0
  3076  00101C                     
  3077                           	line	1227
  3078                           	
  3079                           l3827:; BSR set to: 0
  3080  00101C                     
  3081                           ;doprnt.c: 1227: (putch('0') );
  3082                           	movlw	(030h)&0ffh
  3083  00101E  0E30               	
  3084                           	call	_putch
  3085  001020  EC1E  F01E         	line	1228
  3086                           	
  3087                           l3829:
  3088  001024                     ;doprnt.c: 1228: eexp--;
  3089                           	movlb	0	; () banked
  3090  001024  0100               	decf	((printf@eexp))&0ffh
  3091  001026  07AC               	btfss	status,0
  3092  001028  A0D8               	decf	((printf@eexp+1))&0ffh
  3093  00102A  07AD               	goto	l3831
  3094  00102C  EF18  F008         	line	1229
  3095                           	
  3096                           l161:; BSR set to: 0
  3097  001030                     
  3098                           	line	1226
  3099                           	
  3100                           l3831:; BSR set to: 0
  3101  001030                     
  3102                           	btfsc	((printf@eexp+1))&0ffh,7
  3103  001032  BFAD               	goto	u4750
  3104  001034  EF27  F008         	movf	((printf@eexp+1))&0ffh,w
  3105  001038  51AD               	bnz	u4751
  3106  00103A  E106               	decf	((printf@eexp))&0ffh,w
  3107  00103C  05AC               	btfsc	status,0
  3108  00103E  B0D8               	goto	u4751
  3109  001040  EF24  F008         	goto	u4750
  3110  001044  EF27  F008         
  3111                           u4751:
  3112  001048                     	goto	l3827
  3113  00104A  EF0E  F008         u4750:
  3114  00104E                     	goto	l3833
  3115  001050  EF2A  F008         	
  3116                           l163:; BSR set to: 0
  3117  001054                     
  3118                           	line	1230
  3119                           	
  3120                           l3833:; BSR set to: 0
  3121  001054                     
  3122                           ;doprnt.c: 1229: };doprnt.c: 1230: if(prec > (int)((sizeof dpowers/sizeof dpowers[0])-2)
                                 )
  3123                           	btfsc	((printf@prec+1))&0ffh,7
  3124  001056  BFB7               	goto	u4761
  3125  001058  EF37  F008         	movf	((printf@prec+1))&0ffh,w
  3126  00105C  51B7               	bnz	u4760
  3127  00105E  E10A               	movlw	9
  3128  001060  0E09               	subwf	 ((printf@prec))&0ffh,w
  3129  001062  5DB6               	btfss	status,0
  3130  001064  A0D8               	goto	u4761
  3131  001066  EF37  F008         	goto	u4760
  3132  00106A  EF3A  F008         
  3133                           u4761:
  3134  00106E                     	goto	l164
  3135  001070  EF3F  F008         u4760:
  3136  001074                     	line	1231
  3137                           	
  3138                           l3835:; BSR set to: 0
  3139  001076                     
  3140                           ;doprnt.c: 1231: c = (sizeof dpowers/sizeof dpowers[0])-2;
  3141                           	movlw	low(08h)
  3142  001076  0E08               	movwf	((printf@c))&0ffh
  3143  001078  6FB8               	goto	l3837
  3144  00107A  EF44  F008         	line	1232
  3145                           	
  3146                           l164:; BSR set to: 0
  3147  00107E                     
  3148                           	line	1233
  3149                           ;doprnt.c: 1232: else;doprnt.c: 1233: c = (char)prec;
  3150                           	movff	(printf@prec),(printf@c)
  3151  001080  C0B6  F0B8         	goto	l3837
  3152  001084  EF44  F008         	
  3153                           l165:; BSR set to: 0
  3154  001088                     
  3155                           	line	1234
  3156                           	
  3157                           l3837:; BSR set to: 0
  3158  001088                     
  3159                           ;doprnt.c: 1234: prec -= (int)c;
  3160                           	movf	((printf@c))&0ffh,w
  3161  00108A  51B8               	subwf	((printf@prec))&0ffh
  3162  00108C  5FB6               	movlw	0
  3163  00108E  0E00               	subwfb	((printf@prec+1))&0ffh
  3164  001090  5BB7               	line	1238
  3165                           	
  3166                           l3839:; BSR set to: 0
  3167  001092                     
  3168                           ;doprnt.c: 1238: if(c)
  3169                           	movf	((printf@c))&0ffh,w
  3170  001092  51B8               	btfsc	status,2
  3171  001094  B4D8               	goto	u4771
  3172  001096  EF4F  F008         	goto	u4770
  3173  00109A  EF52  F008         u4771:
  3174  00109E                     	goto	l3843
  3175  0010A0  EF58  F008         u4770:
  3176  0010A4                     	line	1240
  3177                           	
  3178                           l3841:; BSR set to: 0
  3179  0010A6                     
  3180                           ;doprnt.c: 1240: (putch('.') );
  3181                           	movlw	(02Eh)&0ffh
  3182  0010A6  0E2E               	
  3183                           	call	_putch
  3184  0010A8  EC1E  F01E         	goto	l3843
  3185  0010AC  EF58  F008         	
  3186                           l166:
  3187  0010B0                     	line	1246
  3188                           	
  3189                           l3843:
  3190  0010B0                     ;doprnt.c: 1246: val = (unsigned long)(fval * scale((signed char)c));
  3191                           	movlb	0	; () banked
  3192  0010B2  0100               	movf	((printf@c))&0ffh,w
  3193  0010B4  51B8               	
  3194                           	call	_scale
  3195  0010B6  EC41  F010         	movff	0+?_scale,(_printf$1186)
  3196  0010BA  C046  F09E         	movff	1+?_scale,(_printf$1186+1)
  3197  0010BE  C047  F09F         	movff	2+?_scale,(_printf$1186+2)
  3198  0010C2  C048  F0A0         	movff	3+?_scale,(_printf$1186+3)
  3199  0010C6  C049  F0A1         	
  3200                           	
  3201                           l3845:
  3202  0010CA                     ;doprnt.c: 1246: val = (unsigned long)(fval * scale((signed char)c));
  3203                           	movff	(printf@fval),(c:___flmul@a)
  3204  0010CA  C0B2  F031         	movff	(printf@fval+1),(c:___flmul@a+1)
  3205  0010CE  C0B3  F032         	movff	(printf@fval+2),(c:___flmul@a+2)
  3206  0010D2  C0B4  F033         	movff	(printf@fval+3),(c:___flmul@a+3)
  3207  0010D6  C0B5  F034         	movff	(_printf$1186),(c:___flmul@b)
  3208  0010DA  C09E  F02D         	movff	(_printf$1186+1),(c:___flmul@b+1)
  3209  0010DE  C09F  F02E         	movff	(_printf$1186+2),(c:___flmul@b+2)
  3210  0010E2  C0A0  F02F         	movff	(_printf$1186+3),(c:___flmul@b+3)
  3211  0010E6  C0A1  F030         	call	___flmul	;wreg free
  3212  0010EA  ECCC  F00D         	movff	0+?___flmul,(c:___fltol@f1)
  3213  0010EE  C02D  F04F         	movff	1+?___flmul,(c:___fltol@f1+1)
  3214  0010F2  C02E  F050         	movff	2+?___flmul,(c:___fltol@f1+2)
  3215  0010F6  C02F  F051         	movff	3+?___flmul,(c:___fltol@f1+3)
  3216  0010FA  C030  F052         	
  3217                           	call	___fltol	;wreg free
  3218  0010FE  ECE4  F018         	movff	0+?___fltol,(printf@val)
  3219  001102  C04F  F0A4         	movff	1+?___fltol,(printf@val+1)
  3220  001106  C050  F0A5         	movff	2+?___fltol,(printf@val+2)
  3221  00110A  C051  F0A6         	movff	3+?___fltol,(printf@val+3)
  3222  00110E  C052  F0A7         	
  3223                           	line	1247
  3224                           ;doprnt.c: 1247: while(c--) {
  3225                           	goto	l3853
  3226  001112  EF03  F009         	
  3227                           l168:
  3228  001116                     	line	1248
  3229                           	
  3230                           l3847:
  3231  001116                     ;doprnt.c: 1248: tmpval.vd = val/dpowers[c];
  3232                           	movff	(printf@val),(c:___lldiv@dividend)
  3233  001118  C0A4  F01F         	movff	(printf@val+1),(c:___lldiv@dividend+1)
  3234  00111C  C0A5  F020         	movff	(printf@val+2),(c:___lldiv@dividend+2)
  3235  001120  C0A6  F021         	movff	(printf@val+3),(c:___lldiv@dividend+3)
  3236  001124  C0A7  F022         	movlb	0	; () banked
  3237  001128  0100               	movf	((printf@c))&0ffh,w
  3238  00112A  51B8               	mullw	04h
  3239  00112C  0D04               	movlw	low((_dpowers))
  3240  00112E  0E69               	addwf	(prodl),c,w
  3241  001130  24F3               	movwf	tblptrl
  3242  001132  6EF6               	movlw	high((_dpowers))
  3243  001134  0E06               	addwfc	(prodh),c,w
  3244  001136  20F4               	movwf	tblptrh
  3245  001138  6EF7               	if	0	;There are less than 3 active tblptr bytes
  3246  00113A                     	clrf	tblptru
  3248                           	global __mediumconst
  3251  00113A                     	tblrd*+
  3252  00113A  0009               		dw	0FFFFh; errata NOP
  3253  00113C  FFFF               
  3254                           	movff	tablat,(c:___lldiv@divisor)
  3255  00113E  CFF5 F023          	tblrd*+
  3256  001142  0009               		dw	0FFFFh; errata NOP
  3257  001144  FFFF               
  3258                           	movff	tablat,(c:___lldiv@divisor+1)
  3259  001146  CFF5 F024          	tblrd*+
  3260  00114A  0009               		dw	0FFFFh; errata NOP
  3261  00114C  FFFF               
  3262                           	movff	tablat,(c:___lldiv@divisor+2)
  3263  00114E  CFF5 F025          	tblrd*-
  3264  001152  000A               		dw	0FFFFh; errata NOP
  3265  001154  FFFF               
  3266                           	movff	tablat,(c:___lldiv@divisor+3)
  3267  001156  CFF5 F026          	call	___lldiv	;wreg free
  3268  00115A  EC66  F01B         	movff	0+?___lldiv,(printf@tmpval)
  3269  00115E  C01F  F0A8         	movff	1+?___lldiv,(printf@tmpval+1)
  3270  001162  C020  F0A9         	movff	2+?___lldiv,(printf@tmpval+2)
  3271  001166  C021  F0AA         	movff	3+?___lldiv,(printf@tmpval+3)
  3272  00116A  C022  F0AB         	
  3273                           	line	1249
  3274                           	
  3275                           l3849:
  3276  00116E                     ;doprnt.c: 1249: tmpval.vd %= 10;
  3277                           	movff	(printf@tmpval),(c:___llmod@dividend)
  3278  00116E  C0A8  F01F         	movff	(printf@tmpval+1),(c:___llmod@dividend+1)
  3279  001172  C0A9  F020         	movff	(printf@tmpval+2),(c:___llmod@dividend+2)
  3280  001176  C0AA  F021         	movff	(printf@tmpval+3),(c:___llmod@dividend+3)
  3281  00117A  C0AB  F022         	movlw	low(0Ah)
  3282  00117E  0E0A               	movwf	((c:___llmod@divisor)),c
  3283  001180  6E23               	movlw	high(0Ah)
  3284  001182  0E00               	movwf	((c:___llmod@divisor+1)),c
  3285  001184  6E24               	movlw	low highword(0Ah)
  3286  001186  0E00               	movwf	((c:___llmod@divisor+2)),c
  3287  001188  6E25               	movlw	high highword(0Ah)
  3288  00118A  0E00               	movwf	((c:___llmod@divisor+3)),c
  3289  00118C  6E26               	call	___llmod	;wreg free
  3290  00118E  EC38  F01C         	movff	0+?___llmod,(printf@tmpval)
  3291  001192  C01F  F0A8         	movff	1+?___llmod,(printf@tmpval+1)
  3292  001196  C020  F0A9         	movff	2+?___llmod,(printf@tmpval+2)
  3293  00119A  C021  F0AA         	movff	3+?___llmod,(printf@tmpval+3)
  3294  00119E  C022  F0AB         	
  3295                           	line	1250
  3296                           	
  3297                           l3851:
  3298  0011A2                     ;doprnt.c: 1250: (putch('0' + tmpval.vd) );
  3299                           	movlb	0	; () banked
  3300  0011A2  0100               	movf	((printf@tmpval))&0ffh,w
  3301  0011A4  51A8               	addlw	low(030h)
  3302  0011A6  0F30               	
  3303                           	call	_putch
  3304  0011A8  EC1E  F01E         	line	1251
  3305                           ;doprnt.c: 1251: val %= dpowers[c];
  3306                           	movff	(printf@val),(c:___llmod@dividend)
  3307  0011AC  C0A4  F01F         	movff	(printf@val+1),(c:___llmod@dividend+1)
  3308  0011B0  C0A5  F020         	movff	(printf@val+2),(c:___llmod@dividend+2)
  3309  0011B4  C0A6  F021         	movff	(printf@val+3),(c:___llmod@dividend+3)
  3310  0011B8  C0A7  F022         	movlb	0	; () banked
  3311  0011BC  0100               	movf	((printf@c))&0ffh,w
  3312  0011BE  51B8               	mullw	04h
  3313  0011C0  0D04               	movlw	low((_dpowers))
  3314  0011C2  0E69               	addwf	(prodl),c,w
  3315  0011C4  24F3               	movwf	tblptrl
  3316  0011C6  6EF6               	movlw	high((_dpowers))
  3317  0011C8  0E06               	addwfc	(prodh),c,w
  3318  0011CA  20F4               	movwf	tblptrh
  3319  0011CC  6EF7               	if	0	;There are less than 3 active tblptr bytes
  3320  0011CE                     	clrf	tblptru
  3322                           	global __mediumconst
  3325  0011CE                     	tblrd*+
  3326  0011CE  0009               		dw	0FFFFh; errata NOP
  3327  0011D0  FFFF               
  3328                           	movff	tablat,(c:___llmod@divisor)
  3329  0011D2  CFF5 F023          	tblrd*+
  3330  0011D6  0009               		dw	0FFFFh; errata NOP
  3331  0011D8  FFFF               
  3332                           	movff	tablat,(c:___llmod@divisor+1)
  3333  0011DA  CFF5 F024          	tblrd*+
  3334  0011DE  0009               		dw	0FFFFh; errata NOP
  3335  0011E0  FFFF               
  3336                           	movff	tablat,(c:___llmod@divisor+2)
  3337  0011E2  CFF5 F025          	tblrd*-
  3338  0011E6  000A               		dw	0FFFFh; errata NOP
  3339  0011E8  FFFF               
  3340                           	movff	tablat,(c:___llmod@divisor+3)
  3341  0011EA  CFF5 F026          	call	___llmod	;wreg free
  3342  0011EE  EC38  F01C         	movff	0+?___llmod,(printf@val)
  3343  0011F2  C01F  F0A4         	movff	1+?___llmod,(printf@val+1)
  3344  0011F6  C020  F0A5         	movff	2+?___llmod,(printf@val+2)
  3345  0011FA  C021  F0A6         	movff	3+?___llmod,(printf@val+3)
  3346  0011FE  C022  F0A7         	
  3347                           	goto	l3853
  3348  001202  EF03  F009         	line	1252
  3349                           	
  3350                           l167:
  3351  001206                     	line	1247
  3352                           	
  3353                           l3853:
  3354  001206                     	movlb	0	; () banked
  3355  001208  0100               	decf	((printf@c))&0ffh
  3356  00120A  07B8               		incf	((printf@c))&0ffh,w
  3357  00120C  29B8               	btfss	status,2
  3358  00120E  A4D8               	goto	u4781
  3359  001210  EF0C  F009         	goto	u4780
  3360  001214  EF0F  F009         
  3361                           u4781:
  3362  001218                     	goto	l3847
  3363  00121A  EF8B  F008         u4780:
  3364  00121E                     	goto	l3859
  3365  001220  EF1E  F009         	
  3366                           l169:; BSR set to: 0
  3367  001224                     
  3368                           	line	1254
  3369                           ;doprnt.c: 1252: };doprnt.c: 1254: while(prec) {
  3370                           	goto	l3859
  3371  001224  EF1E  F009         	
  3372                           l171:; BSR set to: 0
  3373  001228                     
  3374                           	line	1255
  3375                           	
  3376                           l3855:; BSR set to: 0
  3377  001228                     
  3378                           ;doprnt.c: 1255: (putch('0') );
  3379                           	movlw	(030h)&0ffh
  3380  00122A  0E30               	
  3381                           	call	_putch
  3382  00122C  EC1E  F01E         	line	1256
  3383                           	
  3384                           l3857:
  3385  001230                     ;doprnt.c: 1256: prec--;
  3386                           	movlb	0	; () banked
  3387  001230  0100               	decf	((printf@prec))&0ffh
  3388  001232  07B6               	btfss	status,0
  3389  001234  A0D8               	decf	((printf@prec+1))&0ffh
  3390  001236  07B7               	goto	l3859
  3391  001238  EF1E  F009         	line	1257
  3392                           	
  3393                           l170:; BSR set to: 0
  3394  00123C                     
  3395                           	line	1254
  3396                           	
  3397                           l3859:; BSR set to: 0
  3398  00123C                     
  3399                           	movf	((printf@prec))&0ffh,w
  3400  00123E  51B6               iorwf	((printf@prec+1))&0ffh,w
  3401  001240  11B7               	btfss	status,2
  3402  001242  A4D8               	goto	u4791
  3403  001244  EF26  F009         	goto	u4790
  3404  001248  EF29  F009         
  3405                           u4791:
  3406  00124C                     	goto	l3855
  3407  00124E  EF14  F009         u4790:
  3408  001252                     	goto	l3917
  3409  001254  EF76  F00A         	
  3410                           l172:; BSR set to: 0
  3411  001258                     
  3412                           	line	1264
  3413                           ;doprnt.c: 1257: };doprnt.c: 1264: continue;
  3414                           	goto	l3917
  3415  001258  EF76  F00A         	line	1265
  3416                           	
  3417                           l124:; BSR set to: 0
  3418  00125C                     
  3419                           	line	1309
  3420                           	
  3421                           l3861:; BSR set to: 0
  3422  00125C                     
  3423                           ;doprnt.c: 1265: };doprnt.c: 1309: if(prec == 0 && val == 0)
  3424                           	movf	((printf@prec))&0ffh,w
  3425  00125E  51B6               iorwf	((printf@prec+1))&0ffh,w
  3426  001260  11B7               	btfss	status,2
  3427  001262  A4D8               	goto	u4801
  3428  001264  EF36  F009         	goto	u4800
  3429  001268  EF39  F009         
  3430                           u4801:
  3431  00126C                     	goto	l3867
  3432  00126E  EF4B  F009         u4800:
  3433  001272                     	
  3434                           l3863:; BSR set to: 0
  3435  001274                     
  3436                           	movf	((printf@val))&0ffh,w
  3437  001274  51A4               iorwf	((printf@val+1))&0ffh,w
  3438  001276  11A5               iorwf	((printf@val+2))&0ffh,w
  3439  001278  11A6               iorwf	((printf@val+3))&0ffh,w
  3440  00127A  11A7               	btfss	status,2
  3441  00127C  A4D8               	goto	u4811
  3442  00127E  EF43  F009         	goto	u4810
  3443  001282  EF46  F009         
  3444                           u4811:
  3445  001286                     	goto	l3867
  3446  001288  EF4B  F009         u4810:
  3447  00128C                     	line	1310
  3448                           	
  3449                           l3865:; BSR set to: 0
  3450  00128E                     
  3451                           ;doprnt.c: 1310: prec++;
  3452                           	infsnz	((printf@prec))&0ffh
  3453  00128E  4BB6               	incf	((printf@prec+1))&0ffh
  3454  001290  2BB7               	goto	l3867
  3455  001292  EF4B  F009         	
  3456                           l173:; BSR set to: 0
  3457  001296                     
  3458                           	line	1358
  3459                           	
  3460                           l3867:; BSR set to: 0
  3461  001296                     
  3462                           ;doprnt.c: 1358: if(c < prec)
  3463                           	movf	((printf@c))&0ffh,w
  3464  001298  51B8               	movwf	(??_printf+0+0)&0ffh
  3465  00129A  6F9A               	clrf	(??_printf+0+0+1)&0ffh
  3466  00129C  6B9B               
  3467                           		movf	((printf@prec))&0ffh,w
  3468  00129E  51B6               	subwf	(??_printf+0+0)&0ffh,w
  3469  0012A0  5D9A               	movf	(??_printf+0+1)&0ffh,w
  3470  0012A2  519B               	xorlw	80h
  3471  0012A4  0A80               	movwf	(??_printf+2+0)&0ffh
  3472  0012A6  6F9C               	movf	((printf@prec+1))&0ffh,w
  3473  0012A8  51B7               	xorlw	80h
  3474  0012AA  0A80               	subwfb	(??_printf+2+0)&0ffh,w
  3475  0012AC  599C               	btfsc	status,0
  3476  0012AE  B0D8               	goto	u4821
  3477  0012B0  EF5C  F009         	goto	u4820
  3478  0012B4  EF5F  F009         
  3479                           u4821:
  3480  0012B8                     	goto	l3871
  3481  0012BA  EF64  F009         u4820:
  3482  0012BE                     	line	1359
  3483                           	
  3484                           l3869:; BSR set to: 0
  3485  0012C0                     
  3486                           ;doprnt.c: 1359: c = prec;
  3487                           	movff	(printf@prec),(printf@c)
  3488  0012C0  C0B6  F0B8         	goto	l3875
  3489  0012C4  EF80  F009         	line	1360
  3490                           	
  3491                           l174:; BSR set to: 0
  3492  0012C8                     
  3493                           	
  3494                           l3871:; BSR set to: 0
  3495  0012C8                     
  3496                           ;doprnt.c: 1360: else if(prec < c)
  3497                           	movf	((printf@c))&0ffh,w
  3498  0012CA  51B8               	movwf	(??_printf+0+0)&0ffh
  3499  0012CC  6F9A               	clrf	(??_printf+0+0+1)&0ffh
  3500  0012CE  6B9B               
  3501                           		movf	(??_printf+0+0)&0ffh,w
  3502  0012D0  519A               	subwf	((printf@prec))&0ffh,w
  3503  0012D2  5DB6               	movf	((printf@prec+1))&0ffh,w
  3504  0012D4  51B7               	xorlw	80h
  3505  0012D6  0A80               	movwf	(??_printf+2+0)&0ffh
  3506  0012D8  6F9C               	movf	(??_printf+0+1)&0ffh,w
  3507  0012DA  519B               	xorlw	80h
  3508  0012DC  0A80               	subwfb	(??_printf+2+0)&0ffh,w
  3509  0012DE  599C               	btfsc	status,0
  3510  0012E0  B0D8               	goto	u4831
  3511  0012E2  EF75  F009         	goto	u4830
  3512  0012E6  EF78  F009         
  3513                           u4831:
  3514  0012EA                     	goto	l3875
  3515  0012EC  EF80  F009         u4830:
  3516  0012F0                     	line	1361
  3517                           	
  3518                           l3873:; BSR set to: 0
  3519  0012F2                     
  3520                           ;doprnt.c: 1361: prec = c;
  3521                           	movff	(printf@c),(printf@prec)
  3522  0012F2  C0B8  F0B6         	clrf	((printf@prec+1))&0ffh
  3523  0012F6  6BB7               	goto	l3875
  3524  0012F8  EF80  F009         	
  3525                           l176:; BSR set to: 0
  3526  0012FC                     
  3527                           	goto	l3875
  3528  0012FC  EF80  F009         	line	1364
  3529                           	
  3530                           l175:; BSR set to: 0
  3531  001300                     
  3532                           	
  3533                           l3875:; BSR set to: 0
  3534  001300                     
  3535                           ;doprnt.c: 1364: if(width && flag & 0x03)
  3536                           	movf	((printf@width))&0ffh,w
  3537  001302  51B0               iorwf	((printf@width+1))&0ffh,w
  3538  001304  11B1               	btfsc	status,2
  3539  001306  B4D8               	goto	u4841
  3540  001308  EF88  F009         	goto	u4840
  3541  00130C  EF8B  F009         
  3542                           u4841:
  3543  001310                     	goto	l3881
  3544  001312  EFA2  F009         u4840:
  3545  001316                     	
  3546                           l3877:; BSR set to: 0
  3547  001318                     
  3548                           	movlw	03h
  3549  001318  0E03               	andwf	((printf@flag))&0ffh,w
  3550  00131A  15AE               	movwf	(??_printf+0+0)&0ffh
  3551  00131C  6F9A               	movlw	0
  3552  00131E  0E00               	andwf	((printf@flag+1))&0ffh,w
  3553  001320  15AF               	movwf	(??_printf+0+0+1)&0ffh
  3554  001322  6F9B               	movf	(??_printf+0+0)&0ffh,w
  3555  001324  519A               iorwf	(??_printf+0+1)&0ffh,w
  3556  001326  119B               	btfsc	status,2
  3557  001328  B4D8               	goto	u4851
  3558  00132A  EF99  F009         	goto	u4850
  3559  00132E  EF9C  F009         
  3560                           u4851:
  3561  001332                     	goto	l3881
  3562  001334  EFA2  F009         u4850:
  3563  001338                     	line	1365
  3564                           	
  3565                           l3879:; BSR set to: 0
  3566  00133A                     
  3567                           ;doprnt.c: 1365: width--;
  3568                           	decf	((printf@width))&0ffh
  3569  00133A  07B0               	btfss	status,0
  3570  00133C  A0D8               	decf	((printf@width+1))&0ffh
  3571  00133E  07B1               	goto	l3881
  3572  001340  EFA2  F009         	
  3573                           l177:; BSR set to: 0
  3574  001344                     
  3575                           	line	1367
  3576                           	
  3577                           l3881:; BSR set to: 0
  3578  001344                     
  3579                           ;doprnt.c: 1367: if(flag & 0x4000) {
  3580                           	
  3581                           	btfss	((printf@flag+1))&0ffh,(14)&7
  3582  001346  ADAF               	goto	u4861
  3583  001348  EFA8  F009         	goto	u4860
  3584  00134C  EFAB  F009         u4861:
  3585  001350                     	goto	l3889
  3586  001352  EFCC  F009         u4860:
  3587  001356                     	line	1368
  3588                           	
  3589                           l3883:; BSR set to: 0
  3590  001358                     
  3591                           ;doprnt.c: 1368: if(width > prec)
  3592                           		movf	((printf@width))&0ffh,w
  3593  001358  51B0               	subwf	((printf@prec))&0ffh,w
  3594  00135A  5DB6               	movf	((printf@prec+1))&0ffh,w
  3595  00135C  51B7               	xorlw	80h
  3596  00135E  0A80               	movwf	(??_printf+0+0)&0ffh
  3597  001360  6F9A               	movf	((printf@width+1))&0ffh,w
  3598  001362  51B1               	xorlw	80h
  3599  001364  0A80               	subwfb	(??_printf+0+0)&0ffh,w
  3600  001366  599A               	btfsc	status,0
  3601  001368  B0D8               	goto	u4871
  3602  00136A  EFB9  F009         	goto	u4870
  3603  00136E  EFBC  F009         
  3604                           u4871:
  3605  001372                     	goto	l3887
  3606  001374  EFC3  F009         u4870:
  3607  001378                     	line	1369
  3608                           	
  3609                           l3885:; BSR set to: 0
  3610  00137A                     
  3611                           ;doprnt.c: 1369: width -= prec;
  3612                           	movf	((printf@prec))&0ffh,w
  3613  00137A  51B6               	subwf	((printf@width))&0ffh
  3614  00137C  5FB0               	movf	((printf@prec+1))&0ffh,w
  3615  00137E  51B7               	subwfb	((printf@width+1))&0ffh
  3616  001380  5BB1               
  3617                           	goto	l3889
  3618  001382  EFCC  F009         	line	1370
  3619                           	
  3620                           l179:; BSR set to: 0
  3621  001386                     
  3622                           	line	1371
  3623                           	
  3624                           l3887:; BSR set to: 0
  3625  001386                     
  3626                           ;doprnt.c: 1370: else;doprnt.c: 1371: width = 0;
  3627                           	movlw	high(0)
  3628  001388  0E00               	movwf	((printf@width+1))&0ffh
  3629  00138A  6FB1               	movlw	low(0)
  3630  00138C  0E00               	movwf	((printf@width))&0ffh
  3631  00138E  6FB0               	goto	l3889
  3632  001390  EFCC  F009         	
  3633                           l180:; BSR set to: 0
  3634  001394                     
  3635                           	goto	l3889
  3636  001394  EFCC  F009         	line	1372
  3637                           	
  3638                           l178:; BSR set to: 0
  3639  001398                     
  3640                           	line	1400
  3641                           	
  3642                           l3889:; BSR set to: 0
  3643  001398                     
  3644                           ;doprnt.c: 1372: };doprnt.c: 1400: if(width > c)
  3645                           	movf	((printf@c))&0ffh,w
  3646  00139A  51B8               	movwf	(??_printf+0+0)&0ffh
  3647  00139C  6F9A               	clrf	(??_printf+0+0+1)&0ffh
  3648  00139E  6B9B               
  3649                           		movf	((printf@width))&0ffh,w
  3650  0013A0  51B0               	subwf	(??_printf+0+0)&0ffh,w
  3651  0013A2  5D9A               	movf	(??_printf+0+1)&0ffh,w
  3652  0013A4  519B               	xorlw	80h
  3653  0013A6  0A80               	movwf	(??_printf+2+0)&0ffh
  3654  0013A8  6F9C               	movf	((printf@width+1))&0ffh,w
  3655  0013AA  51B1               	xorlw	80h
  3656  0013AC  0A80               	subwfb	(??_printf+2+0)&0ffh,w
  3657  0013AE  599C               	btfsc	status,0
  3658  0013B0  B0D8               	goto	u4881
  3659  0013B2  EFDD  F009         	goto	u4880
  3660  0013B6  EFE0  F009         
  3661                           u4881:
  3662  0013BA                     	goto	l3893
  3663  0013BC  EFE7  F009         u4880:
  3664  0013C0                     	line	1401
  3665                           	
  3666                           l3891:; BSR set to: 0
  3667  0013C2                     
  3668                           ;doprnt.c: 1401: width -= c;
  3669                           	movf	((printf@c))&0ffh,w
  3670  0013C2  51B8               	subwf	((printf@width))&0ffh
  3671  0013C4  5FB0               	movlw	0
  3672  0013C6  0E00               	subwfb	((printf@width+1))&0ffh
  3673  0013C8  5BB1               	goto	l3895
  3674  0013CA  EFEE  F009         	line	1402
  3675                           	
  3676                           l181:; BSR set to: 0
  3677  0013CE                     
  3678                           	line	1403
  3679                           	
  3680                           l3893:; BSR set to: 0
  3681  0013CE                     
  3682                           ;doprnt.c: 1402: else;doprnt.c: 1403: width = 0;
  3683                           	movlw	high(0)
  3684  0013D0  0E00               	movwf	((printf@width+1))&0ffh
  3685  0013D2  6FB1               	movlw	low(0)
  3686  0013D4  0E00               	movwf	((printf@width))&0ffh
  3687  0013D6  6FB0               	goto	l3895
  3688  0013D8  EFEE  F009         	
  3689                           l182:; BSR set to: 0
  3690  0013DC                     
  3691                           	line	1406
  3692                           	
  3693                           l3895:; BSR set to: 0
  3694  0013DC                     
  3695                           ;doprnt.c: 1406: if(flag & 0x04) {
  3696                           	
  3697                           	btfss	((printf@flag))&0ffh,(2)&7
  3698  0013DE  A5AE               	goto	u4891
  3699  0013E0  EFF4  F009         	goto	u4890
  3700  0013E4  EFF7  F009         u4891:
  3701  0013E8                     	goto	l3907
  3702  0013EA  EF36  F00A         u4890:
  3703  0013EE                     	line	1411
  3704                           	
  3705                           l3897:; BSR set to: 0
  3706  0013F0                     
  3707                           ;doprnt.c: 1411: if(flag & 0x03)
  3708                           	movlw	03h
  3709  0013F0  0E03               	andwf	((printf@flag))&0ffh,w
  3710  0013F2  15AE               	movwf	(??_printf+0+0)&0ffh
  3711  0013F4  6F9A               	movlw	0
  3712  0013F6  0E00               	andwf	((printf@flag+1))&0ffh,w
  3713  0013F8  15AF               	movwf	(??_printf+0+0+1)&0ffh
  3714  0013FA  6F9B               	movf	(??_printf+0+0)&0ffh,w
  3715  0013FC  519A               iorwf	(??_printf+0+1)&0ffh,w
  3716  0013FE  119B               	btfsc	status,2
  3717  001400  B4D8               	goto	u4901
  3718  001402  EF05  F00A         	goto	u4900
  3719  001406  EF08  F00A         
  3720                           u4901:
  3721  00140A                     	goto	l3901
  3722  00140C  EF0E  F00A         u4900:
  3723  001410                     	line	1412
  3724                           	
  3725                           l3899:; BSR set to: 0
  3726  001412                     
  3727                           ;doprnt.c: 1412: (putch('-') );
  3728                           	movlw	(02Dh)&0ffh
  3729  001412  0E2D               	
  3730                           	call	_putch
  3731  001414  EC1E  F01E         	goto	l3901
  3732  001418  EF0E  F00A         	
  3733                           l184:
  3734  00141C                     	line	1434
  3735                           	
  3736                           l3901:
  3737  00141C                     ;doprnt.c: 1434: if(width)
  3738                           	movlb	0	; () banked
  3739  00141E  0100               	movf	((printf@width))&0ffh,w
  3740  001420  51B0               iorwf	((printf@width+1))&0ffh,w
  3741  001422  11B1               	btfsc	status,2
  3742  001424  B4D8               	goto	u4911
  3743  001426  EF17  F00A         	goto	u4910
  3744  00142A  EF1A  F00A         
  3745                           u4911:
  3746  00142E                     	goto	l3917
  3747  001430  EF76  F00A         u4910:
  3748  001434                     	goto	l3903
  3749  001436  EF1D  F00A         	line	1435
  3750                           ;doprnt.c: 1435: do
  3751                           	
  3752                           l186:; BSR set to: 0
  3753  00143A                     
  3754                           	line	1436
  3755                           	
  3756                           l3903:; BSR set to: 0
  3757  00143A                     
  3758                           ;doprnt.c: 1436: (putch('0') );
  3759                           	movlw	(030h)&0ffh
  3760  00143C  0E30               	
  3761                           	call	_putch
  3762  00143E  EC1E  F01E         	line	1437
  3763                           	
  3764                           l3905:
  3765  001442                     ;doprnt.c: 1437: while(--width);
  3766                           	movlb	0	; () banked
  3767  001442  0100               	decf	((printf@width))&0ffh
  3768  001444  07B0               	btfss	status,0
  3769  001446  A0D8               	decf	((printf@width+1))&0ffh
  3770  001448  07B1               	movf	((printf@width))&0ffh,w
  3771  00144A  51B0               iorwf	((printf@width+1))&0ffh,w
  3772  00144C  11B1               	btfss	status,2
  3773  00144E  A4D8               	goto	u4921
  3774  001450  EF2C  F00A         	goto	u4920
  3775  001454  EF2F  F00A         
  3776                           u4921:
  3777  001458                     	goto	l3903
  3778  00145A  EF1D  F00A         u4920:
  3779  00145E                     	goto	l3917
  3780  001460  EF76  F00A         	
  3781                           l187:; BSR set to: 0
  3782  001464                     
  3783                           	goto	l3917
  3784  001464  EF76  F00A         	
  3785                           l185:; BSR set to: 0
  3786  001468                     
  3787                           	line	1439
  3788                           ;doprnt.c: 1439: } else
  3789                           	goto	l3917
  3790  001468  EF76  F00A         	
  3791                           l183:; BSR set to: 0
  3792  00146C                     
  3793                           	line	1447
  3794                           	
  3795                           l3907:; BSR set to: 0
  3796  00146C                     
  3797                           ;doprnt.c: 1441: {;doprnt.c: 1443: if(width;doprnt.c: 1447: )
  3798                           	movf	((printf@width))&0ffh,w
  3799  00146E  51B0               iorwf	((printf@width+1))&0ffh,w
  3800  001470  11B1               	btfsc	status,2
  3801  001472  B4D8               	goto	u4931
  3802  001474  EF3E  F00A         	goto	u4930
  3803  001478  EF41  F00A         
  3804                           u4931:
  3805  00147C                     	goto	l3913
  3806  00147E  EF5B  F00A         u4930:
  3807  001482                     	goto	l3909
  3808  001484  EF44  F00A         	line	1448
  3809                           ;doprnt.c: 1448: do
  3810                           	
  3811                           l190:; BSR set to: 0
  3812  001488                     
  3813                           	line	1449
  3814                           	
  3815                           l3909:; BSR set to: 0
  3816  001488                     
  3817                           ;doprnt.c: 1449: (putch(' ') );
  3818                           	movlw	(020h)&0ffh
  3819  00148A  0E20               	
  3820                           	call	_putch
  3821  00148C  EC1E  F01E         	line	1450
  3822                           	
  3823                           l3911:
  3824  001490                     ;doprnt.c: 1450: while(--width);
  3825                           	movlb	0	; () banked
  3826  001490  0100               	decf	((printf@width))&0ffh
  3827  001492  07B0               	btfss	status,0
  3828  001494  A0D8               	decf	((printf@width+1))&0ffh
  3829  001496  07B1               	movf	((printf@width))&0ffh,w
  3830  001498  51B0               iorwf	((printf@width+1))&0ffh,w
  3831  00149A  11B1               	btfss	status,2
  3832  00149C  A4D8               	goto	u4941
  3833  00149E  EF53  F00A         	goto	u4940
  3834  0014A2  EF56  F00A         
  3835                           u4941:
  3836  0014A6                     	goto	l3909
  3837  0014A8  EF44  F00A         u4940:
  3838  0014AC                     	goto	l3913
  3839  0014AE  EF5B  F00A         	
  3840                           l191:; BSR set to: 0
  3841  0014B2                     
  3842                           	goto	l3913
  3843  0014B2  EF5B  F00A         	
  3844                           l189:; BSR set to: 0
  3845  0014B6                     
  3846                           	line	1457
  3847                           	
  3848                           l3913:; BSR set to: 0
  3849  0014B6                     
  3850                           ;doprnt.c: 1457: if(flag & 0x03)
  3851                           	movlw	03h
  3852  0014B8  0E03               	andwf	((printf@flag))&0ffh,w
  3853  0014BA  15AE               	movwf	(??_printf+0+0)&0ffh
  3854  0014BC  6F9A               	movlw	0
  3855  0014BE  0E00               	andwf	((printf@flag+1))&0ffh,w
  3856  0014C0  15AF               	movwf	(??_printf+0+0+1)&0ffh
  3857  0014C2  6F9B               	movf	(??_printf+0+0)&0ffh,w
  3858  0014C4  519A               iorwf	(??_printf+0+1)&0ffh,w
  3859  0014C6  119B               	btfsc	status,2
  3860  0014C8  B4D8               	goto	u4951
  3861  0014CA  EF69  F00A         	goto	u4950
  3862  0014CE  EF6C  F00A         
  3863                           u4951:
  3864  0014D2                     	goto	l3917
  3865  0014D4  EF76  F00A         u4950:
  3866  0014D8                     	line	1458
  3867                           	
  3868                           l3915:; BSR set to: 0
  3869  0014DA                     
  3870                           ;doprnt.c: 1458: (putch('-') );
  3871                           	movlw	(02Dh)&0ffh
  3872  0014DA  0E2D               	
  3873                           	call	_putch
  3874  0014DC  EC1E  F01E         	goto	l3917
  3875  0014E0  EF76  F00A         	
  3876                           l192:
  3877  0014E4                     	goto	l3917
  3878  0014E4  EF76  F00A         	line	1488
  3879                           	
  3880                           l188:
  3881  0014E8                     	goto	l3917
  3882  0014E8  EF76  F00A         	line	1552
  3883                           	
  3884                           l101:
  3885  0014EC                     	line	548
  3886                           	
  3887                           l3917:
  3888  0014EC                     	movff	(printf@f),tblptrl
  3889  0014EE  C094  FFF6         	movff	(printf@f+1),tblptrh
  3890  0014F2  C095  FFF7         	movlb	0	; () banked
  3891  0014F6  0100               	infsnz	((printf@f))&0ffh
  3892  0014F8  4B94               	incf	((printf@f+1))&0ffh
  3893  0014FA  2B95               	if	0	;tblptru may be non-zero
  3894  0014FC                     	clrf	tblptru
  3896  0014FC                     	if	0	;tblptru may be non-zero
  3897  0014FC                     	global __mediumconst
  3898                           movlw	low highword(__mediumconst)
  3901  0014FC                     	tblrd	*
  3902  0014FC  0008               		dw	0FFFFh; errata NOP
  3903  0014FE  FFFF               
  3904                           	movff	tablat,(printf@c)
  3905  001500  CFF5 F0B8          	movf	((printf@c))&0ffh,w
  3906  001504  51B8               	btfss	status,2
  3907  001506  A4D8               	goto	u4961
  3908  001508  EF88  F00A         	goto	u4960
  3909  00150C  EF8B  F00A         u4961:
  3910  001510                     	goto	l3655
  3911  001512  EF58  F003         u4960:
  3912  001516                     	goto	l194
  3913  001518  EF90  F00A         	
  3914                           l193:; BSR set to: 0
  3915  00151C                     
  3916                           	goto	l194
  3917  00151C  EF90  F00A         	line	1554
  3918                           ;doprnt.c: 1488: };doprnt.c: 1552: };doprnt.c: 1554: alldone:
  3919                           	
  3920                           l120:; BSR set to: 0
  3921  001520                     
  3922                           	line	1560
  3923                           ;doprnt.c: 1559: return 0;;	Return value of _printf is never used
  3924                           	
  3925                           l194:; BSR set to: 0
  3926  001520                     
  3927                           	return	;funcret
  3928  001522  0012               	dw	0FFFFh; errata NOP
  3929  001524  FFFF               	opt stack 0
  3930                           GLOBAL	__end_of_printf
  3931                           	__end_of_printf:
  3932  001526                     	signat	_printf,602
  3933                           	global	_scale
  3934                           
  3935 ;; *************** function _scale *****************
  3936 ;; Defined at:
  3937 ;;		line 433 in file "C:\Program Files (x86)\Microchip\xc8\v2.00\pic\sources\c90\common\doprnt.c"
  3938 ;; Parameters:    Size  Location     Type
  3939 ;;  scl             1    wreg     char 
  3940 ;; Auto vars:     Size  Location     Type
  3941 ;;  scl             1   77[COMRAM] char 
  3942 ;; Return value:  Size  Location     Type
  3943 ;;                  4   69[COMRAM] char 
  3944 ;; Registers used:
  3945 ;;		wreg, status,2, status,0, tblptrl, tblptrh, tblptru, prodl, prodh, cstack
  3946 ;; Tracked objects:
  3947 ;;		On entry : 0/0
  3948 ;;		On exit  : 0/0
  3949 ;;		Unchanged: 0/0
  3950 ;; Data sizes:     COMRAM   BANK0   BANK1   BANK2   BANK3   BANK4   BANK5
  3951 ;;      Params:         4       0       0       0       0       0       0
  3952 ;;      Locals:         5       0       0       0       0       0       0
  3953 ;;      Temps:          0       0       0       0       0       0       0
  3954 ;;      Totals:         9       0       0       0       0       0       0
  3955 ;;Total ram usage:        9 bytes
  3956 ;; Hardware stack levels used:    1
  3957 ;; Hardware stack levels required when called:    4
  3958 ;; This function calls:
  3959 ;;		___awdiv
  3960 ;;		___awmod
  3961 ;;		___flmul
  3962 ;; This function is called by:
  3963 ;;		_printf
  3964 ;; This function uses a non-reentrant model
  3965 ;;
  3966                           psect	text2,class=CODE,space=0,reloc=2,group=0
  3967                           	line	433
  3968                           global __ptext2
  3969                           __ptext2:
  3970  002082                     psect	text2
  3971                           	file	"C:\Program Files (x86)\Microchip\xc8\v2.00\pic\sources\c90\common\doprnt.c"
  3972                           	line	433
  3973                           	global	__size_of_scale
  3974                           	__size_of_scale	equ	__end_of_scale-_scale
  3975  0000                     	
  3976                           _scale:; BSR set to: 0
  3977  002082                     
  3978                           ;incstack = 0
  3979                           	opt	stack 25
  3980                           ;scale@scl stored from wreg
  3981                           	movwf	((c:scale@scl)),c
  3982  002084  6E4E               	line	436
  3983                           	
  3984                           l2703:
  3985  002086                     ;doprnt.c: 436: if(scl < 0) {
  3986                           	btfsc	((c:scale@scl)),c,7
  3987  002086  BE4E               	goto	u2830
  3988  002088  EF4B  F010         	goto	u2831
  3989  00208C  EF48  F010         
  3990                           u2831:
  3991  002090                     	goto	l2723
  3992  002092  EF74  F011         u2830:
  3993  002096                     	line	437
  3994                           	
  3995                           l2705:
  3996  002098                     ;doprnt.c: 437: scl = -scl;
  3997                           	negf	((c:scale@scl)),c
  3998  002098  6C4E               	line	438
  3999                           ;doprnt.c: 438: if(scl>=110)
  4000                           		movf	((c:scale@scl)),c,w
  4001  00209A  504E               	xorlw	80h
  4002  00209C  0A80               	addlw	-(80h^06Eh)
  4003  00209E  0F12               	btfss	status,0
  4004  0020A0  A0D8               	goto	u2841
  4005  0020A2  EF55  F010         	goto	u2840
  4006  0020A6  EF58  F010         
  4007                           u2841:
  4008  0020AA                     	goto	l2713
  4009  0020AC  EFF2  F010         u2840:
  4010  0020B0                     	line	439
  4011                           	
  4012                           l2707:
  4013  0020B2                     ;doprnt.c: 439: return _npowers_[(unsigned char)(scl/100+18)] * _npowers_[(unsigned char
                                 )((scl%100)/10+9)] * _npowers_[(unsigned char)(scl%10)];
  4014                           	movlw	high(0Ah)
  4015  0020B2  0E00               	movwf	((c:___awdiv@divisor+1)),c
  4016  0020B4  6E28               	movlw	low(0Ah)
  4017  0020B6  0E0A               	movwf	((c:___awdiv@divisor)),c
  4018  0020B8  6E27               	movlw	high(064h)
  4019  0020BA  0E00               	movwf	((c:___awmod@divisor+1)),c
  4020  0020BC  6E22               	movlw	low(064h)
  4021  0020BE  0E64               	movwf	((c:___awmod@divisor)),c
  4022  0020C0  6E21               	movf	((c:scale@scl)),c,w
  4023  0020C2  504E               	movwf	((c:___awmod@dividend)),c
  4024  0020C4  6E1F               	clrf	((c:___awmod@dividend+1)),c
  4025  0020C6  6A20               	btfsc	((c:___awmod@dividend)),c,7
  4026  0020C8  BE1F               	decf	((c:___awmod@dividend+1)),c
  4027  0020CA  0620               	call	___awmod	;wreg free
  4028  0020CC  ECE3  F01A         	movff	0+?___awmod,(c:___awdiv@dividend)
  4029  0020D0  C01F  F025         	movff	1+?___awmod,(c:___awdiv@dividend+1)
  4030  0020D4  C020  F026         	call	___awdiv	;wreg free
  4031  0020D8  EC56  F01A         	movlw	09h
  4032  0020DC  0E09               	addwf	(0+?___awdiv),c
  4033  0020DE  2625               	movf	(0+?___awdiv),c,w
  4034  0020E0  5025               	mullw	04h
  4035  0020E2  0D04               	movlw	low((__npowers_))
  4036  0020E4  0E35               	addwf	(prodl),c,w
  4037  0020E6  24F3               	movwf	tblptrl
  4038  0020E8  6EF6               	movlw	high((__npowers_))
  4039  0020EA  0E06               	addwfc	(prodh),c,w
  4040  0020EC  20F4               	movwf	tblptrh
  4041  0020EE  6EF7               	if	0	;There are less than 3 active tblptr bytes
  4042  0020F0                     	clrf	tblptru
  4044                           	global __mediumconst
  4047  0020F0                     	tblrd*+
  4048  0020F0  0009               		dw	0FFFFh; errata NOP
  4049  0020F2  FFFF               
  4050                           	movff	tablat,(c:___flmul@a)
  4051  0020F4  CFF5 F031          	tblrd*+
  4052  0020F8  0009               		dw	0FFFFh; errata NOP
  4053  0020FA  FFFF               
  4054                           	movff	tablat,(c:___flmul@a+1)
  4055  0020FC  CFF5 F032          	tblrd*+
  4056  002100  0009               		dw	0FFFFh; errata NOP
  4057  002102  FFFF               
  4058                           	movff	tablat,(c:___flmul@a+2)
  4059  002104  CFF5 F033          	tblrd*-
  4060  002108  000A               		dw	0FFFFh; errata NOP
  4061  00210A  FFFF               
  4062                           	movff	tablat,(c:___flmul@a+3)
  4063  00210C  CFF5 F034          	movlw	high(064h)
  4064  002110  0E00               	movwf	((c:___awdiv@divisor+1)),c
  4065  002112  6E28               	movlw	low(064h)
  4066  002114  0E64               	movwf	((c:___awdiv@divisor)),c
  4067  002116  6E27               	movf	((c:scale@scl)),c,w
  4068  002118  504E               	movwf	((c:___awdiv@dividend)),c
  4069  00211A  6E25               	clrf	((c:___awdiv@dividend+1)),c
  4070  00211C  6A26               	btfsc	((c:___awdiv@dividend)),c,7
  4071  00211E  BE25               	decf	((c:___awdiv@dividend+1)),c
  4072  002120  0626               	call	___awdiv	;wreg free
  4073  002122  EC56  F01A         	movlw	012h
  4074  002126  0E12               	addwf	(0+?___awdiv),c
  4075  002128  2625               	movf	(0+?___awdiv),c,w
  4076  00212A  5025               	mullw	04h
  4077  00212C  0D04               	movlw	low((__npowers_))
  4078  00212E  0E35               	addwf	(prodl),c,w
  4079  002130  24F3               	movwf	tblptrl
  4080  002132  6EF6               	movlw	high((__npowers_))
  4081  002134  0E06               	addwfc	(prodh),c,w
  4082  002136  20F4               	movwf	tblptrh
  4083  002138  6EF7               	if	0	;There are less than 3 active tblptr bytes
  4084  00213A                     	clrf	tblptru
  4086                           	global __mediumconst
  4089  00213A                     	tblrd*+
  4090  00213A  0009               		dw	0FFFFh; errata NOP
  4091  00213C  FFFF               
  4092                           	movff	tablat,(c:___flmul@b)
  4093  00213E  CFF5 F02D          	tblrd*+
  4094  002142  0009               		dw	0FFFFh; errata NOP
  4095  002144  FFFF               
  4096                           	movff	tablat,(c:___flmul@b+1)
  4097  002146  CFF5 F02E          	tblrd*+
  4098  00214A  0009               		dw	0FFFFh; errata NOP
  4099  00214C  FFFF               
  4100                           	movff	tablat,(c:___flmul@b+2)
  4101  00214E  CFF5 F02F          	tblrd*-
  4102  002152  000A               		dw	0FFFFh; errata NOP
  4103  002154  FFFF               
  4104                           	movff	tablat,(c:___flmul@b+3)
  4105  002156  CFF5 F030          	call	___flmul	;wreg free
  4106  00215A  ECCC  F00D         	movff	0+?___flmul,(c:_scale$1185)
  4107  00215E  C02D  F04A         	movff	1+?___flmul,(c:_scale$1185+1)
  4108  002162  C02E  F04B         	movff	2+?___flmul,(c:_scale$1185+2)
  4109  002166  C02F  F04C         	movff	3+?___flmul,(c:_scale$1185+3)
  4110  00216A  C030  F04D         	
  4111                           ;doprnt.c: 439: return _npowers_[(unsigned char)(scl/100+18)] * _npowers_[(unsigned char
                                 )((scl%100)/10+9)] * _npowers_[(unsigned char)(scl%10)];
  4112                           	movff	(c:_scale$1185),(c:___flmul@b)
  4113  00216E  C04A  F02D         	movff	(c:_scale$1185+1),(c:___flmul@b+1)
  4114  002172  C04B  F02E         	movff	(c:_scale$1185+2),(c:___flmul@b+2)
  4115  002176  C04C  F02F         	movff	(c:_scale$1185+3),(c:___flmul@b+3)
  4116  00217A  C04D  F030         	movlw	high(0Ah)
  4117  00217E  0E00               	movwf	((c:___awmod@divisor+1)),c
  4118  002180  6E22               	movlw	low(0Ah)
  4119  002182  0E0A               	movwf	((c:___awmod@divisor)),c
  4120  002184  6E21               	movf	((c:scale@scl)),c,w
  4121  002186  504E               	movwf	((c:___awmod@dividend)),c
  4122  002188  6E1F               	clrf	((c:___awmod@dividend+1)),c
  4123  00218A  6A20               	btfsc	((c:___awmod@dividend)),c,7
  4124  00218C  BE1F               	decf	((c:___awmod@dividend+1)),c
  4125  00218E  0620               	call	___awmod	;wreg free
  4126  002190  ECE3  F01A         	movf	(0+?___awmod),c,w
  4127  002194  501F               	mullw	04h
  4128  002196  0D04               	movlw	low((__npowers_))
  4129  002198  0E35               	addwf	(prodl),c,w
  4130  00219A  24F3               	movwf	tblptrl
  4131  00219C  6EF6               	movlw	high((__npowers_))
  4132  00219E  0E06               	addwfc	(prodh),c,w
  4133  0021A0  20F4               	movwf	tblptrh
  4134  0021A2  6EF7               	if	0	;There are less than 3 active tblptr bytes
  4135  0021A4                     	clrf	tblptru
  4137                           	global __mediumconst
  4140  0021A4                     	tblrd*+
  4141  0021A4  0009               		dw	0FFFFh; errata NOP
  4142  0021A6  FFFF               
  4143                           	movff	tablat,(c:___flmul@a)
  4144  0021A8  CFF5 F031          	tblrd*+
  4145  0021AC  0009               		dw	0FFFFh; errata NOP
  4146  0021AE  FFFF               
  4147                           	movff	tablat,(c:___flmul@a+1)
  4148  0021B0  CFF5 F032          	tblrd*+
  4149  0021B4  0009               		dw	0FFFFh; errata NOP
  4150  0021B6  FFFF               
  4151                           	movff	tablat,(c:___flmul@a+2)
  4152  0021B8  CFF5 F033          	tblrd*-
  4153  0021BC  000A               		dw	0FFFFh; errata NOP
  4154  0021BE  FFFF               
  4155                           	movff	tablat,(c:___flmul@a+3)
  4156  0021C0  CFF5 F034          	call	___flmul	;wreg free
  4157  0021C4  ECCC  F00D         	movff	0+?___flmul,(c:?_scale)
  4158  0021C8  C02D  F046         	movff	1+?___flmul,(c:?_scale+1)
  4159  0021CC  C02E  F047         	movff	2+?___flmul,(c:?_scale+2)
  4160  0021D0  C02F  F048         	movff	3+?___flmul,(c:?_scale+3)
  4161  0021D4  C030  F049         	
  4162                           	goto	l93
  4163  0021D8  EF9A  F012         	
  4164                           l2709:
  4165  0021DC                     	goto	l93
  4166  0021DC  EF9A  F012         	
  4167                           l2711:
  4168  0021E0                     	goto	l2719
  4169  0021E0  EF57  F011         	line	440
  4170                           	
  4171                           l92:
  4172  0021E4                     	
  4173                           l2713:
  4174  0021E4                     ;doprnt.c: 440: else if(scl > 10)
  4175                           		movf	((c:scale@scl)),c,w
  4176  0021E6  504E               	xorlw	80h
  4177  0021E8  0A80               	addlw	-(80h^0Bh)
  4178  0021EA  0F75               	btfss	status,0
  4179  0021EC  A0D8               	goto	u2851
  4180  0021EE  EFFB  F010         	goto	u2850
  4181  0021F2  EFFE  F010         
  4182                           u2851:
  4183  0021F6                     	goto	l2719
  4184  0021F8  EF57  F011         u2850:
  4185  0021FC                     	line	441
  4186                           	
  4187                           l2715:
  4188  0021FE                     ;doprnt.c: 441: return _npowers_[(unsigned char)(scl/10+9)] * _npowers_[(unsigned char)(
                                 scl%10)];
  4189                           	movlw	high(0Ah)
  4190  0021FE  0E00               	movwf	((c:___awdiv@divisor+1)),c
  4191  002200  6E28               	movlw	low(0Ah)
  4192  002202  0E0A               	movwf	((c:___awdiv@divisor)),c
  4193  002204  6E27               	movf	((c:scale@scl)),c,w
  4194  002206  504E               	movwf	((c:___awdiv@dividend)),c
  4195  002208  6E25               	clrf	((c:___awdiv@dividend+1)),c
  4196  00220A  6A26               	btfsc	((c:___awdiv@dividend)),c,7
  4197  00220C  BE25               	decf	((c:___awdiv@dividend+1)),c
  4198  00220E  0626               	call	___awdiv	;wreg free
  4199  002210  EC56  F01A         	movlw	09h
  4200  002214  0E09               	addwf	(0+?___awdiv),c
  4201  002216  2625               	movf	(0+?___awdiv),c,w
  4202  002218  5025               	mullw	04h
  4203  00221A  0D04               	movlw	low((__npowers_))
  4204  00221C  0E35               	addwf	(prodl),c,w
  4205  00221E  24F3               	movwf	tblptrl
  4206  002220  6EF6               	movlw	high((__npowers_))
  4207  002222  0E06               	addwfc	(prodh),c,w
  4208  002224  20F4               	movwf	tblptrh
  4209  002226  6EF7               	if	0	;There are less than 3 active tblptr bytes
  4210  002228                     	clrf	tblptru
  4212                           	global __mediumconst
  4215  002228                     	tblrd*+
  4216  002228  0009               		dw	0FFFFh; errata NOP
  4217  00222A  FFFF               
  4218                           	movff	tablat,(c:___flmul@b)
  4219  00222C  CFF5 F02D          	tblrd*+
  4220  002230  0009               		dw	0FFFFh; errata NOP
  4221  002232  FFFF               
  4222                           	movff	tablat,(c:___flmul@b+1)
  4223  002234  CFF5 F02E          	tblrd*+
  4224  002238  0009               		dw	0FFFFh; errata NOP
  4225  00223A  FFFF               
  4226                           	movff	tablat,(c:___flmul@b+2)
  4227  00223C  CFF5 F02F          	tblrd*-
  4228  002240  000A               		dw	0FFFFh; errata NOP
  4229  002242  FFFF               
  4230                           	movff	tablat,(c:___flmul@b+3)
  4231  002244  CFF5 F030          	movlw	high(0Ah)
  4232  002248  0E00               	movwf	((c:___awmod@divisor+1)),c
  4233  00224A  6E22               	movlw	low(0Ah)
  4234  00224C  0E0A               	movwf	((c:___awmod@divisor)),c
  4235  00224E  6E21               	movf	((c:scale@scl)),c,w
  4236  002250  504E               	movwf	((c:___awmod@dividend)),c
  4237  002252  6E1F               	clrf	((c:___awmod@dividend+1)),c
  4238  002254  6A20               	btfsc	((c:___awmod@dividend)),c,7
  4239  002256  BE1F               	decf	((c:___awmod@dividend+1)),c
  4240  002258  0620               	call	___awmod	;wreg free
  4241  00225A  ECE3  F01A         	movf	(0+?___awmod),c,w
  4242  00225E  501F               	mullw	04h
  4243  002260  0D04               	movlw	low((__npowers_))
  4244  002262  0E35               	addwf	(prodl),c,w
  4245  002264  24F3               	movwf	tblptrl
  4246  002266  6EF6               	movlw	high((__npowers_))
  4247  002268  0E06               	addwfc	(prodh),c,w
  4248  00226A  20F4               	movwf	tblptrh
  4249  00226C  6EF7               	if	0	;There are less than 3 active tblptr bytes
  4250  00226E                     	clrf	tblptru
  4252                           	global __mediumconst
  4255  00226E                     	tblrd*+
  4256  00226E  0009               		dw	0FFFFh; errata NOP
  4257  002270  FFFF               
  4258                           	movff	tablat,(c:___flmul@a)
  4259  002272  CFF5 F031          	tblrd*+
  4260  002276  0009               		dw	0FFFFh; errata NOP
  4261  002278  FFFF               
  4262                           	movff	tablat,(c:___flmul@a+1)
  4263  00227A  CFF5 F032          	tblrd*+
  4264  00227E  0009               		dw	0FFFFh; errata NOP
  4265  002280  FFFF               
  4266                           	movff	tablat,(c:___flmul@a+2)
  4267  002282  CFF5 F033          	tblrd*-
  4268  002286  000A               		dw	0FFFFh; errata NOP
  4269  002288  FFFF               
  4270                           	movff	tablat,(c:___flmul@a+3)
  4271  00228A  CFF5 F034          	call	___flmul	;wreg free
  4272  00228E  ECCC  F00D         	movff	0+?___flmul,(c:?_scale)
  4273  002292  C02D  F046         	movff	1+?___flmul,(c:?_scale+1)
  4274  002296  C02E  F047         	movff	2+?___flmul,(c:?_scale+2)
  4275  00229A  C02F  F048         	movff	3+?___flmul,(c:?_scale+3)
  4276  00229E  C030  F049         	
  4277                           	goto	l93
  4278  0022A2  EF9A  F012         	
  4279                           l2717:
  4280  0022A6                     	goto	l93
  4281  0022A6  EF9A  F012         	
  4282                           l95:
  4283  0022AA                     	goto	l2719
  4284  0022AA  EF57  F011         	line	442
  4285                           	
  4286                           l94:
  4287  0022AE                     	
  4288                           l2719:
  4289  0022AE                     ;doprnt.c: 442: return _npowers_[(unsigned char)scl];
  4290                           	movf	((c:scale@scl)),c,w
  4291  0022B0  504E               	mullw	04h
  4292  0022B2  0D04               	movlw	low((__npowers_))
  4293  0022B4  0E35               	addwf	(prodl),c,w
  4294  0022B6  24F3               	movwf	tblptrl
  4295  0022B8  6EF6               	movlw	high((__npowers_))
  4296  0022BA  0E06               	addwfc	(prodh),c,w
  4297  0022BC  20F4               	movwf	tblptrh
  4298  0022BE  6EF7               	if	0	;There are less than 3 active tblptr bytes
  4299  0022C0                     	clrf	tblptru
  4301                           	global __mediumconst
  4304  0022C0                     	tblrd*+
  4305  0022C0  0009               		dw	0FFFFh; errata NOP
  4306  0022C2  FFFF               
  4307                           	movff	tablat,(c:?_scale)
  4308  0022C4  CFF5 F046          	tblrd*+
  4309  0022C8  0009               		dw	0FFFFh; errata NOP
  4310  0022CA  FFFF               
  4311                           	movff	tablat,(c:?_scale+1)
  4312  0022CC  CFF5 F047          	tblrd*+
  4313  0022D0  0009               		dw	0FFFFh; errata NOP
  4314  0022D2  FFFF               
  4315                           	movff	tablat,(c:?_scale+2)
  4316  0022D4  CFF5 F048          	tblrd*-
  4317  0022D8  000A               		dw	0FFFFh; errata NOP
  4318  0022DA  FFFF               
  4319                           	movff	tablat,(c:?_scale+3)
  4320  0022DC  CFF5 F049          	goto	l93
  4321  0022E0  EF9A  F012         	
  4322                           l2721:
  4323  0022E4                     	goto	l93
  4324  0022E4  EF9A  F012         	line	443
  4325                           	
  4326                           l91:
  4327  0022E8                     	line	444
  4328                           	
  4329                           l2723:
  4330  0022E8                     ;doprnt.c: 443: };doprnt.c: 444: if(scl>=110)
  4331                           		movf	((c:scale@scl)),c,w
  4332  0022EA  504E               	xorlw	80h
  4333  0022EC  0A80               	addlw	-(80h^06Eh)
  4334  0022EE  0F12               	btfss	status,0
  4335  0022F0  A0D8               	goto	u2861
  4336  0022F2  EF7D  F011         	goto	u2860
  4337  0022F6  EF80  F011         
  4338                           u2861:
  4339  0022FA                     	goto	l2731
  4340  0022FC  EF1A  F012         u2860:
  4341  002300                     	line	445
  4342                           	
  4343                           l2725:
  4344  002302                     ;doprnt.c: 445: return _powers_[(unsigned char)(scl/100+18)] * _powers_[(unsigned char)(
                                 (scl%100)/10+9)] * _powers_[(unsigned char)(scl%10)];
  4345                           	movlw	high(0Ah)
  4346  002302  0E00               	movwf	((c:___awdiv@divisor+1)),c
  4347  002304  6E28               	movlw	low(0Ah)
  4348  002306  0E0A               	movwf	((c:___awdiv@divisor)),c
  4349  002308  6E27               	movlw	high(064h)
  4350  00230A  0E00               	movwf	((c:___awmod@divisor+1)),c
  4351  00230C  6E22               	movlw	low(064h)
  4352  00230E  0E64               	movwf	((c:___awmod@divisor)),c
  4353  002310  6E21               	movf	((c:scale@scl)),c,w
  4354  002312  504E               	movwf	((c:___awmod@dividend)),c
  4355  002314  6E1F               	clrf	((c:___awmod@dividend+1)),c
  4356  002316  6A20               	btfsc	((c:___awmod@dividend)),c,7
  4357  002318  BE1F               	decf	((c:___awmod@dividend+1)),c
  4358  00231A  0620               	call	___awmod	;wreg free
  4359  00231C  ECE3  F01A         	movff	0+?___awmod,(c:___awdiv@dividend)
  4360  002320  C01F  F025         	movff	1+?___awmod,(c:___awdiv@dividend+1)
  4361  002324  C020  F026         	call	___awdiv	;wreg free
  4362  002328  EC56  F01A         	movlw	09h
  4363  00232C  0E09               	addwf	(0+?___awdiv),c
  4364  00232E  2625               	movf	(0+?___awdiv),c,w
  4365  002330  5025               	mullw	04h
  4366  002332  0D04               	movlw	low((__powers_))
  4367  002334  0E01               	addwf	(prodl),c,w
  4368  002336  24F3               	movwf	tblptrl
  4369  002338  6EF6               	movlw	high((__powers_))
  4370  00233A  0E06               	addwfc	(prodh),c,w
  4371  00233C  20F4               	movwf	tblptrh
  4372  00233E  6EF7               	if	0	;There are less than 3 active tblptr bytes
  4373  002340                     	clrf	tblptru
  4375                           	global __mediumconst
  4378  002340                     	tblrd*+
  4379  002340  0009               		dw	0FFFFh; errata NOP
  4380  002342  FFFF               
  4381                           	movff	tablat,(c:___flmul@a)
  4382  002344  CFF5 F031          	tblrd*+
  4383  002348  0009               		dw	0FFFFh; errata NOP
  4384  00234A  FFFF               
  4385                           	movff	tablat,(c:___flmul@a+1)
  4386  00234C  CFF5 F032          	tblrd*+
  4387  002350  0009               		dw	0FFFFh; errata NOP
  4388  002352  FFFF               
  4389                           	movff	tablat,(c:___flmul@a+2)
  4390  002354  CFF5 F033          	tblrd*-
  4391  002358  000A               		dw	0FFFFh; errata NOP
  4392  00235A  FFFF               
  4393                           	movff	tablat,(c:___flmul@a+3)
  4394  00235C  CFF5 F034          	movlw	high(064h)
  4395  002360  0E00               	movwf	((c:___awdiv@divisor+1)),c
  4396  002362  6E28               	movlw	low(064h)
  4397  002364  0E64               	movwf	((c:___awdiv@divisor)),c
  4398  002366  6E27               	movf	((c:scale@scl)),c,w
  4399  002368  504E               	movwf	((c:___awdiv@dividend)),c
  4400  00236A  6E25               	clrf	((c:___awdiv@dividend+1)),c
  4401  00236C  6A26               	btfsc	((c:___awdiv@dividend)),c,7
  4402  00236E  BE25               	decf	((c:___awdiv@dividend+1)),c
  4403  002370  0626               	call	___awdiv	;wreg free
  4404  002372  EC56  F01A         	movlw	012h
  4405  002376  0E12               	addwf	(0+?___awdiv),c
  4406  002378  2625               	movf	(0+?___awdiv),c,w
  4407  00237A  5025               	mullw	04h
  4408  00237C  0D04               	movlw	low((__powers_))
  4409  00237E  0E01               	addwf	(prodl),c,w
  4410  002380  24F3               	movwf	tblptrl
  4411  002382  6EF6               	movlw	high((__powers_))
  4412  002384  0E06               	addwfc	(prodh),c,w
  4413  002386  20F4               	movwf	tblptrh
  4414  002388  6EF7               	if	0	;There are less than 3 active tblptr bytes
  4415  00238A                     	clrf	tblptru
  4417                           	global __mediumconst
  4420  00238A                     	tblrd*+
  4421  00238A  0009               		dw	0FFFFh; errata NOP
  4422  00238C  FFFF               
  4423                           	movff	tablat,(c:___flmul@b)
  4424  00238E  CFF5 F02D          	tblrd*+
  4425  002392  0009               		dw	0FFFFh; errata NOP
  4426  002394  FFFF               
  4427                           	movff	tablat,(c:___flmul@b+1)
  4428  002396  CFF5 F02E          	tblrd*+
  4429  00239A  0009               		dw	0FFFFh; errata NOP
  4430  00239C  FFFF               
  4431                           	movff	tablat,(c:___flmul@b+2)
  4432  00239E  CFF5 F02F          	tblrd*-
  4433  0023A2  000A               		dw	0FFFFh; errata NOP
  4434  0023A4  FFFF               
  4435                           	movff	tablat,(c:___flmul@b+3)
  4436  0023A6  CFF5 F030          	call	___flmul	;wreg free
  4437  0023AA  ECCC  F00D         	movff	0+?___flmul,(c:_scale$1185)
  4438  0023AE  C02D  F04A         	movff	1+?___flmul,(c:_scale$1185+1)
  4439  0023B2  C02E  F04B         	movff	2+?___flmul,(c:_scale$1185+2)
  4440  0023B6  C02F  F04C         	movff	3+?___flmul,(c:_scale$1185+3)
  4441  0023BA  C030  F04D         	
  4442                           ;doprnt.c: 445: return _powers_[(unsigned char)(scl/100+18)] * _powers_[(unsigned char)(
                                 (scl%100)/10+9)] * _powers_[(unsigned char)(scl%10)];
  4443                           	movff	(c:_scale$1185),(c:___flmul@b)
  4444  0023BE  C04A  F02D         	movff	(c:_scale$1185+1),(c:___flmul@b+1)
  4445  0023C2  C04B  F02E         	movff	(c:_scale$1185+2),(c:___flmul@b+2)
  4446  0023C6  C04C  F02F         	movff	(c:_scale$1185+3),(c:___flmul@b+3)
  4447  0023CA  C04D  F030         	movlw	high(0Ah)
  4448  0023CE  0E00               	movwf	((c:___awmod@divisor+1)),c
  4449  0023D0  6E22               	movlw	low(0Ah)
  4450  0023D2  0E0A               	movwf	((c:___awmod@divisor)),c
  4451  0023D4  6E21               	movf	((c:scale@scl)),c,w
  4452  0023D6  504E               	movwf	((c:___awmod@dividend)),c
  4453  0023D8  6E1F               	clrf	((c:___awmod@dividend+1)),c
  4454  0023DA  6A20               	btfsc	((c:___awmod@dividend)),c,7
  4455  0023DC  BE1F               	decf	((c:___awmod@dividend+1)),c
  4456  0023DE  0620               	call	___awmod	;wreg free
  4457  0023E0  ECE3  F01A         	movf	(0+?___awmod),c,w
  4458  0023E4  501F               	mullw	04h
  4459  0023E6  0D04               	movlw	low((__powers_))
  4460  0023E8  0E01               	addwf	(prodl),c,w
  4461  0023EA  24F3               	movwf	tblptrl
  4462  0023EC  6EF6               	movlw	high((__powers_))
  4463  0023EE  0E06               	addwfc	(prodh),c,w
  4464  0023F0  20F4               	movwf	tblptrh
  4465  0023F2  6EF7               	if	0	;There are less than 3 active tblptr bytes
  4466  0023F4                     	clrf	tblptru
  4468                           	global __mediumconst
  4471  0023F4                     	tblrd*+
  4472  0023F4  0009               		dw	0FFFFh; errata NOP
  4473  0023F6  FFFF               
  4474                           	movff	tablat,(c:___flmul@a)
  4475  0023F8  CFF5 F031          	tblrd*+
  4476  0023FC  0009               		dw	0FFFFh; errata NOP
  4477  0023FE  FFFF               
  4478                           	movff	tablat,(c:___flmul@a+1)
  4479  002400  CFF5 F032          	tblrd*+
  4480  002404  0009               		dw	0FFFFh; errata NOP
  4481  002406  FFFF               
  4482                           	movff	tablat,(c:___flmul@a+2)
  4483  002408  CFF5 F033          	tblrd*-
  4484  00240C  000A               		dw	0FFFFh; errata NOP
  4485  00240E  FFFF               
  4486                           	movff	tablat,(c:___flmul@a+3)
  4487  002410  CFF5 F034          	call	___flmul	;wreg free
  4488  002414  ECCC  F00D         	movff	0+?___flmul,(c:?_scale)
  4489  002418  C02D  F046         	movff	1+?___flmul,(c:?_scale+1)
  4490  00241C  C02E  F047         	movff	2+?___flmul,(c:?_scale+2)
  4491  002420  C02F  F048         	movff	3+?___flmul,(c:?_scale+3)
  4492  002424  C030  F049         	
  4493                           	goto	l93
  4494  002428  EF9A  F012         	
  4495                           l2727:
  4496  00242C                     	goto	l93
  4497  00242C  EF9A  F012         	
  4498                           l2729:
  4499  002430                     	goto	l2737
  4500  002430  EF7F  F012         	line	446
  4501                           	
  4502                           l96:
  4503  002434                     	
  4504                           l2731:
  4505  002434                     ;doprnt.c: 446: else if(scl > 10)
  4506                           		movf	((c:scale@scl)),c,w
  4507  002436  504E               	xorlw	80h
  4508  002438  0A80               	addlw	-(80h^0Bh)
  4509  00243A  0F75               	btfss	status,0
  4510  00243C  A0D8               	goto	u2871
  4511  00243E  EF23  F012         	goto	u2870
  4512  002442  EF26  F012         
  4513                           u2871:
  4514  002446                     	goto	l2737
  4515  002448  EF7F  F012         u2870:
  4516  00244C                     	line	447
  4517                           	
  4518                           l2733:
  4519  00244E                     ;doprnt.c: 447: return _powers_[(unsigned char)(scl/10+9)] * _powers_[(unsigned char)(sc
                                 l%10)];
  4520                           	movlw	high(0Ah)
  4521  00244E  0E00               	movwf	((c:___awdiv@divisor+1)),c
  4522  002450  6E28               	movlw	low(0Ah)
  4523  002452  0E0A               	movwf	((c:___awdiv@divisor)),c
  4524  002454  6E27               	movf	((c:scale@scl)),c,w
  4525  002456  504E               	movwf	((c:___awdiv@dividend)),c
  4526  002458  6E25               	clrf	((c:___awdiv@dividend+1)),c
  4527  00245A  6A26               	btfsc	((c:___awdiv@dividend)),c,7
  4528  00245C  BE25               	decf	((c:___awdiv@dividend+1)),c
  4529  00245E  0626               	call	___awdiv	;wreg free
  4530  002460  EC56  F01A         	movlw	09h
  4531  002464  0E09               	addwf	(0+?___awdiv),c
  4532  002466  2625               	movf	(0+?___awdiv),c,w
  4533  002468  5025               	mullw	04h
  4534  00246A  0D04               	movlw	low((__powers_))
  4535  00246C  0E01               	addwf	(prodl),c,w
  4536  00246E  24F3               	movwf	tblptrl
  4537  002470  6EF6               	movlw	high((__powers_))
  4538  002472  0E06               	addwfc	(prodh),c,w
  4539  002474  20F4               	movwf	tblptrh
  4540  002476  6EF7               	if	0	;There are less than 3 active tblptr bytes
  4541  002478                     	clrf	tblptru
  4543                           	global __mediumconst
  4546  002478                     	tblrd*+
  4547  002478  0009               		dw	0FFFFh; errata NOP
  4548  00247A  FFFF               
  4549                           	movff	tablat,(c:___flmul@b)
  4550  00247C  CFF5 F02D          	tblrd*+
  4551  002480  0009               		dw	0FFFFh; errata NOP
  4552  002482  FFFF               
  4553                           	movff	tablat,(c:___flmul@b+1)
  4554  002484  CFF5 F02E          	tblrd*+
  4555  002488  0009               		dw	0FFFFh; errata NOP
  4556  00248A  FFFF               
  4557                           	movff	tablat,(c:___flmul@b+2)
  4558  00248C  CFF5 F02F          	tblrd*-
  4559  002490  000A               		dw	0FFFFh; errata NOP
  4560  002492  FFFF               
  4561                           	movff	tablat,(c:___flmul@b+3)
  4562  002494  CFF5 F030          	movlw	high(0Ah)
  4563  002498  0E00               	movwf	((c:___awmod@divisor+1)),c
  4564  00249A  6E22               	movlw	low(0Ah)
  4565  00249C  0E0A               	movwf	((c:___awmod@divisor)),c
  4566  00249E  6E21               	movf	((c:scale@scl)),c,w
  4567  0024A0  504E               	movwf	((c:___awmod@dividend)),c
  4568  0024A2  6E1F               	clrf	((c:___awmod@dividend+1)),c
  4569  0024A4  6A20               	btfsc	((c:___awmod@dividend)),c,7
  4570  0024A6  BE1F               	decf	((c:___awmod@dividend+1)),c
  4571  0024A8  0620               	call	___awmod	;wreg free
  4572  0024AA  ECE3  F01A         	movf	(0+?___awmod),c,w
  4573  0024AE  501F               	mullw	04h
  4574  0024B0  0D04               	movlw	low((__powers_))
  4575  0024B2  0E01               	addwf	(prodl),c,w
  4576  0024B4  24F3               	movwf	tblptrl
  4577  0024B6  6EF6               	movlw	high((__powers_))
  4578  0024B8  0E06               	addwfc	(prodh),c,w
  4579  0024BA  20F4               	movwf	tblptrh
  4580  0024BC  6EF7               	if	0	;There are less than 3 active tblptr bytes
  4581  0024BE                     	clrf	tblptru
  4583                           	global __mediumconst
  4586  0024BE                     	tblrd*+
  4587  0024BE  0009               		dw	0FFFFh; errata NOP
  4588  0024C0  FFFF               
  4589                           	movff	tablat,(c:___flmul@a)
  4590  0024C2  CFF5 F031          	tblrd*+
  4591  0024C6  0009               		dw	0FFFFh; errata NOP
  4592  0024C8  FFFF               
  4593                           	movff	tablat,(c:___flmul@a+1)
  4594  0024CA  CFF5 F032          	tblrd*+
  4595  0024CE  0009               		dw	0FFFFh; errata NOP
  4596  0024D0  FFFF               
  4597                           	movff	tablat,(c:___flmul@a+2)
  4598  0024D2  CFF5 F033          	tblrd*-
  4599  0024D6  000A               		dw	0FFFFh; errata NOP
  4600  0024D8  FFFF               
  4601                           	movff	tablat,(c:___flmul@a+3)
  4602  0024DA  CFF5 F034          	call	___flmul	;wreg free
  4603  0024DE  ECCC  F00D         	movff	0+?___flmul,(c:?_scale)
  4604  0024E2  C02D  F046         	movff	1+?___flmul,(c:?_scale+1)
  4605  0024E6  C02E  F047         	movff	2+?___flmul,(c:?_scale+2)
  4606  0024EA  C02F  F048         	movff	3+?___flmul,(c:?_scale+3)
  4607  0024EE  C030  F049         	
  4608                           	goto	l93
  4609  0024F2  EF9A  F012         	
  4610                           l2735:
  4611  0024F6                     	goto	l93
  4612  0024F6  EF9A  F012         	
  4613                           l98:
  4614  0024FA                     	goto	l2737
  4615  0024FA  EF7F  F012         	line	448
  4616                           	
  4617                           l97:
  4618  0024FE                     	
  4619                           l2737:
  4620  0024FE                     ;doprnt.c: 448: return _powers_[(unsigned char)scl];
  4621                           	movf	((c:scale@scl)),c,w
  4622  002500  504E               	mullw	04h
  4623  002502  0D04               	movlw	low((__powers_))
  4624  002504  0E01               	addwf	(prodl),c,w
  4625  002506  24F3               	movwf	tblptrl
  4626  002508  6EF6               	movlw	high((__powers_))
  4627  00250A  0E06               	addwfc	(prodh),c,w
  4628  00250C  20F4               	movwf	tblptrh
  4629  00250E  6EF7               	if	0	;There are less than 3 active tblptr bytes
  4630  002510                     	clrf	tblptru
  4632                           	global __mediumconst
  4635  002510                     	tblrd*+
  4636  002510  0009               		dw	0FFFFh; errata NOP
  4637  002512  FFFF               
  4638                           	movff	tablat,(c:?_scale)
  4639  002514  CFF5 F046          	tblrd*+
  4640  002518  0009               		dw	0FFFFh; errata NOP
  4641  00251A  FFFF               
  4642                           	movff	tablat,(c:?_scale+1)
  4643  00251C  CFF5 F047          	tblrd*+
  4644  002520  0009               		dw	0FFFFh; errata NOP
  4645  002522  FFFF               
  4646                           	movff	tablat,(c:?_scale+2)
  4647  002524  CFF5 F048          	tblrd*-
  4648  002528  000A               		dw	0FFFFh; errata NOP
  4649  00252A  FFFF               
  4650                           	movff	tablat,(c:?_scale+3)
  4651  00252C  CFF5 F049          	goto	l93
  4652  002530  EF9A  F012         	
  4653                           l2739:
  4654  002534                     	line	449
  4655                           	
  4656                           l93:
  4657  002534                     	return	;funcret
  4658  002536  0012               	dw	0FFFFh; errata NOP
  4659  002538  FFFF               	opt stack 0
  4660                           GLOBAL	__end_of_scale
  4661                           	__end_of_scale:
  4662  00253A                     	signat	_scale,4220
  4663                           	global	___awmod
  4664                           
  4665 ;; *************** function ___awmod *****************
  4666 ;; Defined at:
  4667 ;;		line 7 in file "C:\Program Files (x86)\Microchip\xc8\v2.00\pic\sources\c90\common\awmod.c"
  4668 ;; Parameters:    Size  Location     Type
  4669 ;;  dividend        2   30[COMRAM] int 
  4670 ;;  divisor         2   32[COMRAM] int 
  4671 ;; Auto vars:     Size  Location     Type
  4672 ;;  sign            1   35[COMRAM] unsigned char 
  4673 ;;  counter         1   34[COMRAM] unsigned char 
  4674 ;; Return value:  Size  Location     Type
  4675 ;;                  2   30[COMRAM] int 
  4676 ;; Registers used:
  4677 ;;		wreg, status,2, status,0
  4678 ;; Tracked objects:
  4679 ;;		On entry : 0/0
  4680 ;;		On exit  : 0/0
  4681 ;;		Unchanged: 0/0
  4682 ;; Data sizes:     COMRAM   BANK0   BANK1   BANK2   BANK3   BANK4   BANK5
  4683 ;;      Params:         4       0       0       0       0       0       0
  4684 ;;      Locals:         2       0       0       0       0       0       0
  4685 ;;      Temps:          0       0       0       0       0       0       0
  4686 ;;      Totals:         6       0       0       0       0       0       0
  4687 ;;Total ram usage:        6 bytes
  4688 ;; Hardware stack levels used:    1
  4689 ;; Hardware stack levels required when called:    3
  4690 ;; This function calls:
  4691 ;;		Nothing
  4692 ;; This function is called by:
  4693 ;;		_scale
  4694 ;; This function uses a non-reentrant model
  4695 ;;
  4696                           psect	text3,class=CODE,space=0,reloc=2,group=1
  4697                           	file	"C:\Program Files (x86)\Microchip\xc8\v2.00\pic\sources\c90\common\awmod.c"
  4698                           	line	7
  4699                           global __ptext3
  4700                           __ptext3:
  4701  0035C6                     psect	text3
  4702                           	file	"C:\Program Files (x86)\Microchip\xc8\v2.00\pic\sources\c90\common\awmod.c"
  4703                           	line	7
  4704                           	global	__size_of___awmod
  4705                           	__size_of___awmod	equ	__end_of___awmod-___awmod
  4706  0000                     	
  4707                           ___awmod:
  4708  0035C6                     ;incstack = 0
  4709                           	opt	stack 25
  4710                           	line	12
  4711                           	
  4712                           l2607:
  4713  0035C8                     	movlw	low(0)
  4714  0035C8  0E00               	movwf	((c:___awmod@sign)),c
  4715  0035CA  6E24               	line	13
  4716                           	
  4717                           l2609:
  4718  0035CC                     	btfsc	((c:___awmod@dividend+1)),c,7
  4719  0035CC  BE20               	goto	u2680
  4720  0035CE  EFEE  F01A         	goto	u2681
  4721  0035D2  EFEB  F01A         
  4722                           u2681:
  4723  0035D6                     	goto	l2615
  4724  0035D8  EFF7  F01A         u2680:
  4725  0035DC                     	line	14
  4726                           	
  4727                           l2611:
  4728  0035DE                     	negf	((c:___awmod@dividend)),c
  4729  0035DE  6C1F               	comf	((c:___awmod@dividend+1)),c
  4730  0035E0  1E20               	btfsc	status,0
  4731  0035E2  B0D8               	incf	((c:___awmod@dividend+1)),c
  4732  0035E4  2A20               	line	15
  4733                           	
  4734                           l2613:
  4735  0035E6                     	movlw	low(01h)
  4736  0035E6  0E01               	movwf	((c:___awmod@sign)),c
  4737  0035E8  6E24               	goto	l2615
  4738  0035EA  EFF7  F01A         	line	16
  4739                           	
  4740                           l431:
  4741  0035EE                     	line	17
  4742                           	
  4743                           l2615:
  4744  0035EE                     	btfsc	((c:___awmod@divisor+1)),c,7
  4745  0035F0  BE22               	goto	u2690
  4746  0035F2  EF00  F01B         	goto	u2691
  4747  0035F6  EFFD  F01A         
  4748                           u2691:
  4749  0035FA                     	goto	l2619
  4750  0035FC  EF07  F01B         u2690:
  4751  003600                     	line	18
  4752                           	
  4753                           l2617:
  4754  003602                     	negf	((c:___awmod@divisor)),c
  4755  003602  6C21               	comf	((c:___awmod@divisor+1)),c
  4756  003604  1E22               	btfsc	status,0
  4757  003606  B0D8               	incf	((c:___awmod@divisor+1)),c
  4758  003608  2A22               	goto	l2619
  4759  00360A  EF07  F01B         	
  4760                           l432:
  4761  00360E                     	line	19
  4762                           	
  4763                           l2619:
  4764  00360E                     	movf	((c:___awmod@divisor)),c,w
  4765  003610  5021               iorwf	((c:___awmod@divisor+1)),c,w
  4766  003612  1022               	btfsc	status,2
  4767  003614  B4D8               	goto	u2701
  4768  003616  EF0F  F01B         	goto	u2700
  4769  00361A  EF12  F01B         
  4770                           u2701:
  4771  00361E                     	goto	l2635
  4772  003620  EF4B  F01B         u2700:
  4773  003624                     	line	20
  4774                           	
  4775                           l2621:
  4776  003626                     	movlw	low(01h)
  4777  003626  0E01               	movwf	((c:___awmod@counter)),c
  4778  003628  6E23               	line	21
  4779                           	goto	l2625
  4780  00362A  EF1E  F01B         	
  4781                           l435:
  4782  00362E                     	line	22
  4783                           	
  4784                           l2623:
  4785  00362E                     	bcf	status,0
  4786  003630  90D8               	rlcf	((c:___awmod@divisor)),c
  4787  003632  3621               	rlcf	((c:___awmod@divisor+1)),c
  4788  003634  3622               	line	23
  4789                           	incf	((c:___awmod@counter)),c
  4790  003636  2A23               	goto	l2625
  4791  003638  EF1E  F01B         	line	24
  4792                           	
  4793                           l434:
  4794  00363C                     	line	21
  4795                           	
  4796                           l2625:
  4797  00363C                     	
  4798                           	btfss	((c:___awmod@divisor+1)),c,(15)&7
  4799  00363E  AE22               	goto	u2711
  4800  003640  EF24  F01B         	goto	u2710
  4801  003644  EF27  F01B         u2711:
  4802  003648                     	goto	l2623
  4803  00364A  EF17  F01B         u2710:
  4804  00364E                     	goto	l2627
  4805  003650  EF2C  F01B         	
  4806                           l436:
  4807  003654                     	goto	l2627
  4808  003654  EF2C  F01B         	line	25
  4809                           	
  4810                           l437:
  4811  003658                     	line	26
  4812                           	
  4813                           l2627:
  4814  003658                     		movf	((c:___awmod@divisor)),c,w
  4815  00365A  5021               	subwf	((c:___awmod@dividend)),c,w
  4816  00365C  5C1F               	movf	((c:___awmod@divisor+1)),c,w
  4817  00365E  5022               	subwfb	((c:___awmod@dividend+1)),c,w
  4818  003660  5820               	btfss	status,0
  4819  003662  A0D8               	goto	u2721
  4820  003664  EF36  F01B         	goto	u2720
  4821  003668  EF39  F01B         
  4822                           u2721:
  4823  00366C                     	goto	l2631
  4824  00366E  EF40  F01B         u2720:
  4825  003672                     	line	27
  4826                           	
  4827                           l2629:
  4828  003674                     	movf	((c:___awmod@divisor)),c,w
  4829  003674  5021               	subwf	((c:___awmod@dividend)),c
  4830  003676  5E1F               	movf	((c:___awmod@divisor+1)),c,w
  4831  003678  5022               	subwfb	((c:___awmod@dividend+1)),c
  4832  00367A  5A20               
  4833                           	goto	l2631
  4834  00367C  EF40  F01B         	
  4835                           l438:
  4836  003680                     	line	28
  4837                           	
  4838                           l2631:
  4839  003680                     	bcf	status,0
  4840  003682  90D8               	rrcf	((c:___awmod@divisor+1)),c
  4841  003684  3222               	rrcf	((c:___awmod@divisor)),c
  4842  003686  3221               	line	29
  4843                           	
  4844                           l2633:
  4845  003688                     	decfsz	((c:___awmod@counter)),c
  4846  003688  2E23               	
  4847                           	goto	l2627
  4848  00368A  EF2C  F01B         	goto	l2635
  4849  00368E  EF4B  F01B         	
  4850                           l439:
  4851  003692                     	goto	l2635
  4852  003692  EF4B  F01B         	line	30
  4853                           	
  4854                           l433:
  4855  003696                     	line	31
  4856                           	
  4857                           l2635:
  4858  003696                     	movf	((c:___awmod@sign)),c,w
  4859  003698  5024               	btfsc	status,2
  4860  00369A  B4D8               	goto	u2731
  4861  00369C  EF52  F01B         	goto	u2730
  4862  0036A0  EF55  F01B         u2731:
  4863  0036A4                     	goto	l2639
  4864  0036A6  EF5C  F01B         u2730:
  4865  0036AA                     	line	32
  4866                           	
  4867                           l2637:
  4868  0036AC                     	negf	((c:___awmod@dividend)),c
  4869  0036AC  6C1F               	comf	((c:___awmod@dividend+1)),c
  4870  0036AE  1E20               	btfsc	status,0
  4871  0036B0  B0D8               	incf	((c:___awmod@dividend+1)),c
  4872  0036B2  2A20               	goto	l2639
  4873  0036B4  EF5C  F01B         	
  4874                           l440:
  4875  0036B8                     	line	33
  4876                           	
  4877                           l2639:
  4878  0036B8                     	movff	(c:___awmod@dividend),(c:?___awmod)
  4879  0036BA  C01F  F01F         	movff	(c:___awmod@dividend+1),(c:?___awmod+1)
  4880  0036BE  C020  F020         	goto	l441
  4881  0036C2  EF63  F01B         	
  4882                           l2641:
  4883  0036C6                     	line	34
  4884                           	
  4885                           l441:
  4886  0036C6                     	return	;funcret
  4887  0036C8  0012               	dw	0FFFFh; errata NOP
  4888  0036CA  FFFF               	opt stack 0
  4889                           GLOBAL	__end_of___awmod
  4890                           	__end_of___awmod:
  4891  0036CC                     	signat	___awmod,8314
  4892                           	global	___awdiv
  4893                           
  4894 ;; *************** function ___awdiv *****************
  4895 ;; Defined at:
  4896 ;;		line 7 in file "C:\Program Files (x86)\Microchip\xc8\v2.00\pic\sources\c90\common\awdiv.c"
  4897 ;; Parameters:    Size  Location     Type
  4898 ;;  dividend        2   36[COMRAM] int 
  4899 ;;  divisor         2   38[COMRAM] int 
  4900 ;; Auto vars:     Size  Location     Type
  4901 ;;  quotient        2   42[COMRAM] int 
  4902 ;;  sign            1   41[COMRAM] unsigned char 
  4903 ;;  counter         1   40[COMRAM] unsigned char 
  4904 ;; Return value:  Size  Location     Type
  4905 ;;                  2   36[COMRAM] int 
  4906 ;; Registers used:
  4907 ;;		wreg, status,2, status,0
  4908 ;; Tracked objects:
  4909 ;;		On entry : 0/0
  4910 ;;		On exit  : 0/0
  4911 ;;		Unchanged: 0/0
  4912 ;; Data sizes:     COMRAM   BANK0   BANK1   BANK2   BANK3   BANK4   BANK5
  4913 ;;      Params:         4       0       0       0       0       0       0
  4914 ;;      Locals:         4       0       0       0       0       0       0
  4915 ;;      Temps:          0       0       0       0       0       0       0
  4916 ;;      Totals:         8       0       0       0       0       0       0
  4917 ;;Total ram usage:        8 bytes
  4918 ;; Hardware stack levels used:    1
  4919 ;; Hardware stack levels required when called:    3
  4920 ;; This function calls:
  4921 ;;		Nothing
  4922 ;; This function is called by:
  4923 ;;		_scale
  4924 ;;		_printf
  4925 ;; This function uses a non-reentrant model
  4926 ;;
  4927                           psect	text4,class=CODE,space=0,reloc=2,group=1
  4928                           	file	"C:\Program Files (x86)\Microchip\xc8\v2.00\pic\sources\c90\common\awdiv.c"
  4929                           	line	7
  4930                           global __ptext4
  4931                           __ptext4:
  4932  0034AC                     psect	text4
  4933                           	file	"C:\Program Files (x86)\Microchip\xc8\v2.00\pic\sources\c90\common\awdiv.c"
  4934                           	line	7
  4935                           	global	__size_of___awdiv
  4936                           	__size_of___awdiv	equ	__end_of___awdiv-___awdiv
  4937  0000                     	
  4938                           ___awdiv:
  4939  0034AC                     ;incstack = 0
  4940                           	opt	stack 25
  4941                           	line	13
  4942                           	
  4943                           l2563:
  4944  0034AE                     	movlw	low(0)
  4945  0034AE  0E00               	movwf	((c:___awdiv@sign)),c
  4946  0034B0  6E2A               	line	14
  4947                           	
  4948                           l2565:
  4949  0034B2                     	btfsc	((c:___awdiv@divisor+1)),c,7
  4950  0034B2  BE28               	goto	u2620
  4951  0034B4  EF61  F01A         	goto	u2621
  4952  0034B8  EF5E  F01A         
  4953                           u2621:
  4954  0034BC                     	goto	l2571
  4955  0034BE  EF6A  F01A         u2620:
  4956  0034C2                     	line	15
  4957                           	
  4958                           l2567:
  4959  0034C4                     	negf	((c:___awdiv@divisor)),c
  4960  0034C4  6C27               	comf	((c:___awdiv@divisor+1)),c
  4961  0034C6  1E28               	btfsc	status,0
  4962  0034C8  B0D8               	incf	((c:___awdiv@divisor+1)),c
  4963  0034CA  2A28               	line	16
  4964                           	
  4965                           l2569:
  4966  0034CC                     	movlw	low(01h)
  4967  0034CC  0E01               	movwf	((c:___awdiv@sign)),c
  4968  0034CE  6E2A               	goto	l2571
  4969  0034D0  EF6A  F01A         	line	17
  4970                           	
  4971                           l418:
  4972  0034D4                     	line	18
  4973                           	
  4974                           l2571:
  4975  0034D4                     	btfsc	((c:___awdiv@dividend+1)),c,7
  4976  0034D6  BE26               	goto	u2630
  4977  0034D8  EF73  F01A         	goto	u2631
  4978  0034DC  EF70  F01A         
  4979                           u2631:
  4980  0034E0                     	goto	l2577
  4981  0034E2  EF7C  F01A         u2630:
  4982  0034E6                     	line	19
  4983                           	
  4984                           l2573:
  4985  0034E8                     	negf	((c:___awdiv@dividend)),c
  4986  0034E8  6C25               	comf	((c:___awdiv@dividend+1)),c
  4987  0034EA  1E26               	btfsc	status,0
  4988  0034EC  B0D8               	incf	((c:___awdiv@dividend+1)),c
  4989  0034EE  2A26               	line	20
  4990                           	
  4991                           l2575:
  4992  0034F0                     	movlw	(01h)&0ffh
  4993  0034F0  0E01               	xorwf	((c:___awdiv@sign)),c
  4994  0034F2  1A2A               	goto	l2577
  4995  0034F4  EF7C  F01A         	line	21
  4996                           	
  4997                           l419:
  4998  0034F8                     	line	22
  4999                           	
  5000                           l2577:
  5001  0034F8                     	movlw	high(0)
  5002  0034FA  0E00               	movwf	((c:___awdiv@quotient+1)),c
  5003  0034FC  6E2C               	movlw	low(0)
  5004  0034FE  0E00               	movwf	((c:___awdiv@quotient)),c
  5005  003500  6E2B               	line	23
  5006                           	
  5007                           l2579:
  5008  003502                     	movf	((c:___awdiv@divisor)),c,w
  5009  003502  5027               iorwf	((c:___awdiv@divisor+1)),c,w
  5010  003504  1028               	btfsc	status,2
  5011  003506  B4D8               	goto	u2641
  5012  003508  EF88  F01A         	goto	u2640
  5013  00350C  EF8B  F01A         
  5014                           u2641:
  5015  003510                     	goto	l2599
  5016  003512  EFC8  F01A         u2640:
  5017  003516                     	line	24
  5018                           	
  5019                           l2581:
  5020  003518                     	movlw	low(01h)
  5021  003518  0E01               	movwf	((c:___awdiv@counter)),c
  5022  00351A  6E29               	line	25
  5023                           	goto	l2585
  5024  00351C  EF97  F01A         	
  5025                           l422:
  5026  003520                     	line	26
  5027                           	
  5028                           l2583:
  5029  003520                     	bcf	status,0
  5030  003522  90D8               	rlcf	((c:___awdiv@divisor)),c
  5031  003524  3627               	rlcf	((c:___awdiv@divisor+1)),c
  5032  003526  3628               	line	27
  5033                           	incf	((c:___awdiv@counter)),c
  5034  003528  2A29               	goto	l2585
  5035  00352A  EF97  F01A         	line	28
  5036                           	
  5037                           l421:
  5038  00352E                     	line	25
  5039                           	
  5040                           l2585:
  5041  00352E                     	
  5042                           	btfss	((c:___awdiv@divisor+1)),c,(15)&7
  5043  003530  AE28               	goto	u2651
  5044  003532  EF9D  F01A         	goto	u2650
  5045  003536  EFA0  F01A         u2651:
  5046  00353A                     	goto	l2583
  5047  00353C  EF90  F01A         u2650:
  5048  003540                     	goto	l2587
  5049  003542  EFA5  F01A         	
  5050                           l423:
  5051  003546                     	goto	l2587
  5052  003546  EFA5  F01A         	line	29
  5053                           	
  5054                           l424:
  5055  00354A                     	line	30
  5056                           	
  5057                           l2587:
  5058  00354A                     	bcf	status,0
  5059  00354C  90D8               	rlcf	((c:___awdiv@quotient)),c
  5060  00354E  362B               	rlcf	((c:___awdiv@quotient+1)),c
  5061  003550  362C               	line	31
  5062                           	
  5063                           l2589:
  5064  003552                     		movf	((c:___awdiv@divisor)),c,w
  5065  003552  5027               	subwf	((c:___awdiv@dividend)),c,w
  5066  003554  5C25               	movf	((c:___awdiv@divisor+1)),c,w
  5067  003556  5028               	subwfb	((c:___awdiv@dividend+1)),c,w
  5068  003558  5826               	btfss	status,0
  5069  00355A  A0D8               	goto	u2661
  5070  00355C  EFB2  F01A         	goto	u2660
  5071  003560  EFB5  F01A         
  5072                           u2661:
  5073  003564                     	goto	l2595
  5074  003566  EFBD  F01A         u2660:
  5075  00356A                     	line	32
  5076                           	
  5077                           l2591:
  5078  00356C                     	movf	((c:___awdiv@divisor)),c,w
  5079  00356C  5027               	subwf	((c:___awdiv@dividend)),c
  5080  00356E  5E25               	movf	((c:___awdiv@divisor+1)),c,w
  5081  003570  5028               	subwfb	((c:___awdiv@dividend+1)),c
  5082  003572  5A26               
  5083                           	line	33
  5084                           	
  5085                           l2593:
  5086  003574                     	bsf	(0+(0/8)+(c:___awdiv@quotient)),c,(0)&7
  5087  003574  802B               	goto	l2595
  5088  003576  EFBD  F01A         	line	34
  5089                           	
  5090                           l425:
  5091  00357A                     	line	35
  5092                           	
  5093                           l2595:
  5094  00357A                     	bcf	status,0
  5095  00357C  90D8               	rrcf	((c:___awdiv@divisor+1)),c
  5096  00357E  3228               	rrcf	((c:___awdiv@divisor)),c
  5097  003580  3227               	line	36
  5098                           	
  5099                           l2597:
  5100  003582                     	decfsz	((c:___awdiv@counter)),c
  5101  003582  2E29               	
  5102                           	goto	l2587
  5103  003584  EFA5  F01A         	goto	l2599
  5104  003588  EFC8  F01A         	
  5105                           l426:
  5106  00358C                     	goto	l2599
  5107  00358C  EFC8  F01A         	line	37
  5108                           	
  5109                           l420:
  5110  003590                     	line	38
  5111                           	
  5112                           l2599:
  5113  003590                     	movf	((c:___awdiv@sign)),c,w
  5114  003592  502A               	btfsc	status,2
  5115  003594  B4D8               	goto	u2671
  5116  003596  EFCF  F01A         	goto	u2670
  5117  00359A  EFD2  F01A         u2671:
  5118  00359E                     	goto	l2603
  5119  0035A0  EFD9  F01A         u2670:
  5120  0035A4                     	line	39
  5121                           	
  5122                           l2601:
  5123  0035A6                     	negf	((c:___awdiv@quotient)),c
  5124  0035A6  6C2B               	comf	((c:___awdiv@quotient+1)),c
  5125  0035A8  1E2C               	btfsc	status,0
  5126  0035AA  B0D8               	incf	((c:___awdiv@quotient+1)),c
  5127  0035AC  2A2C               	goto	l2603
  5128  0035AE  EFD9  F01A         	
  5129                           l427:
  5130  0035B2                     	line	40
  5131                           	
  5132                           l2603:
  5133  0035B2                     	movff	(c:___awdiv@quotient),(c:?___awdiv)
  5134  0035B4  C02B  F025         	movff	(c:___awdiv@quotient+1),(c:?___awdiv+1)
  5135  0035B8  C02C  F026         	goto	l428
  5136  0035BC  EFE0  F01A         	
  5137                           l2605:
  5138  0035C0                     	line	41
  5139                           	
  5140                           l428:
  5141  0035C0                     	return	;funcret
  5142  0035C2  0012               	dw	0FFFFh; errata NOP
  5143  0035C4  FFFF               	opt stack 0
  5144                           GLOBAL	__end_of___awdiv
  5145                           	__end_of___awdiv:
  5146  0035C6                     	signat	___awdiv,8314
  5147                           	global	_putch
  5148                           
  5149 ;; *************** function _putch *****************
  5150 ;; Defined at:
  5151 ;;		line 75 in file "HW2.c"
  5152 ;; Parameters:    Size  Location     Type
  5153 ;;  data            1    wreg     unsigned char 
  5154 ;; Auto vars:     Size  Location     Type
  5155 ;;  data            1   30[COMRAM] unsigned char 
  5156 ;; Return value:  Size  Location     Type
  5157 ;;                  1    wreg      void 
  5158 ;; Registers used:
  5159 ;;		wreg
  5160 ;; Tracked objects:
  5161 ;;		On entry : 0/0
  5162 ;;		On exit  : 0/0
  5163 ;;		Unchanged: 0/0
  5164 ;; Data sizes:     COMRAM   BANK0   BANK1   BANK2   BANK3   BANK4   BANK5
  5165 ;;      Params:         0       0       0       0       0       0       0
  5166 ;;      Locals:         1       0       0       0       0       0       0
  5167 ;;      Temps:          0       0       0       0       0       0       0
  5168 ;;      Totals:         1       0       0       0       0       0       0
  5169 ;;Total ram usage:        1 bytes
  5170 ;; Hardware stack levels used:    1
  5171 ;; Hardware stack levels required when called:    3
  5172 ;; This function calls:
  5173 ;;		Nothing
  5174 ;; This function is called by:
  5175 ;;		_printf
  5176 ;; This function uses a non-reentrant model
  5177 ;;
  5178                           psect	text5,class=CODE,space=0,reloc=2,group=0
  5179                           	file	"HW2.c"
  5180                           	line	75
  5181                           global __ptext5
  5182                           __ptext5:
  5183  003C3C                     psect	text5
  5184                           	file	"HW2.c"
  5185                           	line	75
  5186                           	global	__size_of_putch
  5187                           	__size_of_putch	equ	__end_of_putch-_putch
  5188  0000                     	
  5189                           _putch:
  5190  003C3C                     ;incstack = 0
  5191                           	opt	stack 26
  5192                           ;putch@data stored from wreg
  5193                           	movwf	((c:putch@data)),c
  5194  003C3E  6E1F               	line	76
  5195                           	
  5196                           l2681:
  5197  003C40                     ;HW2.c: 76: while(!PIR1bits.TXIF)
  5198                           	goto	l49
  5199  003C40  EF22  F01E         	
  5200                           l50:
  5201  003C44                     	line	77
  5202                           ;HW2.c: 77: continue;
  5203                           	
  5204                           l49:
  5205  003C44                     	line	76
  5206                           	btfss	((c:3998)),c,4	;volatile
  5207  003C46  A89E               	goto	u2801
  5208  003C48  EF28  F01E         	goto	u2800
  5209  003C4C  EF2B  F01E         u2801:
  5210  003C50                     	goto	l49
  5211  003C52  EF22  F01E         u2800:
  5212  003C56                     	goto	l2683
  5213  003C58  EF2E  F01E         	
  5214                           l51:
  5215  003C5C                     	line	79
  5216                           	
  5217                           l2683:
  5218  003C5C                     ;HW2.c: 79: TXREG = data;
  5219                           	movff	(c:putch@data),(c:4013)	;volatile
  5220  003C5E  C01F  FFAD         	line	80
  5221                           	
  5222                           l52:
  5223  003C62                     	return	;funcret
  5224  003C62  0012               	dw	0FFFFh; errata NOP
  5225  003C64  FFFF               	opt stack 0
  5226                           GLOBAL	__end_of_putch
  5227                           	__end_of_putch:
  5228  003C66                     	signat	_putch,4217
  5229                           	global	_isdigit
  5230                           
  5231 ;; *************** function _isdigit *****************
  5232 ;; Defined at:
  5233 ;;		line 8 in file "C:\Program Files (x86)\Microchip\xc8\v2.00\pic\sources\c90\common\isdigit.c"
  5234 ;; Parameters:    Size  Location     Type
  5235 ;;  c               1    wreg     unsigned char 
  5236 ;; Auto vars:     Size  Location     Type
  5237 ;;  c               1   32[COMRAM] unsigned char 
  5238 ;; Return value:  Size  Location     Type
  5239 ;;		None               void
  5240 ;; Registers used:
  5241 ;;		wreg, status,2, status,0
  5242 ;; Tracked objects:
  5243 ;;		On entry : 0/0
  5244 ;;		On exit  : 0/0
  5245 ;;		Unchanged: 0/0
  5246 ;; Data sizes:     COMRAM   BANK0   BANK1   BANK2   BANK3   BANK4   BANK5
  5247 ;;      Params:         0       0       0       0       0       0       0
  5248 ;;      Locals:         2       0       0       0       0       0       0
  5249 ;;      Temps:          1       0       0       0       0       0       0
  5250 ;;      Totals:         3       0       0       0       0       0       0
  5251 ;;Total ram usage:        3 bytes
  5252 ;; Hardware stack levels used:    1
  5253 ;; Hardware stack levels required when called:    3
  5254 ;; This function calls:
  5255 ;;		Nothing
  5256 ;; This function is called by:
  5257 ;;		_printf
  5258 ;; This function uses a non-reentrant model
  5259 ;;
  5260                           psect	text6,class=CODE,space=0,reloc=2,group=2
  5261                           	file	"C:\Program Files (x86)\Microchip\xc8\v2.00\pic\sources\c90\common\isdigit.c"
  5262                           	line	8
  5263                           global __ptext6
  5264                           __ptext6:
  5265  003BC2                     psect	text6
  5266                           	file	"C:\Program Files (x86)\Microchip\xc8\v2.00\pic\sources\c90\common\isdigit.c"
  5267                           	line	8
  5268                           	global	__size_of_isdigit
  5269                           	__size_of_isdigit	equ	__end_of_isdigit-_isdigit
  5270  0000                     	
  5271                           _isdigit:
  5272  003BC2                     ;incstack = 0
  5273                           	opt	stack 26
  5274                           ;isdigit@c stored from wreg
  5275                           	movwf	((c:isdigit@c)),c
  5276  003BC4  6E21               	line	14
  5277                           	
  5278                           l2741:
  5279  003BC6                     	movlw	low(0)
  5280  003BC6  0E00               	movwf	((c:_isdigit$1002)),c
  5281  003BC8  6E20               	
  5282                           l2743:
  5283  003BCA                     		movlw	03Ah-0
  5284  003BCA  0E3A               	cpfslt	((c:isdigit@c)),c
  5285  003BCC  6021               	goto	u2881
  5286  003BCE  EFEB  F01D         	goto	u2880
  5287  003BD2  EFEE  F01D         
  5288                           u2881:
  5289  003BD6                     	goto	l2749
  5290  003BD8  EFFD  F01D         u2880:
  5291  003BDC                     	
  5292                           l2745:
  5293  003BDE                     		movlw	030h-1
  5294  003BDE  0E2F               	cpfsgt	((c:isdigit@c)),c
  5295  003BE0  6421               	goto	u2891
  5296  003BE2  EFF5  F01D         	goto	u2890
  5297  003BE6  EFF8  F01D         
  5298                           u2891:
  5299  003BEA                     	goto	l2749
  5300  003BEC  EFFD  F01D         u2890:
  5301  003BF0                     	
  5302                           l2747:
  5303  003BF2                     	movlw	low(01h)
  5304  003BF2  0E01               	movwf	((c:_isdigit$1002)),c
  5305  003BF4  6E20               	goto	l2749
  5306  003BF6  EFFD  F01D         	
  5307                           l894:
  5308  003BFA                     	
  5309                           l2749:
  5310  003BFA                     	movff	(c:_isdigit$1002),??_isdigit+0+0
  5311  003BFC  C020  F01F         	rrcf	(??_isdigit+0+0),c,w
  5312  003C00  301F               	goto	l895
  5313  003C02  EF03  F01E         	
  5314                           l2751:
  5315  003C06                     	line	15
  5316                           	
  5317                           l895:
  5318  003C06                     	return	;funcret
  5319  003C08  0012               	dw	0FFFFh; errata NOP
  5320  003C0A  FFFF               	opt stack 0
  5321                           GLOBAL	__end_of_isdigit
  5322                           	__end_of_isdigit:
  5323  003C0C                     	signat	_isdigit,4216
  5324                           	global	_fround
  5325                           
  5326 ;; *************** function _fround *****************
  5327 ;; Defined at:
  5328 ;;		line 417 in file "C:\Program Files (x86)\Microchip\xc8\v2.00\pic\sources\c90\common\doprnt.c"
  5329 ;; Parameters:    Size  Location     Type
  5330 ;;  prec            1    wreg     unsigned char 
  5331 ;; Auto vars:     Size  Location     Type
  5332 ;;  prec            1   81[COMRAM] unsigned char 
  5333 ;; Return value:  Size  Location     Type
  5334 ;;                  4   69[COMRAM] unsigned char 
  5335 ;; Registers used:
  5336 ;;		wreg, status,2, status,0, tblptrl, tblptrh, tblptru, prodl, prodh, cstack
  5337 ;; Tracked objects:
  5338 ;;		On entry : 0/0
  5339 ;;		On exit  : 0/0
  5340 ;;		Unchanged: 0/0
  5341 ;; Data sizes:     COMRAM   BANK0   BANK1   BANK2   BANK3   BANK4   BANK5
  5342 ;;      Params:         4       0       0       0       0       0       0
  5343 ;;      Locals:         9       0       0       0       0       0       0
  5344 ;;      Temps:          0       0       0       0       0       0       0
  5345 ;;      Totals:        13       0       0       0       0       0       0
  5346 ;;Total ram usage:       13 bytes
  5347 ;; Hardware stack levels used:    1
  5348 ;; Hardware stack levels required when called:    4
  5349 ;; This function calls:
  5350 ;;		___flmul
  5351 ;;		___lwdiv
  5352 ;;		___lwmod
  5353 ;; This function is called by:
  5354 ;;		_printf
  5355 ;; This function uses a non-reentrant model
  5356 ;;
  5357                           psect	text7,class=CODE,space=0,reloc=2,group=0
  5358                           	file	"C:\Program Files (x86)\Microchip\xc8\v2.00\pic\sources\c90\common\doprnt.c"
  5359                           	line	417
  5360                           global __ptext7
  5361                           __ptext7:
  5362  00253A                     psect	text7
  5363                           	file	"C:\Program Files (x86)\Microchip\xc8\v2.00\pic\sources\c90\common\doprnt.c"
  5364                           	line	417
  5365                           	global	__size_of_fround
  5366                           	__size_of_fround	equ	__end_of_fround-_fround
  5367  0000                     	
  5368                           _fround:
  5369  00253A                     ;incstack = 0
  5370                           	opt	stack 25
  5371                           ;fround@prec stored from wreg
  5372                           	movwf	((c:fround@prec)),c
  5373  00253C  6E52               	line	421
  5374                           	
  5375                           l2685:
  5376  00253E                     ;doprnt.c: 421: if(prec>=110)
  5377                           		movlw	06Eh-1
  5378  00253E  0E6D               	cpfsgt	((c:fround@prec)),c
  5379  002540  6452               	goto	u2811
  5380  002542  EFA5  F012         	goto	u2810
  5381  002546  EFA8  F012         
  5382                           u2811:
  5383  00254A                     	goto	l2693
  5384  00254C  EF66  F013         u2810:
  5385  002550                     	line	422
  5386                           	
  5387                           l2687:
  5388  002552                     ;doprnt.c: 422: return 0.5 * _npowers_[prec/100U+18U] * _npowers_[(prec%100U)/10U+9U] * 
                                 _npowers_[prec%10U];
  5389                           	movlw	low(normalize32(0x3f000000))
  5390  002552  0E00               	movwf	((c:___flmul@a)),c
  5391  002554  6E31               	movlw	high(normalize32(0x3f000000))
  5392  002556  0E00               	movwf	((c:___flmul@a+1)),c
  5393  002558  6E32               	movlw	low highword(normalize32(0x3f000000))
  5394  00255A  0E00               	movwf	((c:___flmul@a+2)),c
  5395  00255C  6E33               	movlw	high highword(normalize32(0x3f000000))
  5396  00255E  0E3F               	movwf	((c:___flmul@a+3)),c
  5397  002560  6E34               	movlw	high(064h)
  5398  002562  0E00               	movwf	((c:___lwdiv@divisor+1)),c
  5399  002564  6E27               	movlw	low(064h)
  5400  002566  0E64               	movwf	((c:___lwdiv@divisor)),c
  5401  002568  6E26               	movff	(c:fround@prec),(c:___lwdiv@dividend)
  5402  00256A  C052  F024         	clrf	((c:___lwdiv@dividend+1)),c
  5403  00256E  6A25               	call	___lwdiv	;wreg free
  5404  002570  EC93  F01C         	bcf	status,0
  5405  002574  90D8               	rlcf	(0+?___lwdiv),c
  5406  002576  3624               	rlcf	(1+?___lwdiv),c
  5407  002578  3625               	bcf	status,0
  5408  00257A  90D8               	rlcf	(0+?___lwdiv),c
  5409  00257C  3624               	rlcf	(1+?___lwdiv),c
  5410  00257E  3625               	movlw	048h
  5411  002580  0E48               	addwf	(0+?___lwdiv),c
  5412  002582  2624               	movlw	0
  5413  002584  0E00               	addwfc	(1+?___lwdiv),c
  5414  002586  2225               	movlw	low((__npowers_))
  5415  002588  0E35               	addwf	(0+?___lwdiv),c,w
  5416  00258A  2424               	movwf	tblptrl
  5417  00258C  6EF6               	movlw	high((__npowers_))
  5418  00258E  0E06               	addwfc	(1+?___lwdiv),c,w
  5419  002590  2025               	movwf	tblptrh
  5420  002592  6EF7               	if	0	;There are less than 3 active tblptr bytes
  5421  002594                     	clrf	tblptru
  5423                           	global __mediumconst
  5426  002594                     	tblrd*+
  5427  002594  0009               		dw	0FFFFh; errata NOP
  5428  002596  FFFF               
  5429                           	movff	tablat,(c:___flmul@b)
  5430  002598  CFF5 F02D          	tblrd*+
  5431  00259C  0009               		dw	0FFFFh; errata NOP
  5432  00259E  FFFF               
  5433                           	movff	tablat,(c:___flmul@b+1)
  5434  0025A0  CFF5 F02E          	tblrd*+
  5435  0025A4  0009               		dw	0FFFFh; errata NOP
  5436  0025A6  FFFF               
  5437                           	movff	tablat,(c:___flmul@b+2)
  5438  0025A8  CFF5 F02F          	tblrd*-
  5439  0025AC  000A               		dw	0FFFFh; errata NOP
  5440  0025AE  FFFF               
  5441                           	movff	tablat,(c:___flmul@b+3)
  5442  0025B0  CFF5 F030          	call	___flmul	;wreg free
  5443  0025B4  ECCC  F00D         	movff	0+?___flmul,(c:_fround$1183)
  5444  0025B8  C02D  F04E         	movff	1+?___flmul,(c:_fround$1183+1)
  5445  0025BC  C02E  F04F         	movff	2+?___flmul,(c:_fround$1183+2)
  5446  0025C0  C02F  F050         	movff	3+?___flmul,(c:_fround$1183+3)
  5447  0025C4  C030  F051         	
  5448                           ;doprnt.c: 422: return 0.5 * _npowers_[prec/100U+18U] * _npowers_[(prec%100U)/10U+9U] * 
                                 _npowers_[prec%10U];
  5449                           	movlw	high(0Ah)
  5450  0025C8  0E00               	movwf	((c:___lwdiv@divisor+1)),c
  5451  0025CA  6E27               	movlw	low(0Ah)
  5452  0025CC  0E0A               	movwf	((c:___lwdiv@divisor)),c
  5453  0025CE  6E26               	movlw	high(064h)
  5454  0025D0  0E00               	movwf	((c:___lwmod@divisor+1)),c
  5455  0025D2  6E22               	movlw	low(064h)
  5456  0025D4  0E64               	movwf	((c:___lwmod@divisor)),c
  5457  0025D6  6E21               	movff	(c:fround@prec),(c:___lwmod@dividend)
  5458  0025D8  C052  F01F         	clrf	((c:___lwmod@dividend+1)),c
  5459  0025DC  6A20               	call	___lwmod	;wreg free
  5460  0025DE  ECE4  F01C         	movff	0+?___lwmod,(c:___lwdiv@dividend)
  5461  0025E2  C01F  F024         	movff	1+?___lwmod,(c:___lwdiv@dividend+1)
  5462  0025E6  C020  F025         	call	___lwdiv	;wreg free
  5463  0025EA  EC93  F01C         	bcf	status,0
  5464  0025EE  90D8               	rlcf	(0+?___lwdiv),c
  5465  0025F0  3624               	rlcf	(1+?___lwdiv),c
  5466  0025F2  3625               	bcf	status,0
  5467  0025F4  90D8               	rlcf	(0+?___lwdiv),c
  5468  0025F6  3624               	rlcf	(1+?___lwdiv),c
  5469  0025F8  3625               	movlw	024h
  5470  0025FA  0E24               	addwf	(0+?___lwdiv),c
  5471  0025FC  2624               	movlw	0
  5472  0025FE  0E00               	addwfc	(1+?___lwdiv),c
  5473  002600  2225               	movlw	low((__npowers_))
  5474  002602  0E35               	addwf	(0+?___lwdiv),c,w
  5475  002604  2424               	movwf	tblptrl
  5476  002606  6EF6               	movlw	high((__npowers_))
  5477  002608  0E06               	addwfc	(1+?___lwdiv),c,w
  5478  00260A  2025               	movwf	tblptrh
  5479  00260C  6EF7               	if	0	;There are less than 3 active tblptr bytes
  5480  00260E                     	clrf	tblptru
  5482                           	global __mediumconst
  5485  00260E                     	tblrd*+
  5486  00260E  0009               		dw	0FFFFh; errata NOP
  5487  002610  FFFF               
  5488                           	movff	tablat,(c:___flmul@a)
  5489  002612  CFF5 F031          	tblrd*+
  5490  002616  0009               		dw	0FFFFh; errata NOP
  5491  002618  FFFF               
  5492                           	movff	tablat,(c:___flmul@a+1)
  5493  00261A  CFF5 F032          	tblrd*+
  5494  00261E  0009               		dw	0FFFFh; errata NOP
  5495  002620  FFFF               
  5496                           	movff	tablat,(c:___flmul@a+2)
  5497  002622  CFF5 F033          	tblrd*-
  5498  002626  000A               		dw	0FFFFh; errata NOP
  5499  002628  FFFF               
  5500                           	movff	tablat,(c:___flmul@a+3)
  5501  00262A  CFF5 F034          	movff	(c:_fround$1183),(c:___flmul@b)
  5502  00262E  C04E  F02D         	movff	(c:_fround$1183+1),(c:___flmul@b+1)
  5503  002632  C04F  F02E         	movff	(c:_fround$1183+2),(c:___flmul@b+2)
  5504  002636  C050  F02F         	movff	(c:_fround$1183+3),(c:___flmul@b+3)
  5505  00263A  C051  F030         	call	___flmul	;wreg free
  5506  00263E  ECCC  F00D         	movff	0+?___flmul,(c:_fround$1184)
  5507  002642  C02D  F04A         	movff	1+?___flmul,(c:_fround$1184+1)
  5508  002646  C02E  F04B         	movff	2+?___flmul,(c:_fround$1184+2)
  5509  00264A  C02F  F04C         	movff	3+?___flmul,(c:_fround$1184+3)
  5510  00264E  C030  F04D         	
  5511                           ;doprnt.c: 422: return 0.5 * _npowers_[prec/100U+18U] * _npowers_[(prec%100U)/10U+9U] * 
                                 _npowers_[prec%10U];
  5512                           	movff	(c:_fround$1184),(c:___flmul@b)
  5513  002652  C04A  F02D         	movff	(c:_fround$1184+1),(c:___flmul@b+1)
  5514  002656  C04B  F02E         	movff	(c:_fround$1184+2),(c:___flmul@b+2)
  5515  00265A  C04C  F02F         	movff	(c:_fround$1184+3),(c:___flmul@b+3)
  5516  00265E  C04D  F030         	movlw	high(0Ah)
  5517  002662  0E00               	movwf	((c:___lwmod@divisor+1)),c
  5518  002664  6E22               	movlw	low(0Ah)
  5519  002666  0E0A               	movwf	((c:___lwmod@divisor)),c
  5520  002668  6E21               	movff	(c:fround@prec),(c:___lwmod@dividend)
  5521  00266A  C052  F01F         	clrf	((c:___lwmod@dividend+1)),c
  5522  00266E  6A20               	call	___lwmod	;wreg free
  5523  002670  ECE4  F01C         	bcf	status,0
  5524  002674  90D8               	rlcf	(0+?___lwmod),c
  5525  002676  361F               	rlcf	(1+?___lwmod),c
  5526  002678  3620               	bcf	status,0
  5527  00267A  90D8               	rlcf	(0+?___lwmod),c
  5528  00267C  361F               	rlcf	(1+?___lwmod),c
  5529  00267E  3620               	movlw	low((__npowers_))
  5530  002680  0E35               	addwf	(0+?___lwmod),c,w
  5531  002682  241F               	movwf	tblptrl
  5532  002684  6EF6               	movlw	high((__npowers_))
  5533  002686  0E06               	addwfc	(1+?___lwmod),c,w
  5534  002688  2020               	movwf	tblptrh
  5535  00268A  6EF7               	if	0	;There are less than 3 active tblptr bytes
  5536  00268C                     	clrf	tblptru
  5538                           	global __mediumconst
  5541  00268C                     	tblrd*+
  5542  00268C  0009               		dw	0FFFFh; errata NOP
  5543  00268E  FFFF               
  5544                           	movff	tablat,(c:___flmul@a)
  5545  002690  CFF5 F031          	tblrd*+
  5546  002694  0009               		dw	0FFFFh; errata NOP
  5547  002696  FFFF               
  5548                           	movff	tablat,(c:___flmul@a+1)
  5549  002698  CFF5 F032          	tblrd*+
  5550  00269C  0009               		dw	0FFFFh; errata NOP
  5551  00269E  FFFF               
  5552                           	movff	tablat,(c:___flmul@a+2)
  5553  0026A0  CFF5 F033          	tblrd*-
  5554  0026A4  000A               		dw	0FFFFh; errata NOP
  5555  0026A6  FFFF               
  5556                           	movff	tablat,(c:___flmul@a+3)
  5557  0026A8  CFF5 F034          	call	___flmul	;wreg free
  5558  0026AC  ECCC  F00D         	movff	0+?___flmul,(c:?_fround)
  5559  0026B0  C02D  F046         	movff	1+?___flmul,(c:?_fround+1)
  5560  0026B4  C02E  F047         	movff	2+?___flmul,(c:?_fround+2)
  5561  0026B8  C02F  F048         	movff	3+?___flmul,(c:?_fround+3)
  5562  0026BC  C030  F049         	
  5563                           	goto	l86
  5564  0026C0  EF16  F014         	
  5565                           l2689:
  5566  0026C4                     	goto	l86
  5567  0026C4  EF16  F014         	
  5568                           l2691:
  5569  0026C8                     	goto	l2699
  5570  0026C8  EFE9  F013         	line	423
  5571                           	
  5572                           l85:
  5573  0026CC                     	
  5574                           l2693:
  5575  0026CC                     ;doprnt.c: 423: else if(prec > 10)
  5576                           		movlw	0Bh-1
  5577  0026CE  0E0A               	cpfsgt	((c:fround@prec)),c
  5578  0026D0  6452               	goto	u2821
  5579  0026D2  EF6D  F013         	goto	u2820
  5580  0026D6  EF70  F013         
  5581                           u2821:
  5582  0026DA                     	goto	l2699
  5583  0026DC  EFE9  F013         u2820:
  5584  0026E0                     	line	424
  5585                           	
  5586                           l2695:
  5587  0026E2                     ;doprnt.c: 424: return 0.5 * _npowers_[prec/10U+9U] * _npowers_[prec%10U];
  5588                           	movlw	low(normalize32(0x3f000000))
  5589  0026E2  0E00               	movwf	((c:___flmul@a)),c
  5590  0026E4  6E31               	movlw	high(normalize32(0x3f000000))
  5591  0026E6  0E00               	movwf	((c:___flmul@a+1)),c
  5592  0026E8  6E32               	movlw	low highword(normalize32(0x3f000000))
  5593  0026EA  0E00               	movwf	((c:___flmul@a+2)),c
  5594  0026EC  6E33               	movlw	high highword(normalize32(0x3f000000))
  5595  0026EE  0E3F               	movwf	((c:___flmul@a+3)),c
  5596  0026F0  6E34               	movlw	high(0Ah)
  5597  0026F2  0E00               	movwf	((c:___lwdiv@divisor+1)),c
  5598  0026F4  6E27               	movlw	low(0Ah)
  5599  0026F6  0E0A               	movwf	((c:___lwdiv@divisor)),c
  5600  0026F8  6E26               	movff	(c:fround@prec),(c:___lwdiv@dividend)
  5601  0026FA  C052  F024         	clrf	((c:___lwdiv@dividend+1)),c
  5602  0026FE  6A25               	call	___lwdiv	;wreg free
  5603  002700  EC93  F01C         	bcf	status,0
  5604  002704  90D8               	rlcf	(0+?___lwdiv),c
  5605  002706  3624               	rlcf	(1+?___lwdiv),c
  5606  002708  3625               	bcf	status,0
  5607  00270A  90D8               	rlcf	(0+?___lwdiv),c
  5608  00270C  3624               	rlcf	(1+?___lwdiv),c
  5609  00270E  3625               	movlw	024h
  5610  002710  0E24               	addwf	(0+?___lwdiv),c
  5611  002712  2624               	movlw	0
  5612  002714  0E00               	addwfc	(1+?___lwdiv),c
  5613  002716  2225               	movlw	low((__npowers_))
  5614  002718  0E35               	addwf	(0+?___lwdiv),c,w
  5615  00271A  2424               	movwf	tblptrl
  5616  00271C  6EF6               	movlw	high((__npowers_))
  5617  00271E  0E06               	addwfc	(1+?___lwdiv),c,w
  5618  002720  2025               	movwf	tblptrh
  5619  002722  6EF7               	if	0	;There are less than 3 active tblptr bytes
  5620  002724                     	clrf	tblptru
  5622                           	global __mediumconst
  5625  002724                     	tblrd*+
  5626  002724  0009               		dw	0FFFFh; errata NOP
  5627  002726  FFFF               
  5628                           	movff	tablat,(c:___flmul@b)
  5629  002728  CFF5 F02D          	tblrd*+
  5630  00272C  0009               		dw	0FFFFh; errata NOP
  5631  00272E  FFFF               
  5632                           	movff	tablat,(c:___flmul@b+1)
  5633  002730  CFF5 F02E          	tblrd*+
  5634  002734  0009               		dw	0FFFFh; errata NOP
  5635  002736  FFFF               
  5636                           	movff	tablat,(c:___flmul@b+2)
  5637  002738  CFF5 F02F          	tblrd*-
  5638  00273C  000A               		dw	0FFFFh; errata NOP
  5639  00273E  FFFF               
  5640                           	movff	tablat,(c:___flmul@b+3)
  5641  002740  CFF5 F030          	call	___flmul	;wreg free
  5642  002744  ECCC  F00D         	movff	0+?___flmul,(c:_fround$1183)
  5643  002748  C02D  F04E         	movff	1+?___flmul,(c:_fround$1183+1)
  5644  00274C  C02E  F04F         	movff	2+?___flmul,(c:_fround$1183+2)
  5645  002750  C02F  F050         	movff	3+?___flmul,(c:_fround$1183+3)
  5646  002754  C030  F051         	
  5647                           ;doprnt.c: 424: return 0.5 * _npowers_[prec/10U+9U] * _npowers_[prec%10U];
  5648                           	movff	(c:_fround$1183),(c:___flmul@b)
  5649  002758  C04E  F02D         	movff	(c:_fround$1183+1),(c:___flmul@b+1)
  5650  00275C  C04F  F02E         	movff	(c:_fround$1183+2),(c:___flmul@b+2)
  5651  002760  C050  F02F         	movff	(c:_fround$1183+3),(c:___flmul@b+3)
  5652  002764  C051  F030         	movlw	high(0Ah)
  5653  002768  0E00               	movwf	((c:___lwmod@divisor+1)),c
  5654  00276A  6E22               	movlw	low(0Ah)
  5655  00276C  0E0A               	movwf	((c:___lwmod@divisor)),c
  5656  00276E  6E21               	movff	(c:fround@prec),(c:___lwmod@dividend)
  5657  002770  C052  F01F         	clrf	((c:___lwmod@dividend+1)),c
  5658  002774  6A20               	call	___lwmod	;wreg free
  5659  002776  ECE4  F01C         	bcf	status,0
  5660  00277A  90D8               	rlcf	(0+?___lwmod),c
  5661  00277C  361F               	rlcf	(1+?___lwmod),c
  5662  00277E  3620               	bcf	status,0
  5663  002780  90D8               	rlcf	(0+?___lwmod),c
  5664  002782  361F               	rlcf	(1+?___lwmod),c
  5665  002784  3620               	movlw	low((__npowers_))
  5666  002786  0E35               	addwf	(0+?___lwmod),c,w
  5667  002788  241F               	movwf	tblptrl
  5668  00278A  6EF6               	movlw	high((__npowers_))
  5669  00278C  0E06               	addwfc	(1+?___lwmod),c,w
  5670  00278E  2020               	movwf	tblptrh
  5671  002790  6EF7               	if	0	;There are less than 3 active tblptr bytes
  5672  002792                     	clrf	tblptru
  5674                           	global __mediumconst
  5677  002792                     	tblrd*+
  5678  002792  0009               		dw	0FFFFh; errata NOP
  5679  002794  FFFF               
  5680                           	movff	tablat,(c:___flmul@a)
  5681  002796  CFF5 F031          	tblrd*+
  5682  00279A  0009               		dw	0FFFFh; errata NOP
  5683  00279C  FFFF               
  5684                           	movff	tablat,(c:___flmul@a+1)
  5685  00279E  CFF5 F032          	tblrd*+
  5686  0027A2  0009               		dw	0FFFFh; errata NOP
  5687  0027A4  FFFF               
  5688                           	movff	tablat,(c:___flmul@a+2)
  5689  0027A6  CFF5 F033          	tblrd*-
  5690  0027AA  000A               		dw	0FFFFh; errata NOP
  5691  0027AC  FFFF               
  5692                           	movff	tablat,(c:___flmul@a+3)
  5693  0027AE  CFF5 F034          	call	___flmul	;wreg free
  5694  0027B2  ECCC  F00D         	movff	0+?___flmul,(c:?_fround)
  5695  0027B6  C02D  F046         	movff	1+?___flmul,(c:?_fround+1)
  5696  0027BA  C02E  F047         	movff	2+?___flmul,(c:?_fround+2)
  5697  0027BE  C02F  F048         	movff	3+?___flmul,(c:?_fround+3)
  5698  0027C2  C030  F049         	
  5699                           	goto	l86
  5700  0027C6  EF16  F014         	
  5701                           l2697:
  5702  0027CA                     	goto	l86
  5703  0027CA  EF16  F014         	
  5704                           l88:
  5705  0027CE                     	goto	l2699
  5706  0027CE  EFE9  F013         	line	425
  5707                           	
  5708                           l87:
  5709  0027D2                     	
  5710                           l2699:
  5711  0027D2                     ;doprnt.c: 425: return 0.5 * _npowers_[prec];
  5712                           	movf	((c:fround@prec)),c,w
  5713  0027D4  5052               	mullw	04h
  5714  0027D6  0D04               	movlw	low((__npowers_))
  5715  0027D8  0E35               	addwf	(prodl),c,w
  5716  0027DA  24F3               	movwf	tblptrl
  5717  0027DC  6EF6               	movlw	high((__npowers_))
  5718  0027DE  0E06               	addwfc	(prodh),c,w
  5719  0027E0  20F4               	movwf	tblptrh
  5720  0027E2  6EF7               	if	0	;There are less than 3 active tblptr bytes
  5721  0027E4                     	clrf	tblptru
  5723                           	global __mediumconst
  5726  0027E4                     	tblrd*+
  5727  0027E4  0009               		dw	0FFFFh; errata NOP
  5728  0027E6  FFFF               
  5729                           	movff	tablat,(c:___flmul@b)
  5730  0027E8  CFF5 F02D          	tblrd*+
  5731  0027EC  0009               		dw	0FFFFh; errata NOP
  5732  0027EE  FFFF               
  5733                           	movff	tablat,(c:___flmul@b+1)
  5734  0027F0  CFF5 F02E          	tblrd*+
  5735  0027F4  0009               		dw	0FFFFh; errata NOP
  5736  0027F6  FFFF               
  5737                           	movff	tablat,(c:___flmul@b+2)
  5738  0027F8  CFF5 F02F          	tblrd*-
  5739  0027FC  000A               		dw	0FFFFh; errata NOP
  5740  0027FE  FFFF               
  5741                           	movff	tablat,(c:___flmul@b+3)
  5742  002800  CFF5 F030          	movlw	low(normalize32(0x3f000000))
  5743  002804  0E00               	movwf	((c:___flmul@a)),c
  5744  002806  6E31               	movlw	high(normalize32(0x3f000000))
  5745  002808  0E00               	movwf	((c:___flmul@a+1)),c
  5746  00280A  6E32               	movlw	low highword(normalize32(0x3f000000))
  5747  00280C  0E00               	movwf	((c:___flmul@a+2)),c
  5748  00280E  6E33               	movlw	high highword(normalize32(0x3f000000))
  5749  002810  0E3F               	movwf	((c:___flmul@a+3)),c
  5750  002812  6E34               	call	___flmul	;wreg free
  5751  002814  ECCC  F00D         	movff	0+?___flmul,(c:?_fround)
  5752  002818  C02D  F046         	movff	1+?___flmul,(c:?_fround+1)
  5753  00281C  C02E  F047         	movff	2+?___flmul,(c:?_fround+2)
  5754  002820  C02F  F048         	movff	3+?___flmul,(c:?_fround+3)
  5755  002824  C030  F049         	
  5756                           	goto	l86
  5757  002828  EF16  F014         	
  5758                           l2701:
  5759  00282C                     	line	426
  5760                           	
  5761                           l86:
  5762  00282C                     	return	;funcret
  5763  00282E  0012               	dw	0FFFFh; errata NOP
  5764  002830  FFFF               	opt stack 0
  5765                           GLOBAL	__end_of_fround
  5766                           	__end_of_fround:
  5767  002832                     	signat	_fround,4220
  5768                           	global	___lwmod
  5769                           
  5770 ;; *************** function ___lwmod *****************
  5771 ;; Defined at:
  5772 ;;		line 7 in file "C:\Program Files (x86)\Microchip\xc8\v2.00\pic\sources\c90\common\lwmod.c"
  5773 ;; Parameters:    Size  Location     Type
  5774 ;;  dividend        2   30[COMRAM] unsigned int 
  5775 ;;  divisor         2   32[COMRAM] unsigned int 
  5776 ;; Auto vars:     Size  Location     Type
  5777 ;;  counter         1   34[COMRAM] unsigned char 
  5778 ;; Return value:  Size  Location     Type
  5779 ;;                  2   30[COMRAM] unsigned int 
  5780 ;; Registers used:
  5781 ;;		wreg, status,2, status,0
  5782 ;; Tracked objects:
  5783 ;;		On entry : 0/0
  5784 ;;		On exit  : 0/0
  5785 ;;		Unchanged: 0/0
  5786 ;; Data sizes:     COMRAM   BANK0   BANK1   BANK2   BANK3   BANK4   BANK5
  5787 ;;      Params:         4       0       0       0       0       0       0
  5788 ;;      Locals:         1       0       0       0       0       0       0
  5789 ;;      Temps:          0       0       0       0       0       0       0
  5790 ;;      Totals:         5       0       0       0       0       0       0
  5791 ;;Total ram usage:        5 bytes
  5792 ;; Hardware stack levels used:    1
  5793 ;; Hardware stack levels required when called:    3
  5794 ;; This function calls:
  5795 ;;		Nothing
  5796 ;; This function is called by:
  5797 ;;		_fround
  5798 ;; This function uses a non-reentrant model
  5799 ;;
  5800                           psect	text8,class=CODE,space=0,reloc=2,group=1
  5801                           	file	"C:\Program Files (x86)\Microchip\xc8\v2.00\pic\sources\c90\common\lwmod.c"
  5802                           	line	7
  5803                           global __ptext8
  5804                           __ptext8:
  5805  0039C8                     psect	text8
  5806                           	file	"C:\Program Files (x86)\Microchip\xc8\v2.00\pic\sources\c90\common\lwmod.c"
  5807                           	line	7
  5808                           	global	__size_of___lwmod
  5809                           	__size_of___lwmod	equ	__end_of___lwmod-___lwmod
  5810  0000                     	
  5811                           ___lwmod:
  5812  0039C8                     ;incstack = 0
  5813                           	opt	stack 25
  5814                           	line	12
  5815                           	
  5816                           l2665:
  5817  0039CA                     	movf	((c:___lwmod@divisor)),c,w
  5818  0039CA  5021               iorwf	((c:___lwmod@divisor+1)),c,w
  5819  0039CC  1022               	btfsc	status,2
  5820  0039CE  B4D8               	goto	u2771
  5821  0039D0  EFEC  F01C         	goto	u2770
  5822  0039D4  EFEF  F01C         
  5823                           u2771:
  5824  0039D8                     	goto	l720
  5825  0039DA  EF26  F01D         u2770:
  5826  0039DE                     	line	13
  5827                           	
  5828                           l2667:
  5829  0039E0                     	movlw	low(01h)
  5830  0039E0  0E01               	movwf	((c:___lwmod@counter)),c
  5831  0039E2  6E23               	line	14
  5832                           	goto	l2671
  5833  0039E4  EFFB  F01C         	
  5834                           l722:
  5835  0039E8                     	line	15
  5836                           	
  5837                           l2669:
  5838  0039E8                     	bcf	status,0
  5839  0039EA  90D8               	rlcf	((c:___lwmod@divisor)),c
  5840  0039EC  3621               	rlcf	((c:___lwmod@divisor+1)),c
  5841  0039EE  3622               	line	16
  5842                           	incf	((c:___lwmod@counter)),c
  5843  0039F0  2A23               	goto	l2671
  5844  0039F2  EFFB  F01C         	line	17
  5845                           	
  5846                           l721:
  5847  0039F6                     	line	14
  5848                           	
  5849                           l2671:
  5850  0039F6                     	
  5851                           	btfss	((c:___lwmod@divisor+1)),c,(15)&7
  5852  0039F8  AE22               	goto	u2781
  5853  0039FA  EF01  F01D         	goto	u2780
  5854  0039FE  EF04  F01D         u2781:
  5855  003A02                     	goto	l2669
  5856  003A04  EFF4  F01C         u2780:
  5857  003A08                     	goto	l2673
  5858  003A0A  EF09  F01D         	
  5859                           l723:
  5860  003A0E                     	goto	l2673
  5861  003A0E  EF09  F01D         	line	18
  5862                           	
  5863                           l724:
  5864  003A12                     	line	19
  5865                           	
  5866                           l2673:
  5867  003A12                     		movf	((c:___lwmod@divisor)),c,w
  5868  003A14  5021               	subwf	((c:___lwmod@dividend)),c,w
  5869  003A16  5C1F               	movf	((c:___lwmod@divisor+1)),c,w
  5870  003A18  5022               	subwfb	((c:___lwmod@dividend+1)),c,w
  5871  003A1A  5820               	btfss	status,0
  5872  003A1C  A0D8               	goto	u2791
  5873  003A1E  EF13  F01D         	goto	u2790
  5874  003A22  EF16  F01D         
  5875                           u2791:
  5876  003A26                     	goto	l2677
  5877  003A28  EF1D  F01D         u2790:
  5878  003A2C                     	line	20
  5879                           	
  5880                           l2675:
  5881  003A2E                     	movf	((c:___lwmod@divisor)),c,w
  5882  003A2E  5021               	subwf	((c:___lwmod@dividend)),c
  5883  003A30  5E1F               	movf	((c:___lwmod@divisor+1)),c,w
  5884  003A32  5022               	subwfb	((c:___lwmod@dividend+1)),c
  5885  003A34  5A20               
  5886                           	goto	l2677
  5887  003A36  EF1D  F01D         	
  5888                           l725:
  5889  003A3A                     	line	21
  5890                           	
  5891                           l2677:
  5892  003A3A                     	bcf	status,0
  5893  003A3C  90D8               	rrcf	((c:___lwmod@divisor+1)),c
  5894  003A3E  3222               	rrcf	((c:___lwmod@divisor)),c
  5895  003A40  3221               	line	22
  5896                           	
  5897                           l2679:
  5898  003A42                     	decfsz	((c:___lwmod@counter)),c
  5899  003A42  2E23               	
  5900                           	goto	l2673
  5901  003A44  EF09  F01D         	goto	l720
  5902  003A48  EF26  F01D         	
  5903                           l726:
  5904  003A4C                     	line	23
  5905                           	
  5906                           l720:
  5907  003A4C                     	line	24
  5908                           	movff	(c:___lwmod@dividend),(c:?___lwmod)
  5909  003A4E  C01F  F01F         	movff	(c:___lwmod@dividend+1),(c:?___lwmod+1)
  5910  003A52  C020  F020         	line	25
  5911                           	
  5912                           l727:
  5913  003A56                     	return	;funcret
  5914  003A56  0012               	dw	0FFFFh; errata NOP
  5915  003A58  FFFF               	opt stack 0
  5916                           GLOBAL	__end_of___lwmod
  5917                           	__end_of___lwmod:
  5918  003A5A                     	signat	___lwmod,8314
  5919                           	global	___lwdiv
  5920                           
  5921 ;; *************** function ___lwdiv *****************
  5922 ;; Defined at:
  5923 ;;		line 7 in file "C:\Program Files (x86)\Microchip\xc8\v2.00\pic\sources\c90\common\lwdiv.c"
  5924 ;; Parameters:    Size  Location     Type
  5925 ;;  dividend        2   35[COMRAM] unsigned int 
  5926 ;;  divisor         2   37[COMRAM] unsigned int 
  5927 ;; Auto vars:     Size  Location     Type
  5928 ;;  quotient        2   39[COMRAM] unsigned int 
  5929 ;;  counter         1   41[COMRAM] unsigned char 
  5930 ;; Return value:  Size  Location     Type
  5931 ;;                  2   35[COMRAM] unsigned int 
  5932 ;; Registers used:
  5933 ;;		wreg, status,2, status,0
  5934 ;; Tracked objects:
  5935 ;;		On entry : 0/0
  5936 ;;		On exit  : 0/0
  5937 ;;		Unchanged: 0/0
  5938 ;; Data sizes:     COMRAM   BANK0   BANK1   BANK2   BANK3   BANK4   BANK5
  5939 ;;      Params:         4       0       0       0       0       0       0
  5940 ;;      Locals:         3       0       0       0       0       0       0
  5941 ;;      Temps:          0       0       0       0       0       0       0
  5942 ;;      Totals:         7       0       0       0       0       0       0
  5943 ;;Total ram usage:        7 bytes
  5944 ;; Hardware stack levels used:    1
  5945 ;; Hardware stack levels required when called:    3
  5946 ;; This function calls:
  5947 ;;		Nothing
  5948 ;; This function is called by:
  5949 ;;		_fround
  5950 ;; This function uses a non-reentrant model
  5951 ;;
  5952                           psect	text9,class=CODE,space=0,reloc=2,group=1
  5953                           	file	"C:\Program Files (x86)\Microchip\xc8\v2.00\pic\sources\c90\common\lwdiv.c"
  5954                           	line	7
  5955                           global __ptext9
  5956                           __ptext9:
  5957  003926                     psect	text9
  5958                           	file	"C:\Program Files (x86)\Microchip\xc8\v2.00\pic\sources\c90\common\lwdiv.c"
  5959                           	line	7
  5960                           	global	__size_of___lwdiv
  5961                           	__size_of___lwdiv	equ	__end_of___lwdiv-___lwdiv
  5962  0000                     	
  5963                           ___lwdiv:
  5964  003926                     ;incstack = 0
  5965                           	opt	stack 25
  5966                           	line	13
  5967                           	
  5968                           l2643:
  5969  003928                     	movlw	high(0)
  5970  003928  0E00               	movwf	((c:___lwdiv@quotient+1)),c
  5971  00392A  6E29               	movlw	low(0)
  5972  00392C  0E00               	movwf	((c:___lwdiv@quotient)),c
  5973  00392E  6E28               	line	14
  5974                           	
  5975                           l2645:
  5976  003930                     	movf	((c:___lwdiv@divisor)),c,w
  5977  003930  5026               iorwf	((c:___lwdiv@divisor+1)),c,w
  5978  003932  1027               	btfsc	status,2
  5979  003934  B4D8               	goto	u2741
  5980  003936  EF9F  F01C         	goto	u2740
  5981  00393A  EFA2  F01C         
  5982                           u2741:
  5983  00393E                     	goto	l710
  5984  003940  EFDD  F01C         u2740:
  5985  003944                     	line	15
  5986                           	
  5987                           l2647:
  5988  003946                     	movlw	low(01h)
  5989  003946  0E01               	movwf	((c:___lwdiv@counter)),c
  5990  003948  6E2A               	line	16
  5991                           	goto	l2651
  5992  00394A  EFAE  F01C         	
  5993                           l712:
  5994  00394E                     	line	17
  5995                           	
  5996                           l2649:
  5997  00394E                     	bcf	status,0
  5998  003950  90D8               	rlcf	((c:___lwdiv@divisor)),c
  5999  003952  3626               	rlcf	((c:___lwdiv@divisor+1)),c
  6000  003954  3627               	line	18
  6001                           	incf	((c:___lwdiv@counter)),c
  6002  003956  2A2A               	goto	l2651
  6003  003958  EFAE  F01C         	line	19
  6004                           	
  6005                           l711:
  6006  00395C                     	line	16
  6007                           	
  6008                           l2651:
  6009  00395C                     	
  6010                           	btfss	((c:___lwdiv@divisor+1)),c,(15)&7
  6011  00395E  AE27               	goto	u2751
  6012  003960  EFB4  F01C         	goto	u2750
  6013  003964  EFB7  F01C         u2751:
  6014  003968                     	goto	l2649
  6015  00396A  EFA7  F01C         u2750:
  6016  00396E                     	goto	l2653
  6017  003970  EFBC  F01C         	
  6018                           l713:
  6019  003974                     	goto	l2653
  6020  003974  EFBC  F01C         	line	20
  6021                           	
  6022                           l714:
  6023  003978                     	line	21
  6024                           	
  6025                           l2653:
  6026  003978                     	bcf	status,0
  6027  00397A  90D8               	rlcf	((c:___lwdiv@quotient)),c
  6028  00397C  3628               	rlcf	((c:___lwdiv@quotient+1)),c
  6029  00397E  3629               	line	22
  6030                           	
  6031                           l2655:
  6032  003980                     		movf	((c:___lwdiv@divisor)),c,w
  6033  003980  5026               	subwf	((c:___lwdiv@dividend)),c,w
  6034  003982  5C24               	movf	((c:___lwdiv@divisor+1)),c,w
  6035  003984  5027               	subwfb	((c:___lwdiv@dividend+1)),c,w
  6036  003986  5825               	btfss	status,0
  6037  003988  A0D8               	goto	u2761
  6038  00398A  EFC9  F01C         	goto	u2760
  6039  00398E  EFCC  F01C         
  6040                           u2761:
  6041  003992                     	goto	l2661
  6042  003994  EFD4  F01C         u2760:
  6043  003998                     	line	23
  6044                           	
  6045                           l2657:
  6046  00399A                     	movf	((c:___lwdiv@divisor)),c,w
  6047  00399A  5026               	subwf	((c:___lwdiv@dividend)),c
  6048  00399C  5E24               	movf	((c:___lwdiv@divisor+1)),c,w
  6049  00399E  5027               	subwfb	((c:___lwdiv@dividend+1)),c
  6050  0039A0  5A25               
  6051                           	line	24
  6052                           	
  6053                           l2659:
  6054  0039A2                     	bsf	(0+(0/8)+(c:___lwdiv@quotient)),c,(0)&7
  6055  0039A2  8028               	goto	l2661
  6056  0039A4  EFD4  F01C         	line	25
  6057                           	
  6058                           l715:
  6059  0039A8                     	line	26
  6060                           	
  6061                           l2661:
  6062  0039A8                     	bcf	status,0
  6063  0039AA  90D8               	rrcf	((c:___lwdiv@divisor+1)),c
  6064  0039AC  3227               	rrcf	((c:___lwdiv@divisor)),c
  6065  0039AE  3226               	line	27
  6066                           	
  6067                           l2663:
  6068  0039B0                     	decfsz	((c:___lwdiv@counter)),c
  6069  0039B0  2E2A               	
  6070                           	goto	l2653
  6071  0039B2  EFBC  F01C         	goto	l710
  6072  0039B6  EFDD  F01C         	
  6073                           l716:
  6074  0039BA                     	line	28
  6075                           	
  6076                           l710:
  6077  0039BA                     	line	29
  6078                           	movff	(c:___lwdiv@quotient),(c:?___lwdiv)
  6079  0039BC  C028  F024         	movff	(c:___lwdiv@quotient+1),(c:?___lwdiv+1)
  6080  0039C0  C029  F025         	line	30
  6081                           	
  6082                           l717:
  6083  0039C4                     	return	;funcret
  6084  0039C4  0012               	dw	0FFFFh; errata NOP
  6085  0039C6  FFFF               	opt stack 0
  6086                           GLOBAL	__end_of___lwdiv
  6087                           	__end_of___lwdiv:
  6088  0039C8                     	signat	___lwdiv,8314
  6089                           	global	___flmul
  6090                           
  6091 ;; *************** function ___flmul *****************
  6092 ;; Defined at:
  6093 ;;		line 8 in file "C:\Program Files (x86)\Microchip\xc8\v2.00\pic\sources\c90\common\sprcmul.c"
  6094 ;; Parameters:    Size  Location     Type
  6095 ;;  b               4   44[COMRAM] unsigned int 
  6096 ;;  a               4   48[COMRAM] unsigned int 
  6097 ;; Auto vars:     Size  Location     Type
  6098 ;;  prod            4   63[COMRAM] struct .
  6099 ;;  grs             4   57[COMRAM] unsigned long 
  6100 ;;  temp            2   67[COMRAM] struct .
  6101 ;;  bexp            1   62[COMRAM] unsigned char 
  6102 ;;  aexp            1   61[COMRAM] unsigned char 
  6103 ;;  sign            1   56[COMRAM] unsigned char 
  6104 ;; Return value:  Size  Location     Type
  6105 ;;                  4   44[COMRAM] unsigned char 
  6106 ;; Registers used:
  6107 ;;		wreg, status,2, status,0, prodl, prodh
  6108 ;; Tracked objects:
  6109 ;;		On entry : 0/0
  6110 ;;		On exit  : 0/0
  6111 ;;		Unchanged: 0/0
  6112 ;; Data sizes:     COMRAM   BANK0   BANK1   BANK2   BANK3   BANK4   BANK5
  6113 ;;      Params:         8       0       0       0       0       0       0
  6114 ;;      Locals:        13       0       0       0       0       0       0
  6115 ;;      Temps:          4       0       0       0       0       0       0
  6116 ;;      Totals:        25       0       0       0       0       0       0
  6117 ;;Total ram usage:       25 bytes
  6118 ;; Hardware stack levels used:    1
  6119 ;; Hardware stack levels required when called:    3
  6120 ;; This function calls:
  6121 ;;		Nothing
  6122 ;; This function is called by:
  6123 ;;		_fround
  6124 ;;		_scale
  6125 ;;		_printf
  6126 ;; This function uses a non-reentrant model
  6127 ;;
  6128                           psect	text10,class=CODE,space=0,reloc=2,group=1
  6129                           	file	"C:\Program Files (x86)\Microchip\xc8\v2.00\pic\sources\c90\common\sprcmul.c"
  6130                           	line	8
  6131                           global __ptext10
  6132                           __ptext10:
  6133  001B98                     psect	text10
  6134                           	file	"C:\Program Files (x86)\Microchip\xc8\v2.00\pic\sources\c90\common\sprcmul.c"
  6135                           	line	8
  6136                           	global	__size_of___flmul
  6137                           	__size_of___flmul	equ	__end_of___flmul-___flmul
  6138  0000                     	
  6139                           ___flmul:
  6140  001B98                     ;incstack = 0
  6141                           	opt	stack 25
  6142                           	line	17
  6143                           	
  6144                           l2433:
  6145  001B9A                     	movf	(0+((c:___flmul@b)+03h)),c,w
  6146  001B9A  5030               	andlw	low(080h)
  6147  001B9C  0B80               	movwf	((c:___flmul@sign)),c
  6148  001B9E  6E39               	line	18
  6149                           	movf	(0+((c:___flmul@b)+03h)),c,w
  6150  001BA0  5030               	addwf	(0+((c:___flmul@b)+03h)),c,w
  6151  001BA2  2430               	movwf	((c:___flmul@bexp)),c
  6152  001BA4  6E3F               	line	19
  6153                           	
  6154                           l2435:
  6155  001BA6                     	
  6156                           	btfss	(0+((c:___flmul@b)+02h)),c,(7)&7
  6157  001BA6  AE2F               	goto	u2431
  6158  001BA8  EFD8  F00D         	goto	u2430
  6159  001BAC  EFDB  F00D         u2431:
  6160  001BB0                     	goto	l2439
  6161  001BB2  EFDF  F00D         u2430:
  6162  001BB6                     	line	20
  6163                           	
  6164                           l2437:
  6165  001BB8                     	bsf	(0+(0/8)+(c:___flmul@bexp)),c,(0)&7
  6166  001BB8  803F               	goto	l2439
  6167  001BBA  EFDF  F00D         	line	21
  6168                           	
  6169                           l826:
  6170  001BBE                     	line	24
  6171                           	
  6172                           l2439:
  6173  001BBE                     	movf	((c:___flmul@bexp)),c,w
  6174  001BC0  503F               	btfsc	status,2
  6175  001BC2  B4D8               	goto	u2441
  6176  001BC4  EFE6  F00D         	goto	u2440
  6177  001BC8  EFE9  F00D         u2441:
  6178  001BCC                     	goto	l2447
  6179  001BCE  EF02  F00E         u2440:
  6180  001BD2                     	line	26
  6181                           	
  6182                           l2441:
  6183  001BD4                     		incf	((c:___flmul@bexp)),c,w
  6184  001BD4  283F               	btfss	status,2
  6185  001BD6  A4D8               	goto	u2451
  6186  001BD8  EFF0  F00D         	goto	u2450
  6187  001BDC  EFF3  F00D         
  6188                           u2451:
  6189  001BE0                     	goto	l2445
  6190  001BE2  EFFE  F00D         u2450:
  6191  001BE6                     	line	28
  6192                           	
  6193                           l2443:
  6194  001BE8                     	movlw	low(normalize32(0x0))
  6195  001BE8  0E00               	movwf	((c:___flmul@b)),c
  6196  001BEA  6E2D               	movlw	high(normalize32(0x0))
  6197  001BEC  0E00               	movwf	((c:___flmul@b+1)),c
  6198  001BEE  6E2E               	movlw	low highword(normalize32(0x0))
  6199  001BF0  0E00               	movwf	((c:___flmul@b+2)),c
  6200  001BF2  6E2F               	movlw	high highword(normalize32(0x0))
  6201  001BF4  0E00               	movwf	((c:___flmul@b+3)),c
  6202  001BF6  6E30               	goto	l2445
  6203  001BF8  EFFE  F00D         	line	29
  6204                           	
  6205                           l828:
  6206  001BFC                     	line	31
  6207                           	
  6208                           l2445:
  6209  001BFC                     	bsf	(0+(23/8)+(c:___flmul@b)),c,(23)&7
  6210  001BFE  8E2F               	line	33
  6211                           	goto	l2449
  6212  001C00  EF0D  F00E         	line	34
  6213                           	
  6214                           l827:
  6215  001C04                     	line	36
  6216                           	
  6217                           l2447:
  6218  001C04                     	movlw	low(normalize32(0x0))
  6219  001C06  0E00               	movwf	((c:___flmul@b)),c
  6220  001C08  6E2D               	movlw	high(normalize32(0x0))
  6221  001C0A  0E00               	movwf	((c:___flmul@b+1)),c
  6222  001C0C  6E2E               	movlw	low highword(normalize32(0x0))
  6223  001C0E  0E00               	movwf	((c:___flmul@b+2)),c
  6224  001C10  6E2F               	movlw	high highword(normalize32(0x0))
  6225  001C12  0E00               	movwf	((c:___flmul@b+3)),c
  6226  001C14  6E30               	goto	l2449
  6227  001C16  EF0D  F00E         	line	37
  6228                           	
  6229                           l829:
  6230  001C1A                     	line	39
  6231                           	
  6232                           l2449:
  6233  001C1A                     	movf	(0+((c:___flmul@a)+03h)),c,w
  6234  001C1C  5034               	andlw	low(080h)
  6235  001C1E  0B80               	xorwf	((c:___flmul@sign)),c
  6236  001C20  1A39               	line	40
  6237                           	
  6238                           l2451:
  6239  001C22                     	movf	(0+((c:___flmul@a)+03h)),c,w
  6240  001C22  5034               	addwf	(0+((c:___flmul@a)+03h)),c,w
  6241  001C24  2434               	movwf	((c:___flmul@aexp)),c
  6242  001C26  6E3E               	line	41
  6243                           	
  6244                           l2453:
  6245  001C28                     	
  6246                           	btfss	(0+((c:___flmul@a)+02h)),c,(7)&7
  6247  001C28  AE33               	goto	u2461
  6248  001C2A  EF19  F00E         	goto	u2460
  6249  001C2E  EF1C  F00E         u2461:
  6250  001C32                     	goto	l2457
  6251  001C34  EF20  F00E         u2460:
  6252  001C38                     	line	42
  6253                           	
  6254                           l2455:
  6255  001C3A                     	bsf	(0+(0/8)+(c:___flmul@aexp)),c,(0)&7
  6256  001C3A  803E               	goto	l2457
  6257  001C3C  EF20  F00E         	line	43
  6258                           	
  6259                           l830:
  6260  001C40                     	line	45
  6261                           	
  6262                           l2457:
  6263  001C40                     	movf	((c:___flmul@aexp)),c,w
  6264  001C42  503E               	btfsc	status,2
  6265  001C44  B4D8               	goto	u2471
  6266  001C46  EF27  F00E         	goto	u2470
  6267  001C4A  EF2A  F00E         u2471:
  6268  001C4E                     	goto	l2465
  6269  001C50  EF43  F00E         u2470:
  6270  001C54                     	line	48
  6271                           	
  6272                           l2459:
  6273  001C56                     		incf	((c:___flmul@aexp)),c,w
  6274  001C56  283E               	btfss	status,2
  6275  001C58  A4D8               	goto	u2481
  6276  001C5A  EF31  F00E         	goto	u2480
  6277  001C5E  EF34  F00E         
  6278                           u2481:
  6279  001C62                     	goto	l2463
  6280  001C64  EF3F  F00E         u2480:
  6281  001C68                     	line	50
  6282                           	
  6283                           l2461:
  6284  001C6A                     	movlw	low(normalize32(0x0))
  6285  001C6A  0E00               	movwf	((c:___flmul@a)),c
  6286  001C6C  6E31               	movlw	high(normalize32(0x0))
  6287  001C6E  0E00               	movwf	((c:___flmul@a+1)),c
  6288  001C70  6E32               	movlw	low highword(normalize32(0x0))
  6289  001C72  0E00               	movwf	((c:___flmul@a+2)),c
  6290  001C74  6E33               	movlw	high highword(normalize32(0x0))
  6291  001C76  0E00               	movwf	((c:___flmul@a+3)),c
  6292  001C78  6E34               	goto	l2463
  6293  001C7A  EF3F  F00E         	line	51
  6294                           	
  6295                           l832:
  6296  001C7E                     	line	53
  6297                           	
  6298                           l2463:
  6299  001C7E                     	bsf	(0+(23/8)+(c:___flmul@a)),c,(23)&7
  6300  001C80  8E33               	line	54
  6301                           	goto	l833
  6302  001C82  EF4C  F00E         	line	55
  6303                           	
  6304                           l831:
  6305  001C86                     	line	57
  6306                           	
  6307                           l2465:
  6308  001C86                     	movlw	low(normalize32(0x0))
  6309  001C88  0E00               	movwf	((c:___flmul@a)),c
  6310  001C8A  6E31               	movlw	high(normalize32(0x0))
  6311  001C8C  0E00               	movwf	((c:___flmul@a+1)),c
  6312  001C8E  6E32               	movlw	low highword(normalize32(0x0))
  6313  001C90  0E00               	movwf	((c:___flmul@a+2)),c
  6314  001C92  6E33               	movlw	high highword(normalize32(0x0))
  6315  001C94  0E00               	movwf	((c:___flmul@a+3)),c
  6316  001C96  6E34               	line	58
  6317                           	
  6318                           l833:
  6319  001C98                     	line	65
  6320                           	movf	((c:___flmul@aexp)),c,w
  6321  001C9A  503E               	btfsc	status,2
  6322  001C9C  B4D8               	goto	u2491
  6323  001C9E  EF53  F00E         	goto	u2490
  6324  001CA2  EF56  F00E         u2491:
  6325  001CA6                     	goto	l2469
  6326  001CA8  EF63  F00E         u2490:
  6327  001CAC                     	
  6328                           l2467:
  6329  001CAE                     	movf	((c:___flmul@bexp)),c,w
  6330  001CAE  503F               	btfss	status,2
  6331  001CB0  A4D8               	goto	u2501
  6332  001CB2  EF5D  F00E         	goto	u2500
  6333  001CB6  EF60  F00E         u2501:
  6334  001CBA                     	goto	l2473
  6335  001CBC  EF70  F00E         u2500:
  6336  001CC0                     	goto	l2469
  6337  001CC2  EF63  F00E         	
  6338                           l836:
  6339  001CC6                     	line	66
  6340                           	
  6341                           l2469:
  6342  001CC6                     	movlw	low(normalize32(0x0))
  6343  001CC8  0E00               	movwf	((c:?___flmul)),c
  6344  001CCA  6E2D               	movlw	high(normalize32(0x0))
  6345  001CCC  0E00               	movwf	((c:?___flmul+1)),c
  6346  001CCE  6E2E               	movlw	low highword(normalize32(0x0))
  6347  001CD0  0E00               	movwf	((c:?___flmul+2)),c
  6348  001CD2  6E2F               	movlw	high highword(normalize32(0x0))
  6349  001CD4  0E00               	movwf	((c:?___flmul+3)),c
  6350  001CD6  6E30               	goto	l837
  6351  001CD8  EF3E  F010         	
  6352                           l2471:
  6353  001CDC                     	goto	l837
  6354  001CDC  EF3E  F010         	line	67
  6355                           	
  6356                           l834:
  6357  001CE0                     	line	95
  6358                           	
  6359                           l2473:
  6360  001CE0                     	movf	(0+((c:___flmul@a)+02h)),c,w
  6361  001CE2  5033               	mulwf	((c:___flmul@b)),c
  6362  001CE4  022D               	movff	prodl,(c:___flmul@temp)
  6363  001CE6  CFF3 F044          	movff	prodh,(c:___flmul@temp+1)
  6364  001CEA  CFF4 F045          	line	96
  6365                           	
  6366                           l2475:
  6367  001CEE                     	movf	((c:___flmul@temp)),c,w
  6368  001CEE  5044               	movwf	((c:___flmul@grs)),c
  6369  001CF0  6E3A               	clrf	((c:___flmul@grs+1)),c
  6370  001CF2  6A3B               	clrf	((c:___flmul@grs+2)),c
  6371  001CF4  6A3C               	clrf	((c:___flmul@grs+3)),c
  6372  001CF6  6A3D               
  6373                           	line	97
  6374                           	
  6375                           l2477:
  6376  001CF8                     	movf	(0+((c:___flmul@temp)+01h)),c,w
  6377  001CF8  5045               	movwf	((c:___flmul@prod)),c
  6378  001CFA  6E40               	clrf	((c:___flmul@prod+1)),c
  6379  001CFC  6A41               	clrf	((c:___flmul@prod+2)),c
  6380  001CFE  6A42               	clrf	((c:___flmul@prod+3)),c
  6381  001D00  6A43               
  6382                           	line	98
  6383                           	movf	(0+((c:___flmul@a)+01h)),c,w
  6384  001D02  5032               	mulwf	(0+((c:___flmul@b)+01h)),c
  6385  001D04  022E               	movff	prodl,(c:___flmul@temp)
  6386  001D06  CFF3 F044          	movff	prodh,(c:___flmul@temp+1)
  6387  001D0A  CFF4 F045          	line	99
  6388                           	
  6389                           l2479:
  6390  001D0E                     	movf	((c:___flmul@temp)),c,w
  6391  001D0E  5044               	addwf	((c:___flmul@grs)),c
  6392  001D10  263A               	movlw	0
  6393  001D12  0E00               	addwfc	((c:___flmul@grs+1)),c
  6394  001D14  223B               	addwfc	((c:___flmul@grs+2)),c
  6395  001D16  223C               	addwfc	((c:___flmul@grs+3)),c
  6396  001D18  223D               	line	100
  6397                           	
  6398                           l2481:
  6399  001D1A                     	movf	(0+((c:___flmul@temp)+01h)),c,w
  6400  001D1A  5045               	addwf	((c:___flmul@prod)),c
  6401  001D1C  2640               	movlw	0
  6402  001D1E  0E00               	addwfc	((c:___flmul@prod+1)),c
  6403  001D20  2241               	addwfc	((c:___flmul@prod+2)),c
  6404  001D22  2242               	addwfc	((c:___flmul@prod+3)),c
  6405  001D24  2243               	line	101
  6406                           	movf	((c:___flmul@a)),c,w
  6407  001D26  5031               	mulwf	(0+((c:___flmul@b)+02h)),c
  6408  001D28  022F               	movff	prodl,(c:___flmul@temp)
  6409  001D2A  CFF3 F044          	movff	prodh,(c:___flmul@temp+1)
  6410  001D2E  CFF4 F045          	line	102
  6411                           	
  6412                           l2483:
  6413  001D32                     	movf	((c:___flmul@temp)),c,w
  6414  001D32  5044               	addwf	((c:___flmul@grs)),c
  6415  001D34  263A               	movlw	0
  6416  001D36  0E00               	addwfc	((c:___flmul@grs+1)),c
  6417  001D38  223B               	addwfc	((c:___flmul@grs+2)),c
  6418  001D3A  223C               	addwfc	((c:___flmul@grs+3)),c
  6419  001D3C  223D               	line	103
  6420                           	
  6421                           l2485:
  6422  001D3E                     	movf	(0+((c:___flmul@temp)+01h)),c,w
  6423  001D3E  5045               	addwf	((c:___flmul@prod)),c
  6424  001D40  2640               	movlw	0
  6425  001D42  0E00               	addwfc	((c:___flmul@prod+1)),c
  6426  001D44  2241               	addwfc	((c:___flmul@prod+2)),c
  6427  001D46  2242               	addwfc	((c:___flmul@prod+3)),c
  6428  001D48  2243               	line	104
  6429                           	
  6430                           l2487:
  6431  001D4A                     	movff	(c:___flmul@grs+2),(c:___flmul@grs+3)
  6432  001D4A  C03C  F03D         	movff	(c:___flmul@grs+1),(c:___flmul@grs+2)
  6433  001D4E  C03B  F03C         	movff	(c:___flmul@grs),(c:___flmul@grs+1)
  6434  001D52  C03A  F03B         	clrf	((c:___flmul@grs)),c
  6435  001D56  6A3A               	line	105
  6436                           	
  6437                           l2489:
  6438  001D58                     	movf	((c:___flmul@a)),c,w
  6439  001D58  5031               	mulwf	(0+((c:___flmul@b)+01h)),c
  6440  001D5A  022E               	movff	prodl,(c:___flmul@temp)
  6441  001D5C  CFF3 F044          	movff	prodh,(c:___flmul@temp+1)
  6442  001D60  CFF4 F045          	line	106
  6443                           	
  6444                           l2491:
  6445  001D64                     	movf	((c:___flmul@temp)),c,w
  6446  001D64  5044               	addwf	((c:___flmul@grs)),c
  6447  001D66  263A               	movf	((c:___flmul@temp+1)),c,w
  6448  001D68  5045               	addwfc	((c:___flmul@grs+1)),c
  6449  001D6A  223B               	movlw	0
  6450  001D6C  0E00               	addwfc	((c:___flmul@grs+2)),c
  6451  001D6E  223C               	movlw	0
  6452  001D70  0E00               	addwfc	((c:___flmul@grs+3)),c
  6453  001D72  223D               
  6454                           	line	107
  6455                           	
  6456                           l2493:
  6457  001D74                     	movf	(0+((c:___flmul@a)+01h)),c,w
  6458  001D74  5032               	mulwf	((c:___flmul@b)),c
  6459  001D76  022D               	movff	prodl,(c:___flmul@temp)
  6460  001D78  CFF3 F044          	movff	prodh,(c:___flmul@temp+1)
  6461  001D7C  CFF4 F045          	line	108
  6462                           	
  6463                           l2495:
  6464  001D80                     	movf	((c:___flmul@temp)),c,w
  6465  001D80  5044               	addwf	((c:___flmul@grs)),c
  6466  001D82  263A               	movf	((c:___flmul@temp+1)),c,w
  6467  001D84  5045               	addwfc	((c:___flmul@grs+1)),c
  6468  001D86  223B               	movlw	0
  6469  001D88  0E00               	addwfc	((c:___flmul@grs+2)),c
  6470  001D8A  223C               	movlw	0
  6471  001D8C  0E00               	addwfc	((c:___flmul@grs+3)),c
  6472  001D8E  223D               
  6473                           	line	109
  6474                           	
  6475                           l2497:
  6476  001D90                     	movff	(c:___flmul@grs+2),(c:___flmul@grs+3)
  6477  001D90  C03C  F03D         	movff	(c:___flmul@grs+1),(c:___flmul@grs+2)
  6478  001D94  C03B  F03C         	movff	(c:___flmul@grs),(c:___flmul@grs+1)
  6479  001D98  C03A  F03B         	clrf	((c:___flmul@grs)),c
  6480  001D9C  6A3A               	line	110
  6481                           	movf	((c:___flmul@a)),c,w
  6482  001D9E  5031               	mulwf	((c:___flmul@b)),c
  6483  001DA0  022D               	movff	prodl,(c:___flmul@temp)
  6484  001DA2  CFF3 F044          	movff	prodh,(c:___flmul@temp+1)
  6485  001DA6  CFF4 F045          	line	111
  6486                           	
  6487                           l2499:
  6488  001DAA                     	movf	((c:___flmul@temp)),c,w
  6489  001DAA  5044               	addwf	((c:___flmul@grs)),c
  6490  001DAC  263A               	movf	((c:___flmul@temp+1)),c,w
  6491  001DAE  5045               	addwfc	((c:___flmul@grs+1)),c
  6492  001DB0  223B               	movlw	0
  6493  001DB2  0E00               	addwfc	((c:___flmul@grs+2)),c
  6494  001DB4  223C               	movlw	0
  6495  001DB6  0E00               	addwfc	((c:___flmul@grs+3)),c
  6496  001DB8  223D               
  6497                           	line	112
  6498                           	
  6499                           l2501:
  6500  001DBA                     	movf	(0+((c:___flmul@a)+02h)),c,w
  6501  001DBA  5033               	mulwf	(0+((c:___flmul@b)+01h)),c
  6502  001DBC  022E               	movff	prodl,(c:___flmul@temp)
  6503  001DBE  CFF3 F044          	movff	prodh,(c:___flmul@temp+1)
  6504  001DC2  CFF4 F045          	line	113
  6505                           	movf	((c:___flmul@temp)),c,w
  6506  001DC6  5044               	addwf	((c:___flmul@prod)),c
  6507  001DC8  2640               	movf	((c:___flmul@temp+1)),c,w
  6508  001DCA  5045               	addwfc	((c:___flmul@prod+1)),c
  6509  001DCC  2241               	movlw	0
  6510  001DCE  0E00               	addwfc	((c:___flmul@prod+2)),c
  6511  001DD0  2242               	movlw	0
  6512  001DD2  0E00               	addwfc	((c:___flmul@prod+3)),c
  6513  001DD4  2243               
  6514                           	line	114
  6515                           	
  6516                           l2503:
  6517  001DD6                     	movf	(0+((c:___flmul@a)+01h)),c,w
  6518  001DD6  5032               	mulwf	(0+((c:___flmul@b)+02h)),c
  6519  001DD8  022F               	movff	prodl,(c:___flmul@temp)
  6520  001DDA  CFF3 F044          	movff	prodh,(c:___flmul@temp+1)
  6521  001DDE  CFF4 F045          	line	115
  6522                           	
  6523                           l2505:
  6524  001DE2                     	movf	((c:___flmul@temp)),c,w
  6525  001DE2  5044               	addwf	((c:___flmul@prod)),c
  6526  001DE4  2640               	movf	((c:___flmul@temp+1)),c,w
  6527  001DE6  5045               	addwfc	((c:___flmul@prod+1)),c
  6528  001DE8  2241               	movlw	0
  6529  001DEA  0E00               	addwfc	((c:___flmul@prod+2)),c
  6530  001DEC  2242               	movlw	0
  6531  001DEE  0E00               	addwfc	((c:___flmul@prod+3)),c
  6532  001DF0  2243               
  6533                           	line	116
  6534                           	movf	(0+((c:___flmul@a)+02h)),c,w
  6535  001DF2  5033               	mulwf	(0+((c:___flmul@b)+02h)),c
  6536  001DF4  022F               	movff	prodl,(c:___flmul@temp)
  6537  001DF6  CFF3 F044          	movff	prodh,(c:___flmul@temp+1)
  6538  001DFA  CFF4 F045          	line	117
  6539                           	
  6540                           l2507:
  6541  001DFE                     	movf	((c:___flmul@temp)),c,w
  6542  001DFE  5044               	movwf	(??___flmul+0+0)&0ffh,c
  6543  001E00  6E35               	movf	((c:___flmul@temp+1)),c,w
  6544  001E02  5045               	movwf	1+(??___flmul+0+0)&0ffh,c
  6545  001E04  6E36               	
  6546                           	clrf	2+(??___flmul+0+0)&0ffh,c
  6547  001E06  6A37               	
  6548                           	clrf	3+(??___flmul+0+0)&0ffh,c
  6549  001E08  6A38               	movff	??___flmul+0+2,??___flmul+0+3
  6550  001E0A  C037  F038         	movff	??___flmul+0+1,??___flmul+0+2
  6551  001E0E  C036  F037         	movff	??___flmul+0+0,??___flmul+0+1
  6552  001E12  C035  F036         	clrf	(??___flmul+0+0),c
  6553  001E16  6A35               	movf	(??___flmul+0+0),c,w
  6554  001E18  5035               	addwf	((c:___flmul@prod)),c
  6555  001E1A  2640               	movf	(??___flmul+0+1),c,w
  6556  001E1C  5036               	addwfc	((c:___flmul@prod+1)),c
  6557  001E1E  2241               	movf	(??___flmul+0+2),c,w
  6558  001E20  5037               	addwfc	((c:___flmul@prod+2)),c
  6559  001E22  2242               	movf	(??___flmul+0+3),c,w
  6560  001E24  5038               	addwfc	((c:___flmul@prod+3)),c
  6561  001E26  2243               
  6562                           	line	145
  6563                           	
  6564                           l2509:
  6565  001E28                     	movff	(c:___flmul@grs),??___flmul+0+0
  6566  001E28  C03A  F035         	movff	(c:___flmul@grs+1),??___flmul+0+0+1
  6567  001E2C  C03B  F036         	movff	(c:___flmul@grs+2),??___flmul+0+0+2
  6568  001E30  C03C  F037         	movff	(c:___flmul@grs+3),??___flmul+0+0+3
  6569  001E34  C03D  F038         	movlw	018h+1
  6570  001E38  0E19               	goto	u2510
  6571  001E3A  EF25  F00F         u2515:
  6572  001E3E                     	bcf	status,0
  6573  001E40  90D8               	rrcf	(??___flmul+0+3),c
  6574  001E42  3238               	rrcf	(??___flmul+0+2),c
  6575  001E44  3237               	rrcf	(??___flmul+0+1),c
  6576  001E46  3236               	rrcf	(??___flmul+0+0),c
  6577  001E48  3235               u2510:
  6578  001E4A                     	decfsz	wreg
  6579  001E4C  2EE8               	goto	u2515
  6580  001E4E  EF1F  F00F         	movf	(??___flmul+0+0),c,w
  6581  001E52  5035               	addwf	((c:___flmul@prod)),c
  6582  001E54  2640               	movf	(??___flmul+0+1),c,w
  6583  001E56  5036               	addwfc	((c:___flmul@prod+1)),c
  6584  001E58  2241               	movf	(??___flmul+0+2),c,w
  6585  001E5A  5037               	addwfc	((c:___flmul@prod+2)),c
  6586  001E5C  2242               	movf	(??___flmul+0+3),c,w
  6587  001E5E  5038               	addwfc	((c:___flmul@prod+3)),c
  6588  001E60  2243               
  6589                           	line	146
  6590                           	
  6591                           l2511:
  6592  001E62                     	movff	(c:___flmul@grs+2),(c:___flmul@grs+3)
  6593  001E62  C03C  F03D         	movff	(c:___flmul@grs+1),(c:___flmul@grs+2)
  6594  001E66  C03B  F03C         	movff	(c:___flmul@grs),(c:___flmul@grs+1)
  6595  001E6A  C03A  F03B         	clrf	((c:___flmul@grs)),c
  6596  001E6E  6A3A               	line	149
  6597                           	
  6598                           l2513:
  6599  001E70                     	movf	((c:___flmul@aexp)),c,w
  6600  001E70  503E               	movff	(c:___flmul@bexp),??___flmul+0+0
  6601  001E72  C03F  F035         	clrf	(??___flmul+0+0+1)&0ffh,c
  6602  001E76  6A36               	addwf	(??___flmul+0+0),c
  6603  001E78  2635               	movlw	0
  6604  001E7A  0E00               	addwfc	(??___flmul+0+1),c
  6605  001E7C  2236               	movlw	low(-126)
  6606  001E7E  0E82               	addwf	(??___flmul+0+0),c,w
  6607  001E80  2435               	movwf	((c:___flmul@temp)),c
  6608  001E82  6E44               	movlw	high(-126)
  6609  001E84  0EFF               	addwfc	(??___flmul+0+1),c,w
  6610  001E86  2036               	movwf	1+((c:___flmul@temp)),c
  6611  001E88  6E45               	line	152
  6612                           	goto	l2521
  6613  001E8A  EF62  F00F         	
  6614                           l839:
  6615  001E8E                     	line	153
  6616                           	
  6617                           l2515:
  6618  001E8E                     	bcf	status,0
  6619  001E90  90D8               	rlcf	((c:___flmul@prod)),c
  6620  001E92  3640               	rlcf	((c:___flmul@prod+1)),c
  6621  001E94  3641               	rlcf	((c:___flmul@prod+2)),c
  6622  001E96  3642               	rlcf	((c:___flmul@prod+3)),c
  6623  001E98  3643               	line	154
  6624                           	
  6625                           l2517:
  6626  001E9A                     	
  6627                           	btfss	((c:___flmul@grs+3)),c,(31)&7
  6628  001E9A  AE3D               	goto	u2521
  6629  001E9C  EF52  F00F         	goto	u2520
  6630  001EA0  EF55  F00F         u2521:
  6631  001EA4                     	goto	l840
  6632  001EA6  EF57  F00F         u2520:
  6633  001EAA                     	line	155
  6634                           	
  6635                           l2519:
  6636  001EAC                     	bsf	(0+(0/8)+(c:___flmul@prod)),c,(0)&7
  6637  001EAC  8040               	line	156
  6638                           	
  6639                           l840:
  6640  001EAE                     	line	157
  6641                           	bcf	status,0
  6642  001EB0  90D8               	rlcf	((c:___flmul@grs)),c
  6643  001EB2  363A               	rlcf	((c:___flmul@grs+1)),c
  6644  001EB4  363B               	rlcf	((c:___flmul@grs+2)),c
  6645  001EB6  363C               	rlcf	((c:___flmul@grs+3)),c
  6646  001EB8  363D               	line	158
  6647                           	decf	((c:___flmul@temp)),c
  6648  001EBA  0644               	btfss	status,0
  6649  001EBC  A0D8               	decf	((c:___flmul@temp+1)),c
  6650  001EBE  0645               	goto	l2521
  6651  001EC0  EF62  F00F         	line	159
  6652                           	
  6653                           l838:
  6654  001EC4                     	line	152
  6655                           	
  6656                           l2521:
  6657  001EC4                     	
  6658                           	btfss	((c:___flmul@prod+2)),c,(23)&7
  6659  001EC6  AE42               	goto	u2531
  6660  001EC8  EF68  F00F         	goto	u2530
  6661  001ECC  EF6B  F00F         u2531:
  6662  001ED0                     	goto	l2515
  6663  001ED2  EF47  F00F         u2530:
  6664  001ED6                     	goto	l2523
  6665  001ED8  EF6E  F00F         	
  6666                           l841:
  6667  001EDC                     	line	163
  6668                           	
  6669                           l2523:
  6670  001EDC                     	movlw	low(0)
  6671  001EDE  0E00               	movwf	((c:___flmul@aexp)),c
  6672  001EE0  6E3E               	line	164
  6673                           	
  6674                           l2525:
  6675  001EE2                     	
  6676                           	btfss	((c:___flmul@grs+3)),c,(31)&7
  6677  001EE2  AE3D               	goto	u2541
  6678  001EE4  EF76  F00F         	goto	u2540
  6679  001EE8  EF79  F00F         u2541:
  6680  001EEC                     	goto	l842
  6681  001EEE  EFA7  F00F         u2540:
  6682  001EF2                     	line	165
  6683                           	
  6684                           l2527:
  6685  001EF4                     	movlw	0FFh
  6686  001EF4  0EFF               	andwf	((c:___flmul@grs)),c,w
  6687  001EF6  143A               	movwf	(??___flmul+0+0)&0ffh,c
  6688  001EF8  6E35               	movlw	0FFh
  6689  001EFA  0EFF               	andwf	((c:___flmul@grs+1)),c,w
  6690  001EFC  143B               	movwf	1+(??___flmul+0+0)&0ffh,c
  6691  001EFE  6E36               	
  6692                           	movlw	0FFh
  6693  001F00  0EFF               	andwf	((c:___flmul@grs+2)),c,w
  6694  001F02  143C               	movwf	2+(??___flmul+0+0)&0ffh,c
  6695  001F04  6E37               	
  6696                           	movlw	07Fh
  6697  001F06  0E7F               	andwf	((c:___flmul@grs+3)),c,w
  6698  001F08  143D               	movwf	3+(??___flmul+0+0)&0ffh,c
  6699  001F0A  6E38               	movf	(??___flmul+0+0),c,w
  6700  001F0C  5035               iorwf	(??___flmul+0+1),c,w
  6701  001F0E  1036               iorwf	(??___flmul+0+2),c,w
  6702  001F10  1037               iorwf	(??___flmul+0+3),c,w
  6703  001F12  1038               	btfsc	status,2
  6704  001F14  B4D8               	goto	u2551
  6705  001F16  EF8F  F00F         	goto	u2550
  6706  001F1A  EF92  F00F         
  6707                           u2551:
  6708  001F1E                     	goto	l843
  6709  001F20  EF97  F00F         u2550:
  6710  001F24                     	line	166
  6711                           	
  6712                           l2529:
  6713  001F26                     	movlw	low(01h)
  6714  001F26  0E01               	movwf	((c:___flmul@aexp)),c
  6715  001F28  6E3E               	line	167
  6716                           	goto	l842
  6717  001F2A  EFA7  F00F         	line	168
  6718                           	
  6719                           l843:
  6720  001F2E                     	line	169
  6721                           	
  6722                           	btfss	((c:___flmul@prod)),c,(0)&7
  6723  001F30  A040               	goto	u2561
  6724  001F32  EF9D  F00F         	goto	u2560
  6725  001F36  EFA0  F00F         u2561:
  6726  001F3A                     	goto	l842
  6727  001F3C  EFA7  F00F         u2560:
  6728  001F40                     	line	170
  6729                           	
  6730                           l2531:
  6731  001F42                     	movlw	low(01h)
  6732  001F42  0E01               	movwf	((c:___flmul@aexp)),c
  6733  001F44  6E3E               	goto	l842
  6734  001F46  EFA7  F00F         	line	171
  6735                           	
  6736                           l845:
  6737  001F4A                     	goto	l842
  6738  001F4A  EFA7  F00F         	line	172
  6739                           	
  6740                           l844:
  6741  001F4E                     	line	173
  6742                           	
  6743                           l842:
  6744  001F4E                     	line	174
  6745                           	movf	((c:___flmul@aexp)),c,w
  6746  001F50  503E               	btfsc	status,2
  6747  001F52  B4D8               	goto	u2571
  6748  001F54  EFAE  F00F         	goto	u2570
  6749  001F58  EFB1  F00F         u2571:
  6750  001F5C                     	goto	l2541
  6751  001F5E  EFDC  F00F         u2570:
  6752  001F62                     	line	175
  6753                           	
  6754                           l2533:
  6755  001F64                     	movlw	low(01h)
  6756  001F64  0E01               	addwf	((c:___flmul@prod)),c
  6757  001F66  2640               	movlw	0
  6758  001F68  0E00               	addwfc	((c:___flmul@prod+1)),c
  6759  001F6A  2241               	addwfc	((c:___flmul@prod+2)),c
  6760  001F6C  2242               	addwfc	((c:___flmul@prod+3)),c
  6761  001F6E  2243               	line	176
  6762                           	
  6763                           l2535:
  6764  001F70                     	
  6765                           	btfss	((c:___flmul@prod+3)),c,(24)&7
  6766  001F70  A043               	goto	u2581
  6767  001F72  EFBD  F00F         	goto	u2580
  6768  001F76  EFC0  F00F         u2581:
  6769  001F7A                     	goto	l2541
  6770  001F7C  EFDC  F00F         u2580:
  6771  001F80                     	line	177
  6772                           	
  6773                           l2537:
  6774  001F82                     	movff	(c:___flmul@prod),??___flmul+0+0
  6775  001F82  C040  F035         	movff	(c:___flmul@prod+1),??___flmul+0+0+1
  6776  001F86  C041  F036         	movff	(c:___flmul@prod+2),??___flmul+0+0+2
  6777  001F8A  C042  F037         	movff	(c:___flmul@prod+3),??___flmul+0+0+3
  6778  001F8E  C043  F038         	rlcf	(??___flmul+0+3),c,w
  6779  001F92  3438               	rrcf	(??___flmul+0+3),c
  6780  001F94  3238               	rrcf	(??___flmul+0+2),c
  6781  001F96  3237               	rrcf	(??___flmul+0+1),c
  6782  001F98  3236               	rrcf	(??___flmul+0+0),c
  6783  001F9A  3235               	movff	??___flmul+0+0,(c:___flmul@prod)
  6784  001F9C  C035  F040         	movff	??___flmul+0+1,(c:___flmul@prod+1)
  6785  001FA0  C036  F041         	movff	??___flmul+0+2,(c:___flmul@prod+2)
  6786  001FA4  C037  F042         	movff	??___flmul+0+3,(c:___flmul@prod+3)
  6787  001FA8  C038  F043         	line	178
  6788                           	
  6789                           l2539:
  6790  001FAC                     	infsnz	((c:___flmul@temp)),c
  6791  001FAC  4A44               	incf	((c:___flmul@temp+1)),c
  6792  001FAE  2A45               	goto	l2541
  6793  001FB0  EFDC  F00F         	line	179
  6794                           	
  6795                           l847:
  6796  001FB4                     	goto	l2541
  6797  001FB4  EFDC  F00F         	line	180
  6798                           	
  6799                           l846:
  6800  001FB8                     	line	183
  6801                           	
  6802                           l2541:
  6803  001FB8                     	btfsc	((c:___flmul@temp+1)),c,7
  6804  001FBA  BE45               	goto	u2591
  6805  001FBC  EFE8  F00F         	movf	((c:___flmul@temp+1)),c,w
  6806  001FC0  5045               	bnz	u2590
  6807  001FC2  E109               	incf	((c:___flmul@temp)),c,w
  6808  001FC4  2844               	btfss	status,0
  6809  001FC6  A0D8               	goto	u2591
  6810  001FC8  EFE8  F00F         	goto	u2590
  6811  001FCC  EFEB  F00F         
  6812                           u2591:
  6813  001FD0                     	goto	l2545
  6814  001FD2  EFF6  F00F         u2590:
  6815  001FD6                     	line	184
  6816                           	
  6817                           l2543:
  6818  001FD8                     	movlw	low(07F800000h)
  6819  001FD8  0E00               	movwf	((c:___flmul@prod)),c
  6820  001FDA  6E40               	movlw	high(07F800000h)
  6821  001FDC  0E00               	movwf	((c:___flmul@prod+1)),c
  6822  001FDE  6E41               	movlw	low highword(07F800000h)
  6823  001FE0  0E80               	movwf	((c:___flmul@prod+2)),c
  6824  001FE2  6E42               	movlw	high highword(07F800000h)
  6825  001FE4  0E7F               	movwf	((c:___flmul@prod+3)),c
  6826  001FE6  6E43               	line	185
  6827                           	goto	l2557
  6828  001FE8  EF31  F010         	line	187
  6829                           	
  6830                           l848:
  6831  001FEC                     	
  6832                           l2545:
  6833  001FEC                     	btfsc	((c:___flmul@temp+1)),c,7
  6834  001FEE  BE45               	goto	u2600
  6835  001FF0  EF05  F010         	movf	((c:___flmul@temp+1)),c,w
  6836  001FF4  5045               	bnz	u2601
  6837  001FF6  E106               	decf	((c:___flmul@temp)),c,w
  6838  001FF8  0444               	btfsc	status,0
  6839  001FFA  B0D8               	goto	u2601
  6840  001FFC  EF02  F010         	goto	u2600
  6841  002000  EF05  F010         
  6842                           u2601:
  6843  002004                     	goto	l850
  6844  002006  EF12  F010         u2600:
  6845  00200A                     	line	188
  6846                           	
  6847                           l2547:
  6848  00200C                     	movlw	low(0)
  6849  00200C  0E00               	movwf	((c:___flmul@prod)),c
  6850  00200E  6E40               	movlw	high(0)
  6851  002010  0E00               	movwf	((c:___flmul@prod+1)),c
  6852  002012  6E41               	movlw	low highword(0)
  6853  002014  0E00               	movwf	((c:___flmul@prod+2)),c
  6854  002016  6E42               	movlw	high highword(0)
  6855  002018  0E00               	movwf	((c:___flmul@prod+3)),c
  6856  00201A  6E43               	line	190
  6857                           	movlw	low(0)
  6858  00201C  0E00               	movwf	((c:___flmul@sign)),c
  6859  00201E  6E39               	line	191
  6860                           	goto	l2557
  6861  002020  EF31  F010         	line	192
  6862                           	
  6863                           l850:
  6864  002024                     	line	194
  6865                           	movff	(c:___flmul@temp),(c:___flmul@bexp)
  6866  002026  C044  F03F         	line	195
  6867                           	
  6868                           l2549:
  6869  00202A                     	movlw	0FFh
  6870  00202A  0EFF               	andwf	((c:___flmul@prod)),c
  6871  00202C  1640               	movlw	0FFh
  6872  00202E  0EFF               	andwf	((c:___flmul@prod+1)),c
  6873  002030  1641               	movlw	07Fh
  6874  002032  0E7F               	andwf	((c:___flmul@prod+2)),c
  6875  002034  1642               	movlw	0
  6876  002036  0E00               	andwf	((c:___flmul@prod+3)),c
  6877  002038  1643               	line	196
  6878                           	
  6879                           l2551:
  6880  00203A                     	
  6881                           	btfss	((c:___flmul@bexp)),c,(0)&7
  6882  00203A  A03F               	goto	u2611
  6883  00203C  EF22  F010         	goto	u2610
  6884  002040  EF25  F010         u2611:
  6885  002044                     	goto	l2555
  6886  002046  EF29  F010         u2610:
  6887  00204A                     	line	197
  6888                           	
  6889                           l2553:
  6890  00204C                     	bsf	(0+(7/8)+0+((c:___flmul@prod)+02h)),c,(7)&7
  6891  00204C  8E42               	goto	l2555
  6892  00204E  EF29  F010         	line	198
  6893                           	
  6894                           l852:
  6895  002052                     	line	199
  6896                           	
  6897                           l2555:
  6898  002052                     	bcf	status,0
  6899  002054  90D8               	rrcf	((c:___flmul@bexp)),c,w
  6900  002056  303F               	movwf	(0+((c:___flmul@prod)+03h)),c
  6901  002058  6E43               	goto	l2557
  6902  00205A  EF31  F010         	line	200
  6903                           	
  6904                           l851:
  6905  00205E                     	goto	l2557
  6906  00205E  EF31  F010         	
  6907                           l849:
  6908  002062                     	line	201
  6909                           	
  6910                           l2557:
  6911  002062                     	movf	((c:___flmul@sign)),c,w
  6912  002064  5039               	iorwf	(0+((c:___flmul@prod)+03h)),c
  6913  002066  1243               	line	203
  6914                           	
  6915                           l2559:
  6916  002068                     	movff	(c:___flmul@prod),(c:?___flmul)
  6917  002068  C040  F02D         	movff	(c:___flmul@prod+1),(c:?___flmul+1)
  6918  00206C  C041  F02E         	movff	(c:___flmul@prod+2),(c:?___flmul+2)
  6919  002070  C042  F02F         	movff	(c:___flmul@prod+3),(c:?___flmul+3)
  6920  002074  C043  F030         	goto	l837
  6921  002078  EF3E  F010         	
  6922                           l2561:
  6923  00207C                     	line	205
  6924                           	
  6925                           l837:
  6926  00207C                     	return	;funcret
  6927  00207E  0012               	dw	0FFFFh; errata NOP
  6928  002080  FFFF               	opt stack 0
  6929                           GLOBAL	__end_of___flmul
  6930                           	__end_of___flmul:
  6931  002082                     	signat	___flmul,8316
  6932                           	global	__tdiv_to_l_
  6933                           
  6934 ;; *************** function __tdiv_to_l_ *****************
  6935 ;; Defined at:
  6936 ;;		line 60 in file "C:\Program Files (x86)\Microchip\xc8\v2.00\pic\sources\c90\common\ftdivl.c"
  6937 ;; Parameters:    Size  Location     Type
  6938 ;;  f1              4   30[COMRAM] float 
  6939 ;;  f2              4   34[COMRAM] float 
  6940 ;; Auto vars:     Size  Location     Type
  6941 ;;  quot            4   41[COMRAM] unsigned long 
  6942 ;;  exp1            1   46[COMRAM] unsigned char 
  6943 ;;  cntr            1   45[COMRAM] unsigned char 
  6944 ;; Return value:  Size  Location     Type
  6945 ;;                  4   30[COMRAM] unsigned long 
  6946 ;; Registers used:
  6947 ;;		wreg, status,2, status,0
  6948 ;; Tracked objects:
  6949 ;;		On entry : 0/0
  6950 ;;		On exit  : 0/0
  6951 ;;		Unchanged: 0/0
  6952 ;; Data sizes:     COMRAM   BANK0   BANK1   BANK2   BANK3   BANK4   BANK5
  6953 ;;      Params:         8       0       0       0       0       0       0
  6954 ;;      Locals:         6       0       0       0       0       0       0
  6955 ;;      Temps:          3       0       0       0       0       0       0
  6956 ;;      Totals:        17       0       0       0       0       0       0
  6957 ;;Total ram usage:       17 bytes
  6958 ;; Hardware stack levels used:    1
  6959 ;; Hardware stack levels required when called:    3
  6960 ;; This function calls:
  6961 ;;		Nothing
  6962 ;; This function is called by:
  6963 ;;		_printf
  6964 ;; This function uses a non-reentrant model
  6965 ;;
  6966                           psect	text11,class=CODE,space=0,reloc=2,group=1
  6967                           	file	"C:\Program Files (x86)\Microchip\xc8\v2.00\pic\sources\c90\common\ftdivl.c"
  6968                           	line	60
  6969                           global __ptext11
  6970                           __ptext11:
  6971  002C76                     psect	text11
  6972                           	file	"C:\Program Files (x86)\Microchip\xc8\v2.00\pic\sources\c90\common\ftdivl.c"
  6973                           	line	60
  6974                           	global	__size_of__tdiv_to_l_
  6975                           	__size_of__tdiv_to_l_	equ	__end_of__tdiv_to_l_-__tdiv_to_l_
  6976  0000                     	
  6977                           __tdiv_to_l_:
  6978  002C76                     ;incstack = 0
  6979                           	opt	stack 26
  6980                           	line	66
  6981                           	
  6982                           l2753:
  6983  002C78                     	movff	(c:__tdiv_to_l_@f1+2),??__tdiv_to_l_+0+0
  6984  002C78  C021  F027         	clrf	(??__tdiv_to_l_+0+0+1)&0ffh,c
  6985  002C7C  6A28               	clrf	(??__tdiv_to_l_+0+0+2)&0ffh,c
  6986  002C7E  6A29               	rlcf	((c:__tdiv_to_l_@f1+1)),c,w
  6987  002C80  3420               	rlcf	(??__tdiv_to_l_+0+0)&0ffh,c
  6988  002C82  3627               	bnc	u2901
  6989  002C84  E301               	bsf	(??__tdiv_to_l_+0+0+1)&0ffh,c,0
  6990  002C86  8028               u2901:
  6991  002C88                     	movf	(??__tdiv_to_l_+0+0),c,w
  6992  002C88  5027               	movwf	((c:__tdiv_to_l_@exp1)),c
  6993  002C8A  6E2F               	movf	((c:__tdiv_to_l_@exp1)),c,w
  6994  002C8C  502F               	btfss	status,2
  6995  002C8E  A4D8               	goto	u2911
  6996  002C90  EF4C  F016         	goto	u2910
  6997  002C94  EF4F  F016         u2911:
  6998  002C98                     	goto	l2759
  6999  002C9A  EF5C  F016         u2910:
  7000  002C9E                     	line	67
  7001                           	
  7002                           l2755:
  7003  002CA0                     	movlw	low(0)
  7004  002CA0  0E00               	movwf	((c:?__tdiv_to_l_)),c
  7005  002CA2  6E1F               	movlw	high(0)
  7006  002CA4  0E00               	movwf	((c:?__tdiv_to_l_+1)),c
  7007  002CA6  6E20               	movlw	low highword(0)
  7008  002CA8  0E00               	movwf	((c:?__tdiv_to_l_+2)),c
  7009  002CAA  6E21               	movlw	high highword(0)
  7010  002CAC  0E00               	movwf	((c:?__tdiv_to_l_+3)),c
  7011  002CAE  6E22               	goto	l560
  7012  002CB0  EF2A  F017         	
  7013                           l2757:
  7014  002CB4                     	goto	l560
  7015  002CB4  EF2A  F017         	
  7016                           l559:
  7017  002CB8                     	line	68
  7018                           	
  7019                           l2759:
  7020  002CB8                     	movff	(c:__tdiv_to_l_@f2+2),??__tdiv_to_l_+0+0
  7021  002CBA  C025  F027         	clrf	(??__tdiv_to_l_+0+0+1)&0ffh,c
  7022  002CBE  6A28               	clrf	(??__tdiv_to_l_+0+0+2)&0ffh,c
  7023  002CC0  6A29               	rlcf	((c:__tdiv_to_l_@f2+1)),c,w
  7024  002CC2  3424               	rlcf	(??__tdiv_to_l_+0+0)&0ffh,c
  7025  002CC4  3627               	bnc	u2921
  7026  002CC6  E301               	bsf	(??__tdiv_to_l_+0+0+1)&0ffh,c,0
  7027  002CC8  8028               u2921:
  7028  002CCA                     	movf	(??__tdiv_to_l_+0+0),c,w
  7029  002CCA  5027               	movwf	((c:__tdiv_to_l_@cntr)),c
  7030  002CCC  6E2E               	movf	((c:__tdiv_to_l_@cntr)),c,w
  7031  002CCE  502E               	btfss	status,2
  7032  002CD0  A4D8               	goto	u2931
  7033  002CD2  EF6D  F016         	goto	u2930
  7034  002CD6  EF70  F016         u2931:
  7035  002CDA                     	goto	l2765
  7036  002CDC  EF7D  F016         u2930:
  7037  002CE0                     	line	69
  7038                           	
  7039                           l2761:
  7040  002CE2                     	movlw	low(0)
  7041  002CE2  0E00               	movwf	((c:?__tdiv_to_l_)),c
  7042  002CE4  6E1F               	movlw	high(0)
  7043  002CE6  0E00               	movwf	((c:?__tdiv_to_l_+1)),c
  7044  002CE8  6E20               	movlw	low highword(0)
  7045  002CEA  0E00               	movwf	((c:?__tdiv_to_l_+2)),c
  7046  002CEC  6E21               	movlw	high highword(0)
  7047  002CEE  0E00               	movwf	((c:?__tdiv_to_l_+3)),c
  7048  002CF0  6E22               	goto	l560
  7049  002CF2  EF2A  F017         	
  7050                           l2763:
  7051  002CF6                     	goto	l560
  7052  002CF6  EF2A  F017         	
  7053                           l561:
  7054  002CFA                     	line	70
  7055                           	
  7056                           l2765:
  7057  002CFA                     	bsf	(0+(15/8)+(c:__tdiv_to_l_@f1)),c,(15)&7
  7058  002CFC  8E20               	line	71
  7059                           	
  7060                           l2767:
  7061  002CFE                     	movlw	low(0FFFFh)
  7062  002CFE  0EFF               	andwf	((c:__tdiv_to_l_@f1)),c
  7063  002D00  161F               	movlw	high(0FFFFh)
  7064  002D02  0EFF               	andwf	((c:__tdiv_to_l_@f1+1)),c
  7065  002D04  1620               	movlw	low highword(0FFFFh)
  7066  002D06  0E00               	andwf	((c:__tdiv_to_l_@f1+2)),c
  7067  002D08  1621               
  7068                           	line	72
  7069                           	bsf	(0+(15/8)+(c:__tdiv_to_l_@f2)),c,(15)&7
  7070  002D0A  8E24               	line	73
  7071                           	
  7072                           l2769:
  7073  002D0C                     	movlw	low(0FFFFh)
  7074  002D0C  0EFF               	andwf	((c:__tdiv_to_l_@f2)),c
  7075  002D0E  1623               	movlw	high(0FFFFh)
  7076  002D10  0EFF               	andwf	((c:__tdiv_to_l_@f2+1)),c
  7077  002D12  1624               	movlw	low highword(0FFFFh)
  7078  002D14  0E00               	andwf	((c:__tdiv_to_l_@f2+2)),c
  7079  002D16  1625               
  7080                           	line	74
  7081                           	
  7082                           l2771:
  7083  002D18                     	movlw	low(0)
  7084  002D18  0E00               	movwf	((c:__tdiv_to_l_@quot)),c
  7085  002D1A  6E2A               	movlw	high(0)
  7086  002D1C  0E00               	movwf	((c:__tdiv_to_l_@quot+1)),c
  7087  002D1E  6E2B               	movlw	low highword(0)
  7088  002D20  0E00               	movwf	((c:__tdiv_to_l_@quot+2)),c
  7089  002D22  6E2C               	movlw	high highword(0)
  7090  002D24  0E00               	movwf	((c:__tdiv_to_l_@quot+3)),c
  7091  002D26  6E2D               	line	75
  7092                           	
  7093                           l2773:
  7094  002D28                     	movlw	(07Fh)&0ffh
  7095  002D28  0E7F               	subwf	((c:__tdiv_to_l_@exp1)),c
  7096  002D2A  5E2F               	line	76
  7097                           	
  7098                           l2775:
  7099  002D2C                     	movf	((c:__tdiv_to_l_@cntr)),c,w
  7100  002D2C  502E               	addlw	low(098h)
  7101  002D2E  0F98               	subwf	((c:__tdiv_to_l_@exp1)),c
  7102  002D30  5E2F               	line	77
  7103                           	
  7104                           l2777:
  7105  002D32                     	movlw	low(018h)
  7106  002D32  0E18               	movwf	((c:__tdiv_to_l_@cntr)),c
  7107  002D34  6E2E               	line	78
  7108                           	
  7109                           l562:
  7110  002D36                     	line	79
  7111                           	bcf	status,0
  7112  002D38  90D8               	rlcf	((c:__tdiv_to_l_@quot)),c
  7113  002D3A  362A               	rlcf	((c:__tdiv_to_l_@quot+1)),c
  7114  002D3C  362B               	rlcf	((c:__tdiv_to_l_@quot+2)),c
  7115  002D3E  362C               	rlcf	((c:__tdiv_to_l_@quot+3)),c
  7116  002D40  362D               	line	80
  7117                           	
  7118                           l2779:
  7119  002D42                     		movf	((c:__tdiv_to_l_@f2)),c,w
  7120  002D42  5023               	subwf	((c:__tdiv_to_l_@f1)),c,w
  7121  002D44  5C1F               	movf	((c:__tdiv_to_l_@f2+1)),c,w
  7122  002D46  5024               	subwfb	((c:__tdiv_to_l_@f1+1)),c,w
  7123  002D48  5820               	movf	((c:__tdiv_to_l_@f2+2)),c,w
  7124  002D4A  5025               	subwfb	((c:__tdiv_to_l_@f1+2)),c,w
  7125  002D4C  5821               	btfss	status,0
  7126  002D4E  A0D8               	goto	u2941
  7127  002D50  EFAC  F016         	goto	u2940
  7128  002D54  EFAF  F016         
  7129                           u2941:
  7130  002D58                     	goto	l563
  7131  002D5A  EFB7  F016         u2940:
  7132  002D5E                     	line	81
  7133                           	
  7134                           l2781:
  7135  002D60                     	movf	((c:__tdiv_to_l_@f2)),c,w
  7136  002D60  5023               	subwf	((c:__tdiv_to_l_@f1)),c
  7137  002D62  5E1F               	movf	((c:__tdiv_to_l_@f2+1)),c,w
  7138  002D64  5024               	subwfb	((c:__tdiv_to_l_@f1+1)),c
  7139  002D66  5A20               	movf	((c:__tdiv_to_l_@f2+2)),c,w
  7140  002D68  5025               	subwfb	((c:__tdiv_to_l_@f1+2)),c
  7141  002D6A  5A21               
  7142                           	line	82
  7143                           	
  7144                           l2783:
  7145  002D6C                     	bsf	(0+(0/8)+(c:__tdiv_to_l_@quot)),c,(0)&7
  7146  002D6C  802A               	line	83
  7147                           	
  7148                           l563:
  7149  002D6E                     	line	84
  7150                           	bcf	status,0
  7151  002D70  90D8               	rlcf	((c:__tdiv_to_l_@f1)),c
  7152  002D72  361F               	rlcf	((c:__tdiv_to_l_@f1+1)),c
  7153  002D74  3620               	rlcf	((c:__tdiv_to_l_@f1+2)),c
  7154  002D76  3621               	line	85
  7155                           	
  7156                           l2785:
  7157  002D78                     	decfsz	((c:__tdiv_to_l_@cntr)),c
  7158  002D78  2E2E               	
  7159                           	goto	l562
  7160  002D7A  EF9B  F016         	goto	l2787
  7161  002D7E  EFC1  F016         	
  7162                           l564:
  7163  002D82                     	line	86
  7164                           	
  7165                           l2787:
  7166  002D82                     	btfsc	((c:__tdiv_to_l_@exp1)),c,7
  7167  002D84  BE2F               	goto	u2950
  7168  002D86  EFCA  F016         	goto	u2951
  7169  002D8A  EFC7  F016         
  7170                           u2951:
  7171  002D8E                     	goto	l2799
  7172  002D90  EFF2  F016         u2950:
  7173  002D94                     	line	87
  7174                           	
  7175                           l2789:
  7176  002D96                     		movf	((c:__tdiv_to_l_@exp1)),c,w
  7177  002D96  502F               	xorlw	80h
  7178  002D98  0A80               	addlw	-(80h^-23)
  7179  002D9A  0F97               	btfsc	status,0
  7180  002D9C  B0D8               	goto	u2961
  7181  002D9E  EFD3  F016         	goto	u2960
  7182  002DA2  EFD6  F016         
  7183                           u2961:
  7184  002DA6                     	goto	l2795
  7185  002DA8  EFE5  F016         u2960:
  7186  002DAC                     	line	88
  7187                           	
  7188                           l2791:
  7189  002DAE                     	movlw	low(0)
  7190  002DAE  0E00               	movwf	((c:?__tdiv_to_l_)),c
  7191  002DB0  6E1F               	movlw	high(0)
  7192  002DB2  0E00               	movwf	((c:?__tdiv_to_l_+1)),c
  7193  002DB4  6E20               	movlw	low highword(0)
  7194  002DB6  0E00               	movwf	((c:?__tdiv_to_l_+2)),c
  7195  002DB8  6E21               	movlw	high highword(0)
  7196  002DBA  0E00               	movwf	((c:?__tdiv_to_l_+3)),c
  7197  002DBC  6E22               	goto	l560
  7198  002DBE  EF2A  F017         	
  7199                           l2793:
  7200  002DC2                     	goto	l560
  7201  002DC2  EF2A  F017         	
  7202                           l566:
  7203  002DC6                     	goto	l2795
  7204  002DC6  EFE5  F016         	line	89
  7205                           	
  7206                           l567:
  7207  002DCA                     	line	90
  7208                           	
  7209                           l2795:
  7210  002DCA                     	bcf	status,0
  7211  002DCC  90D8               	rrcf	((c:__tdiv_to_l_@quot+3)),c
  7212  002DCE  322D               	rrcf	((c:__tdiv_to_l_@quot+2)),c
  7213  002DD0  322C               	rrcf	((c:__tdiv_to_l_@quot+1)),c
  7214  002DD2  322B               	rrcf	((c:__tdiv_to_l_@quot)),c
  7215  002DD4  322A               	line	91
  7216                           	
  7217                           l2797:
  7218  002DD6                     	incfsz	((c:__tdiv_to_l_@exp1)),c
  7219  002DD6  3E2F               	
  7220                           	goto	l2795
  7221  002DD8  EFE5  F016         	goto	l569
  7222  002DDC  EF21  F017         	
  7223                           l568:
  7224  002DE0                     	line	92
  7225                           	goto	l569
  7226  002DE0  EF21  F017         	
  7227                           l565:
  7228  002DE4                     	line	93
  7229                           	
  7230                           l2799:
  7231  002DE4                     		movlw	018h-1
  7232  002DE6  0E17               	cpfsgt	((c:__tdiv_to_l_@exp1)),c
  7233  002DE8  642F               	goto	u2971
  7234  002DEA  EFF9  F016         	goto	u2970
  7235  002DEE  EFFC  F016         
  7236                           u2971:
  7237  002DF2                     	goto	l2807
  7238  002DF4  EF14  F017         u2970:
  7239  002DF8                     	line	94
  7240                           	
  7241                           l2801:
  7242  002DFA                     	movlw	low(0)
  7243  002DFA  0E00               	movwf	((c:?__tdiv_to_l_)),c
  7244  002DFC  6E1F               	movlw	high(0)
  7245  002DFE  0E00               	movwf	((c:?__tdiv_to_l_+1)),c
  7246  002E00  6E20               	movlw	low highword(0)
  7247  002E02  0E00               	movwf	((c:?__tdiv_to_l_+2)),c
  7248  002E04  6E21               	movlw	high highword(0)
  7249  002E06  0E00               	movwf	((c:?__tdiv_to_l_+3)),c
  7250  002E08  6E22               	goto	l560
  7251  002E0A  EF2A  F017         	
  7252                           l2803:
  7253  002E0E                     	goto	l560
  7254  002E0E  EF2A  F017         	
  7255                           l570:
  7256  002E12                     	line	95
  7257                           	goto	l2807
  7258  002E12  EF14  F017         	
  7259                           l572:
  7260  002E16                     	line	96
  7261                           	
  7262                           l2805:
  7263  002E16                     	bcf	status,0
  7264  002E18  90D8               	rlcf	((c:__tdiv_to_l_@quot)),c
  7265  002E1A  362A               	rlcf	((c:__tdiv_to_l_@quot+1)),c
  7266  002E1C  362B               	rlcf	((c:__tdiv_to_l_@quot+2)),c
  7267  002E1E  362C               	rlcf	((c:__tdiv_to_l_@quot+3)),c
  7268  002E20  362D               	line	97
  7269                           	decf	((c:__tdiv_to_l_@exp1)),c
  7270  002E22  062F               	goto	l2807
  7271  002E24  EF14  F017         	line	98
  7272                           	
  7273                           l571:
  7274  002E28                     	line	95
  7275                           	
  7276                           l2807:
  7277  002E28                     	movf	((c:__tdiv_to_l_@exp1)),c,w
  7278  002E2A  502F               	btfss	status,2
  7279  002E2C  A4D8               	goto	u2981
  7280  002E2E  EF1B  F017         	goto	u2980
  7281  002E32  EF1E  F017         u2981:
  7282  002E36                     	goto	l2805
  7283  002E38  EF0B  F017         u2980:
  7284  002E3C                     	goto	l569
  7285  002E3E  EF21  F017         	
  7286                           l573:
  7287  002E42                     	line	99
  7288                           	
  7289                           l569:
  7290  002E42                     	line	100
  7291                           	movff	(c:__tdiv_to_l_@quot),(c:?__tdiv_to_l_)
  7292  002E44  C02A  F01F         	movff	(c:__tdiv_to_l_@quot+1),(c:?__tdiv_to_l_+1)
  7293  002E48  C02B  F020         	movff	(c:__tdiv_to_l_@quot+2),(c:?__tdiv_to_l_+2)
  7294  002E4C  C02C  F021         	movff	(c:__tdiv_to_l_@quot+3),(c:?__tdiv_to_l_+3)
  7295  002E50  C02D  F022         	line	101
  7296                           	
  7297                           l560:
  7298  002E54                     	return	;funcret
  7299  002E56  0012               	dw	0FFFFh; errata NOP
  7300  002E58  FFFF               	opt stack 0
  7301                           GLOBAL	__end_of__tdiv_to_l_
  7302                           	__end_of__tdiv_to_l_:
  7303  002E5A                     	signat	__tdiv_to_l_,8316
  7304                           	global	__div_to_l_
  7305                           
  7306 ;; *************** function __div_to_l_ *****************
  7307 ;; Defined at:
  7308 ;;		line 60 in file "C:\Program Files (x86)\Microchip\xc8\v2.00\pic\sources\c90\common\fldivl.c"
  7309 ;; Parameters:    Size  Location     Type
  7310 ;;  f1              4   30[COMRAM] unsigned long 
  7311 ;;  f2              4   34[COMRAM] unsigned long 
  7312 ;; Auto vars:     Size  Location     Type
  7313 ;;  quot            4   38[COMRAM] unsigned long 
  7314 ;;  exp1            1   43[COMRAM] unsigned char 
  7315 ;;  cntr            1   42[COMRAM] unsigned char 
  7316 ;; Return value:  Size  Location     Type
  7317 ;;                  4   30[COMRAM] unsigned long 
  7318 ;; Registers used:
  7319 ;;		wreg, status,2, status,0
  7320 ;; Tracked objects:
  7321 ;;		On entry : 0/0
  7322 ;;		On exit  : 0/0
  7323 ;;		Unchanged: 0/0
  7324 ;; Data sizes:     COMRAM   BANK0   BANK1   BANK2   BANK3   BANK4   BANK5
  7325 ;;      Params:         8       0       0       0       0       0       0
  7326 ;;      Locals:         6       0       0       0       0       0       0
  7327 ;;      Temps:          0       0       0       0       0       0       0
  7328 ;;      Totals:        14       0       0       0       0       0       0
  7329 ;;Total ram usage:       14 bytes
  7330 ;; Hardware stack levels used:    1
  7331 ;; Hardware stack levels required when called:    3
  7332 ;; This function calls:
  7333 ;;		Nothing
  7334 ;; This function is called by:
  7335 ;;		_printf
  7336 ;; This function uses a non-reentrant model
  7337 ;;
  7338                           psect	text12,class=CODE,space=0,reloc=2,group=1
  7339                           	file	"C:\Program Files (x86)\Microchip\xc8\v2.00\pic\sources\c90\common\fldivl.c"
  7340                           	line	60
  7341                           global __ptext12
  7342                           __ptext12:
  7343  002E5A                     psect	text12
  7344                           	file	"C:\Program Files (x86)\Microchip\xc8\v2.00\pic\sources\c90\common\fldivl.c"
  7345                           	line	60
  7346                           	global	__size_of__div_to_l_
  7347                           	__size_of__div_to_l_	equ	__end_of__div_to_l_-__div_to_l_
  7348  0000                     	
  7349                           __div_to_l_:
  7350  002E5A                     ;incstack = 0
  7351                           	opt	stack 26
  7352                           	line	66
  7353                           	
  7354                           l2809:
  7355  002E5C                     	rlcf	((c:__div_to_l_@f1+2)),c,w
  7356  002E5C  3421               	rlcf	((c:__div_to_l_@f1+3)),c,w
  7357  002E5E  3422               	movwf	((c:__div_to_l_@exp1)),c
  7358  002E60  6E2C               	movf	((c:__div_to_l_@exp1)),c,w
  7359  002E62  502C               	btfss	status,2
  7360  002E64  A4D8               	goto	u2991
  7361  002E66  EF37  F017         	goto	u2990
  7362  002E6A  EF3A  F017         u2991:
  7363  002E6E                     	goto	l2815
  7364  002E70  EF47  F017         u2990:
  7365  002E74                     	line	67
  7366                           	
  7367                           l2811:
  7368  002E76                     	movlw	low(0)
  7369  002E76  0E00               	movwf	((c:?__div_to_l_)),c
  7370  002E78  6E1F               	movlw	high(0)
  7371  002E7A  0E00               	movwf	((c:?__div_to_l_+1)),c
  7372  002E7C  6E20               	movlw	low highword(0)
  7373  002E7E  0E00               	movwf	((c:?__div_to_l_+2)),c
  7374  002E80  6E21               	movlw	high highword(0)
  7375  002E82  0E00               	movwf	((c:?__div_to_l_+3)),c
  7376  002E84  6E22               	goto	l451
  7377  002E86  EF1B  F018         	
  7378                           l2813:
  7379  002E8A                     	goto	l451
  7380  002E8A  EF1B  F018         	
  7381                           l450:
  7382  002E8E                     	line	68
  7383                           	
  7384                           l2815:
  7385  002E8E                     	rlcf	((c:__div_to_l_@f2+2)),c,w
  7386  002E90  3425               	rlcf	((c:__div_to_l_@f2+3)),c,w
  7387  002E92  3426               	movwf	((c:__div_to_l_@cntr)),c
  7388  002E94  6E2B               	movf	((c:__div_to_l_@cntr)),c,w
  7389  002E96  502B               	btfss	status,2
  7390  002E98  A4D8               	goto	u3001
  7391  002E9A  EF51  F017         	goto	u3000
  7392  002E9E  EF54  F017         u3001:
  7393  002EA2                     	goto	l2821
  7394  002EA4  EF61  F017         u3000:
  7395  002EA8                     	line	69
  7396                           	
  7397                           l2817:
  7398  002EAA                     	movlw	low(0)
  7399  002EAA  0E00               	movwf	((c:?__div_to_l_)),c
  7400  002EAC  6E1F               	movlw	high(0)
  7401  002EAE  0E00               	movwf	((c:?__div_to_l_+1)),c
  7402  002EB0  6E20               	movlw	low highword(0)
  7403  002EB2  0E00               	movwf	((c:?__div_to_l_+2)),c
  7404  002EB4  6E21               	movlw	high highword(0)
  7405  002EB6  0E00               	movwf	((c:?__div_to_l_+3)),c
  7406  002EB8  6E22               	goto	l451
  7407  002EBA  EF1B  F018         	
  7408                           l2819:
  7409  002EBE                     	goto	l451
  7410  002EBE  EF1B  F018         	
  7411                           l452:
  7412  002EC2                     	line	70
  7413                           	
  7414                           l2821:
  7415  002EC2                     	bsf	(0+(23/8)+(c:__div_to_l_@f1)),c,(23)&7
  7416  002EC4  8E21               	line	71
  7417                           	
  7418                           l2823:
  7419  002EC6                     	movlw	0FFh
  7420  002EC6  0EFF               	andwf	((c:__div_to_l_@f1)),c
  7421  002EC8  161F               	movlw	0FFh
  7422  002ECA  0EFF               	andwf	((c:__div_to_l_@f1+1)),c
  7423  002ECC  1620               	movlw	0FFh
  7424  002ECE  0EFF               	andwf	((c:__div_to_l_@f1+2)),c
  7425  002ED0  1621               	movlw	0
  7426  002ED2  0E00               	andwf	((c:__div_to_l_@f1+3)),c
  7427  002ED4  1622               	line	72
  7428                           	
  7429                           l2825:
  7430  002ED6                     	bsf	(0+(23/8)+(c:__div_to_l_@f2)),c,(23)&7
  7431  002ED6  8E25               	line	73
  7432                           	movlw	0FFh
  7433  002ED8  0EFF               	andwf	((c:__div_to_l_@f2)),c
  7434  002EDA  1623               	movlw	0FFh
  7435  002EDC  0EFF               	andwf	((c:__div_to_l_@f2+1)),c
  7436  002EDE  1624               	movlw	0FFh
  7437  002EE0  0EFF               	andwf	((c:__div_to_l_@f2+2)),c
  7438  002EE2  1625               	movlw	0
  7439  002EE4  0E00               	andwf	((c:__div_to_l_@f2+3)),c
  7440  002EE6  1626               	line	74
  7441                           	
  7442                           l2827:
  7443  002EE8                     	movlw	low(0)
  7444  002EE8  0E00               	movwf	((c:__div_to_l_@quot)),c
  7445  002EEA  6E27               	movlw	high(0)
  7446  002EEC  0E00               	movwf	((c:__div_to_l_@quot+1)),c
  7447  002EEE  6E28               	movlw	low highword(0)
  7448  002EF0  0E00               	movwf	((c:__div_to_l_@quot+2)),c
  7449  002EF2  6E29               	movlw	high highword(0)
  7450  002EF4  0E00               	movwf	((c:__div_to_l_@quot+3)),c
  7451  002EF6  6E2A               	line	75
  7452                           	
  7453                           l2829:
  7454  002EF8                     	movlw	(07Fh)&0ffh
  7455  002EF8  0E7F               	subwf	((c:__div_to_l_@exp1)),c
  7456  002EFA  5E2C               	line	76
  7457                           	
  7458                           l2831:
  7459  002EFC                     	movf	((c:__div_to_l_@cntr)),c,w
  7460  002EFC  502B               	addlw	low(0A0h)
  7461  002EFE  0FA0               	subwf	((c:__div_to_l_@exp1)),c
  7462  002F00  5E2C               	line	77
  7463                           	
  7464                           l2833:
  7465  002F02                     	movlw	low(020h)
  7466  002F02  0E20               	movwf	((c:__div_to_l_@cntr)),c
  7467  002F04  6E2B               	goto	l2835
  7468  002F06  EF85  F017         	line	78
  7469                           	
  7470                           l453:
  7471  002F0A                     	line	79
  7472                           	
  7473                           l2835:
  7474  002F0A                     	bcf	status,0
  7475  002F0C  90D8               	rlcf	((c:__div_to_l_@quot)),c
  7476  002F0E  3627               	rlcf	((c:__div_to_l_@quot+1)),c
  7477  002F10  3628               	rlcf	((c:__div_to_l_@quot+2)),c
  7478  002F12  3629               	rlcf	((c:__div_to_l_@quot+3)),c
  7479  002F14  362A               	line	80
  7480                           	
  7481                           l2837:
  7482  002F16                     		movf	((c:__div_to_l_@f2)),c,w
  7483  002F16  5023               	subwf	((c:__div_to_l_@f1)),c,w
  7484  002F18  5C1F               	movf	((c:__div_to_l_@f2+1)),c,w
  7485  002F1A  5024               	subwfb	((c:__div_to_l_@f1+1)),c,w
  7486  002F1C  5820               	movf	((c:__div_to_l_@f2+2)),c,w
  7487  002F1E  5025               	subwfb	((c:__div_to_l_@f1+2)),c,w
  7488  002F20  5821               	movf	((c:__div_to_l_@f2+3)),c,w
  7489  002F22  5026               	subwfb	((c:__div_to_l_@f1+3)),c,w
  7490  002F24  5822               	btfss	status,0
  7491  002F26  A0D8               	goto	u3011
  7492  002F28  EF98  F017         	goto	u3010
  7493  002F2C  EF9B  F017         
  7494                           u3011:
  7495  002F30                     	goto	l2843
  7496  002F32  EFA7  F017         u3010:
  7497  002F36                     	line	81
  7498                           	
  7499                           l2839:
  7500  002F38                     	movf	((c:__div_to_l_@f2)),c,w
  7501  002F38  5023               	subwf	((c:__div_to_l_@f1)),c
  7502  002F3A  5E1F               	movf	((c:__div_to_l_@f2+1)),c,w
  7503  002F3C  5024               	subwfb	((c:__div_to_l_@f1+1)),c
  7504  002F3E  5A20               	movf	((c:__div_to_l_@f2+2)),c,w
  7505  002F40  5025               	subwfb	((c:__div_to_l_@f1+2)),c
  7506  002F42  5A21               	movf	((c:__div_to_l_@f2+3)),c,w
  7507  002F44  5026               	subwfb	((c:__div_to_l_@f1+3)),c
  7508  002F46  5A22               	line	82
  7509                           	
  7510                           l2841:
  7511  002F48                     	bsf	(0+(0/8)+(c:__div_to_l_@quot)),c,(0)&7
  7512  002F48  8027               	goto	l2843
  7513  002F4A  EFA7  F017         	line	83
  7514                           	
  7515                           l454:
  7516  002F4E                     	line	84
  7517                           	
  7518                           l2843:
  7519  002F4E                     	bcf	status,0
  7520  002F50  90D8               	rlcf	((c:__div_to_l_@f1)),c
  7521  002F52  361F               	rlcf	((c:__div_to_l_@f1+1)),c
  7522  002F54  3620               	rlcf	((c:__div_to_l_@f1+2)),c
  7523  002F56  3621               	rlcf	((c:__div_to_l_@f1+3)),c
  7524  002F58  3622               	line	85
  7525                           	
  7526                           l2845:
  7527  002F5A                     	decfsz	((c:__div_to_l_@cntr)),c
  7528  002F5A  2E2B               	
  7529                           	goto	l2835
  7530  002F5C  EF85  F017         	goto	l2847
  7531  002F60  EFB2  F017         	
  7532                           l455:
  7533  002F64                     	line	86
  7534                           	
  7535                           l2847:
  7536  002F64                     	btfsc	((c:__div_to_l_@exp1)),c,7
  7537  002F66  BE2C               	goto	u3020
  7538  002F68  EFBB  F017         	goto	u3021
  7539  002F6C  EFB8  F017         
  7540                           u3021:
  7541  002F70                     	goto	l2859
  7542  002F72  EFE3  F017         u3020:
  7543  002F76                     	line	87
  7544                           	
  7545                           l2849:
  7546  002F78                     		movf	((c:__div_to_l_@exp1)),c,w
  7547  002F78  502C               	xorlw	80h
  7548  002F7A  0A80               	addlw	-(80h^-31)
  7549  002F7C  0F9F               	btfsc	status,0
  7550  002F7E  B0D8               	goto	u3031
  7551  002F80  EFC4  F017         	goto	u3030
  7552  002F84  EFC7  F017         
  7553                           u3031:
  7554  002F88                     	goto	l2855
  7555  002F8A  EFD6  F017         u3030:
  7556  002F8E                     	line	88
  7557                           	
  7558                           l2851:
  7559  002F90                     	movlw	low(0)
  7560  002F90  0E00               	movwf	((c:?__div_to_l_)),c
  7561  002F92  6E1F               	movlw	high(0)
  7562  002F94  0E00               	movwf	((c:?__div_to_l_+1)),c
  7563  002F96  6E20               	movlw	low highword(0)
  7564  002F98  0E00               	movwf	((c:?__div_to_l_+2)),c
  7565  002F9A  6E21               	movlw	high highword(0)
  7566  002F9C  0E00               	movwf	((c:?__div_to_l_+3)),c
  7567  002F9E  6E22               	goto	l451
  7568  002FA0  EF1B  F018         	
  7569                           l2853:
  7570  002FA4                     	goto	l451
  7571  002FA4  EF1B  F018         	
  7572                           l457:
  7573  002FA8                     	goto	l2855
  7574  002FA8  EFD6  F017         	line	89
  7575                           	
  7576                           l458:
  7577  002FAC                     	line	90
  7578                           	
  7579                           l2855:
  7580  002FAC                     	bcf	status,0
  7581  002FAE  90D8               	rrcf	((c:__div_to_l_@quot+3)),c
  7582  002FB0  322A               	rrcf	((c:__div_to_l_@quot+2)),c
  7583  002FB2  3229               	rrcf	((c:__div_to_l_@quot+1)),c
  7584  002FB4  3228               	rrcf	((c:__div_to_l_@quot)),c
  7585  002FB6  3227               	line	91
  7586                           	
  7587                           l2857:
  7588  002FB8                     	incfsz	((c:__div_to_l_@exp1)),c
  7589  002FB8  3E2C               	
  7590                           	goto	l2855
  7591  002FBA  EFD6  F017         	goto	l460
  7592  002FBE  EF12  F018         	
  7593                           l459:
  7594  002FC2                     	line	92
  7595                           	goto	l460
  7596  002FC2  EF12  F018         	
  7597                           l456:
  7598  002FC6                     	line	93
  7599                           	
  7600                           l2859:
  7601  002FC6                     		movlw	020h-1
  7602  002FC8  0E1F               	cpfsgt	((c:__div_to_l_@exp1)),c
  7603  002FCA  642C               	goto	u3041
  7604  002FCC  EFEA  F017         	goto	u3040
  7605  002FD0  EFED  F017         
  7606                           u3041:
  7607  002FD4                     	goto	l2867
  7608  002FD6  EF05  F018         u3040:
  7609  002FDA                     	line	94
  7610                           	
  7611                           l2861:
  7612  002FDC                     	movlw	low(0)
  7613  002FDC  0E00               	movwf	((c:?__div_to_l_)),c
  7614  002FDE  6E1F               	movlw	high(0)
  7615  002FE0  0E00               	movwf	((c:?__div_to_l_+1)),c
  7616  002FE2  6E20               	movlw	low highword(0)
  7617  002FE4  0E00               	movwf	((c:?__div_to_l_+2)),c
  7618  002FE6  6E21               	movlw	high highword(0)
  7619  002FE8  0E00               	movwf	((c:?__div_to_l_+3)),c
  7620  002FEA  6E22               	goto	l451
  7621  002FEC  EF1B  F018         	
  7622                           l2863:
  7623  002FF0                     	goto	l451
  7624  002FF0  EF1B  F018         	
  7625                           l461:
  7626  002FF4                     	line	95
  7627                           	goto	l2867
  7628  002FF4  EF05  F018         	
  7629                           l463:
  7630  002FF8                     	line	96
  7631                           	
  7632                           l2865:
  7633  002FF8                     	bcf	status,0
  7634  002FFA  90D8               	rlcf	((c:__div_to_l_@quot)),c
  7635  002FFC  3627               	rlcf	((c:__div_to_l_@quot+1)),c
  7636  002FFE  3628               	rlcf	((c:__div_to_l_@quot+2)),c
  7637  003000  3629               	rlcf	((c:__div_to_l_@quot+3)),c
  7638  003002  362A               	line	97
  7639                           	decf	((c:__div_to_l_@exp1)),c
  7640  003004  062C               	goto	l2867
  7641  003006  EF05  F018         	line	98
  7642                           	
  7643                           l462:
  7644  00300A                     	line	95
  7645                           	
  7646                           l2867:
  7647  00300A                     	movf	((c:__div_to_l_@exp1)),c,w
  7648  00300C  502C               	btfss	status,2
  7649  00300E  A4D8               	goto	u3051
  7650  003010  EF0C  F018         	goto	u3050
  7651  003014  EF0F  F018         u3051:
  7652  003018                     	goto	l2865
  7653  00301A  EFFC  F017         u3050:
  7654  00301E                     	goto	l460
  7655  003020  EF12  F018         	
  7656                           l464:
  7657  003024                     	line	99
  7658                           	
  7659                           l460:
  7660  003024                     	line	100
  7661                           	movff	(c:__div_to_l_@quot),(c:?__div_to_l_)
  7662  003026  C027  F01F         	movff	(c:__div_to_l_@quot+1),(c:?__div_to_l_+1)
  7663  00302A  C028  F020         	movff	(c:__div_to_l_@quot+2),(c:?__div_to_l_+2)
  7664  00302E  C029  F021         	movff	(c:__div_to_l_@quot+3),(c:?__div_to_l_+3)
  7665  003032  C02A  F022         	line	101
  7666                           	
  7667                           l451:
  7668  003036                     	return	;funcret
  7669  003038  0012               	dw	0FFFFh; errata NOP
  7670  00303A  FFFF               	opt stack 0
  7671                           GLOBAL	__end_of__div_to_l_
  7672                           	__end_of__div_to_l_:
  7673  00303C                     	signat	__div_to_l_,8316
  7674                           	global	___xxtofl
  7675                           
  7676 ;; *************** function ___xxtofl *****************
  7677 ;; Defined at:
  7678 ;;		line 10 in file "C:\Program Files (x86)\Microchip\xc8\v2.00\pic\sources\c90\common\xxtofl.c"
  7679 ;; Parameters:    Size  Location     Type
  7680 ;;  sign            1    wreg     unsigned char 
  7681 ;;  val             4   30[COMRAM] long 
  7682 ;; Auto vars:     Size  Location     Type
  7683 ;;  sign            1   38[COMRAM] unsigned char 
  7684 ;;  arg             4   40[COMRAM] unsigned long 
  7685 ;;  exp             1   39[COMRAM] unsigned char 
  7686 ;; Return value:  Size  Location     Type
  7687 ;;                  4   30[COMRAM] unsigned char 
  7688 ;; Registers used:
  7689 ;;		wreg, status,2, status,0
  7690 ;; Tracked objects:
  7691 ;;		On entry : 0/0
  7692 ;;		On exit  : 0/0
  7693 ;;		Unchanged: 0/0
  7694 ;; Data sizes:     COMRAM   BANK0   BANK1   BANK2   BANK3   BANK4   BANK5
  7695 ;;      Params:         4       0       0       0       0       0       0
  7696 ;;      Locals:         6       0       0       0       0       0       0
  7697 ;;      Temps:          4       0       0       0       0       0       0
  7698 ;;      Totals:        14       0       0       0       0       0       0
  7699 ;;Total ram usage:       14 bytes
  7700 ;; Hardware stack levels used:    1
  7701 ;; Hardware stack levels required when called:    3
  7702 ;; This function calls:
  7703 ;;		Nothing
  7704 ;; This function is called by:
  7705 ;;		_printf
  7706 ;; This function uses a non-reentrant model
  7707 ;;
  7708                           psect	text13,class=CODE,space=0,reloc=2,group=1
  7709                           	file	"C:\Program Files (x86)\Microchip\xc8\v2.00\pic\sources\c90\common\xxtofl.c"
  7710                           	line	10
  7711                           global __ptext13
  7712                           __ptext13:
  7713  002832                     psect	text13
  7714                           	file	"C:\Program Files (x86)\Microchip\xc8\v2.00\pic\sources\c90\common\xxtofl.c"
  7715                           	line	10
  7716                           	global	__size_of___xxtofl
  7717                           	__size_of___xxtofl	equ	__end_of___xxtofl-___xxtofl
  7718  0000                     	
  7719                           ___xxtofl:
  7720  002832                     ;incstack = 0
  7721                           	opt	stack 26
  7722                           ;___xxtofl@sign stored from wreg
  7723                           	movwf	((c:___xxtofl@sign)),c
  7724  002834  6E27               	line	15
  7725                           	
  7726                           l3053:
  7727  002836                     	movf	((c:___xxtofl@sign)),c,w
  7728  002836  5027               	btfsc	status,2
  7729  002838  B4D8               	goto	u3341
  7730  00283A  EF21  F014         	goto	u3340
  7731  00283E  EF24  F014         u3341:
  7732  002842                     	goto	l874
  7733  002844  EF49  F014         u3340:
  7734  002848                     	
  7735                           l3055:
  7736  00284A                     	btfsc	((c:___xxtofl@val+3)),c,7
  7737  00284A  BE22               	goto	u3350
  7738  00284C  EF2D  F014         	goto	u3351
  7739  002850  EF2A  F014         
  7740                           u3351:
  7741  002854                     	goto	l874
  7742  002856  EF49  F014         u3350:
  7743  00285A                     	line	16
  7744                           	
  7745                           l3057:
  7746  00285C                     	movff	(c:___xxtofl@val),??___xxtofl+0+0
  7747  00285C  C01F  F023         	movff	(c:___xxtofl@val+1),??___xxtofl+0+0+1
  7748  002860  C020  F024         	movff	(c:___xxtofl@val+2),??___xxtofl+0+0+2
  7749  002864  C021  F025         	movff	(c:___xxtofl@val+3),??___xxtofl+0+0+3
  7750  002868  C022  F026         	comf	(??___xxtofl+0+0),c
  7751  00286C  1E23               	comf	(??___xxtofl+0+1),c
  7752  00286E  1E24               	comf	(??___xxtofl+0+2),c
  7753  002870  1E25               	comf	(??___xxtofl+0+3),c
  7754  002872  1E26               	incf	(??___xxtofl+0+0),c
  7755  002874  2A23               	movlw	0
  7756  002876  0E00               	addwfc	(??___xxtofl+0+1),c
  7757  002878  2224               	addwfc	(??___xxtofl+0+2),c
  7758  00287A  2225               	addwfc	(??___xxtofl+0+3),c
  7759  00287C  2226               	movff	??___xxtofl+0+0,(c:___xxtofl@arg)
  7760  00287E  C023  F029         	movff	??___xxtofl+0+1,(c:___xxtofl@arg+1)
  7761  002882  C024  F02A         	movff	??___xxtofl+0+2,(c:___xxtofl@arg+2)
  7762  002886  C025  F02B         	movff	??___xxtofl+0+3,(c:___xxtofl@arg+3)
  7763  00288A  C026  F02C         	line	17
  7764                           	goto	l3059
  7765  00288E  EF54  F014         	line	18
  7766                           	
  7767                           l874:
  7768  002892                     	line	19
  7769                           	movff	(c:___xxtofl@val),(c:___xxtofl@arg)
  7770  002894  C01F  F029         	movff	(c:___xxtofl@val+1),(c:___xxtofl@arg+1)
  7771  002898  C020  F02A         	movff	(c:___xxtofl@val+2),(c:___xxtofl@arg+2)
  7772  00289C  C021  F02B         	movff	(c:___xxtofl@val+3),(c:___xxtofl@arg+3)
  7773  0028A0  C022  F02C         	goto	l3059
  7774  0028A4  EF54  F014         	line	20
  7775                           	
  7776                           l875:
  7777  0028A8                     	line	21
  7778                           	
  7779                           l3059:
  7780  0028A8                     	movf	((c:___xxtofl@val)),c,w
  7781  0028AA  501F               iorwf	((c:___xxtofl@val+1)),c,w
  7782  0028AC  1020               iorwf	((c:___xxtofl@val+2)),c,w
  7783  0028AE  1021               iorwf	((c:___xxtofl@val+3)),c,w
  7784  0028B0  1022               	btfss	status,2
  7785  0028B2  A4D8               	goto	u3361
  7786  0028B4  EF5E  F014         	goto	u3360
  7787  0028B8  EF61  F014         
  7788                           u3361:
  7789  0028BC                     	goto	l3065
  7790  0028BE  EF6E  F014         u3360:
  7791  0028C2                     	line	22
  7792                           	
  7793                           l3061:
  7794  0028C4                     	movlw	low(normalize32(0x0))
  7795  0028C4  0E00               	movwf	((c:?___xxtofl)),c
  7796  0028C6  6E1F               	movlw	high(normalize32(0x0))
  7797  0028C8  0E00               	movwf	((c:?___xxtofl+1)),c
  7798  0028CA  6E20               	movlw	low highword(normalize32(0x0))
  7799  0028CC  0E00               	movwf	((c:?___xxtofl+2)),c
  7800  0028CE  6E21               	movlw	high highword(normalize32(0x0))
  7801  0028D0  0E00               	movwf	((c:?___xxtofl+3)),c
  7802  0028D2  6E22               	goto	l877
  7803  0028D4  EF27  F015         	
  7804                           l3063:
  7805  0028D8                     	goto	l877
  7806  0028D8  EF27  F015         	
  7807                           l876:
  7808  0028DC                     	line	23
  7809                           	
  7810                           l3065:
  7811  0028DC                     	movlw	low(096h)
  7812  0028DE  0E96               	movwf	((c:___xxtofl@exp)),c
  7813  0028E0  6E28               	line	24
  7814                           	goto	l3069
  7815  0028E2  EF7C  F014         	
  7816                           l879:
  7817  0028E6                     	line	25
  7818                           	
  7819                           l3067:
  7820  0028E6                     	incf	((c:___xxtofl@exp)),c
  7821  0028E8  2A28               	line	26
  7822                           	bcf	status,0
  7823  0028EA  90D8               	rrcf	((c:___xxtofl@arg+3)),c
  7824  0028EC  322C               	rrcf	((c:___xxtofl@arg+2)),c
  7825  0028EE  322B               	rrcf	((c:___xxtofl@arg+1)),c
  7826  0028F0  322A               	rrcf	((c:___xxtofl@arg)),c
  7827  0028F2  3229               	goto	l3069
  7828  0028F4  EF7C  F014         	line	27
  7829                           	
  7830                           l878:
  7831  0028F8                     	line	24
  7832                           	
  7833                           l3069:
  7834  0028F8                     	movlw	0
  7835  0028FA  0E00               	andwf	((c:___xxtofl@arg)),c,w
  7836  0028FC  1429               	movwf	(??___xxtofl+0+0)&0ffh,c
  7837  0028FE  6E23               	movlw	0
  7838  002900  0E00               	andwf	((c:___xxtofl@arg+1)),c,w
  7839  002902  142A               	movwf	1+(??___xxtofl+0+0)&0ffh,c
  7840  002904  6E24               	
  7841                           	movlw	0
  7842  002906  0E00               	andwf	((c:___xxtofl@arg+2)),c,w
  7843  002908  142B               	movwf	2+(??___xxtofl+0+0)&0ffh,c
  7844  00290A  6E25               	
  7845                           	movlw	0FEh
  7846  00290C  0EFE               	andwf	((c:___xxtofl@arg+3)),c,w
  7847  00290E  142C               	movwf	3+(??___xxtofl+0+0)&0ffh,c
  7848  002910  6E26               	movf	(??___xxtofl+0+0),c,w
  7849  002912  5023               iorwf	(??___xxtofl+0+1),c,w
  7850  002914  1024               iorwf	(??___xxtofl+0+2),c,w
  7851  002916  1025               iorwf	(??___xxtofl+0+3),c,w
  7852  002918  1026               	btfss	status,2
  7853  00291A  A4D8               	goto	u3371
  7854  00291C  EF92  F014         	goto	u3370
  7855  002920  EF95  F014         
  7856                           u3371:
  7857  002924                     	goto	l3067
  7858  002926  EF73  F014         u3370:
  7859  00292A                     	goto	l881
  7860  00292C  EFA7  F014         	
  7861                           l880:
  7862  002930                     	line	28
  7863                           	goto	l881
  7864  002930  EFA7  F014         	
  7865                           l882:
  7866  002934                     	line	29
  7867                           	
  7868                           l3071:
  7869  002934                     	incf	((c:___xxtofl@exp)),c
  7870  002936  2A28               	line	30
  7871                           	
  7872                           l3073:
  7873  002938                     	movlw	low(01h)
  7874  002938  0E01               	addwf	((c:___xxtofl@arg)),c
  7875  00293A  2629               	movlw	0
  7876  00293C  0E00               	addwfc	((c:___xxtofl@arg+1)),c
  7877  00293E  222A               	addwfc	((c:___xxtofl@arg+2)),c
  7878  002940  222B               	addwfc	((c:___xxtofl@arg+3)),c
  7879  002942  222C               	line	31
  7880                           	
  7881                           l3075:
  7882  002944                     	bcf	status,0
  7883  002944  90D8               	rrcf	((c:___xxtofl@arg+3)),c
  7884  002946  322C               	rrcf	((c:___xxtofl@arg+2)),c
  7885  002948  322B               	rrcf	((c:___xxtofl@arg+1)),c
  7886  00294A  322A               	rrcf	((c:___xxtofl@arg)),c
  7887  00294C  3229               	line	32
  7888                           	
  7889                           l881:
  7890  00294E                     	line	28
  7891                           	movlw	0
  7892  002950  0E00               	andwf	((c:___xxtofl@arg)),c,w
  7893  002952  1429               	movwf	(??___xxtofl+0+0)&0ffh,c
  7894  002954  6E23               	movlw	0
  7895  002956  0E00               	andwf	((c:___xxtofl@arg+1)),c,w
  7896  002958  142A               	movwf	1+(??___xxtofl+0+0)&0ffh,c
  7897  00295A  6E24               	
  7898                           	movlw	0
  7899  00295C  0E00               	andwf	((c:___xxtofl@arg+2)),c,w
  7900  00295E  142B               	movwf	2+(??___xxtofl+0+0)&0ffh,c
  7901  002960  6E25               	
  7902                           	movlw	0FFh
  7903  002962  0EFF               	andwf	((c:___xxtofl@arg+3)),c,w
  7904  002964  142C               	movwf	3+(??___xxtofl+0+0)&0ffh,c
  7905  002966  6E26               	movf	(??___xxtofl+0+0),c,w
  7906  002968  5023               iorwf	(??___xxtofl+0+1),c,w
  7907  00296A  1024               iorwf	(??___xxtofl+0+2),c,w
  7908  00296C  1025               iorwf	(??___xxtofl+0+3),c,w
  7909  00296E  1026               	btfss	status,2
  7910  002970  A4D8               	goto	u3381
  7911  002972  EFBD  F014         	goto	u3380
  7912  002976  EFC0  F014         
  7913                           u3381:
  7914  00297A                     	goto	l3071
  7915  00297C  EF9A  F014         u3380:
  7916  002980                     	goto	l3079
  7917  002982  EFCE  F014         	
  7918                           l883:
  7919  002986                     	line	33
  7920                           	goto	l3079
  7921  002986  EFCE  F014         	
  7922                           l885:
  7923  00298A                     	line	34
  7924                           	
  7925                           l3077:
  7926  00298A                     	decf	((c:___xxtofl@exp)),c
  7927  00298C  0628               	line	35
  7928                           	bcf	status,0
  7929  00298E  90D8               	rlcf	((c:___xxtofl@arg)),c
  7930  002990  3629               	rlcf	((c:___xxtofl@arg+1)),c
  7931  002992  362A               	rlcf	((c:___xxtofl@arg+2)),c
  7932  002994  362B               	rlcf	((c:___xxtofl@arg+3)),c
  7933  002996  362C               	goto	l3079
  7934  002998  EFCE  F014         	line	36
  7935                           	
  7936                           l884:
  7937  00299C                     	line	33
  7938                           	
  7939                           l3079:
  7940  00299C                     	
  7941                           	btfsc	((c:___xxtofl@arg+2)),c,(23)&7
  7942  00299E  BE2B               	goto	u3391
  7943  0029A0  EFD4  F014         	goto	u3390
  7944  0029A4  EFD7  F014         u3391:
  7945  0029A8                     	goto	l888
  7946  0029AA  EFE4  F014         u3390:
  7947  0029AE                     	
  7948                           l3081:
  7949  0029B0                     		movlw	02h-0
  7950  0029B0  0E02               	cpfslt	((c:___xxtofl@exp)),c
  7951  0029B2  6028               	goto	u3401
  7952  0029B4  EFDE  F014         	goto	u3400
  7953  0029B8  EFE1  F014         
  7954                           u3401:
  7955  0029BC                     	goto	l3077
  7956  0029BE  EFC5  F014         u3400:
  7957  0029C2                     	goto	l888
  7958  0029C4  EFE4  F014         	
  7959                           l887:
  7960  0029C8                     	
  7961                           l888:
  7962  0029C8                     	line	37
  7963                           	
  7964                           	btfsc	((c:___xxtofl@exp)),c,(0)&7
  7965  0029CA  B028               	goto	u3411
  7966  0029CC  EFEA  F014         	goto	u3410
  7967  0029D0  EFED  F014         u3411:
  7968  0029D4                     	goto	l3085
  7969  0029D6  EFF1  F014         u3410:
  7970  0029DA                     	line	38
  7971                           	
  7972                           l3083:
  7973  0029DC                     	bcf	(0+(23/8)+(c:___xxtofl@arg)),c,(23)&7
  7974  0029DC  9E2B               	goto	l3085
  7975  0029DE  EFF1  F014         	
  7976                           l889:
  7977  0029E2                     	line	39
  7978                           	
  7979                           l3085:
  7980  0029E2                     	bcf status,0
  7981  0029E4  90D8               	rrcf	((c:___xxtofl@exp)),c
  7982  0029E6  3228               
  7983                           	line	40
  7984                           	
  7985                           l3087:
  7986  0029E8                     	movff	(c:___xxtofl@exp),??___xxtofl+0+0
  7987  0029E8  C028  F023         	clrf	(??___xxtofl+0+0+1)&0ffh,c
  7988  0029EC  6A24               	clrf	(??___xxtofl+0+0+2)&0ffh,c
  7989  0029EE  6A25               	clrf	(??___xxtofl+0+0+3)&0ffh,c
  7990  0029F0  6A26               	movff	??___xxtofl+0+0,??___xxtofl+0+3
  7991  0029F2  C023  F026         	clrf	(??___xxtofl+0+2),c
  7992  0029F6  6A25               	clrf	(??___xxtofl+0+1),c
  7993  0029F8  6A24               	clrf	(??___xxtofl+0+0),c
  7994  0029FA  6A23               	movf	(??___xxtofl+0+0),c,w
  7995  0029FC  5023               	iorwf	((c:___xxtofl@arg)),c
  7996  0029FE  1229               	movf	(??___xxtofl+0+1),c,w
  7997  002A00  5024               	iorwf	((c:___xxtofl@arg+1)),c
  7998  002A02  122A               	movf	(??___xxtofl+0+2),c,w
  7999  002A04  5025               	iorwf	((c:___xxtofl@arg+2)),c
  8000  002A06  122B               	movf	(??___xxtofl+0+3),c,w
  8001  002A08  5026               	iorwf	((c:___xxtofl@arg+3)),c
  8002  002A0A  122C               
  8003                           	line	41
  8004                           	
  8005                           l3089:
  8006  002A0C                     	movf	((c:___xxtofl@sign)),c,w
  8007  002A0C  5027               	btfsc	status,2
  8008  002A0E  B4D8               	goto	u3421
  8009  002A10  EF0C  F015         	goto	u3420
  8010  002A14  EF0F  F015         u3421:
  8011  002A18                     	goto	l3095
  8012  002A1A  EF1C  F015         u3420:
  8013  002A1E                     	
  8014                           l3091:
  8015  002A20                     	btfsc	((c:___xxtofl@val+3)),c,7
  8016  002A20  BE22               	goto	u3430
  8017  002A22  EF18  F015         	goto	u3431
  8018  002A26  EF15  F015         
  8019                           u3431:
  8020  002A2A                     	goto	l3095
  8021  002A2C  EF1C  F015         u3430:
  8022  002A30                     	line	42
  8023                           	
  8024                           l3093:
  8025  002A32                     	bsf	(0+(31/8)+(c:___xxtofl@arg)),c,(31)&7
  8026  002A32  8E2C               	goto	l3095
  8027  002A34  EF1C  F015         	
  8028                           l890:
  8029  002A38                     	line	43
  8030                           	
  8031                           l3095:
  8032  002A38                     	movff	(c:___xxtofl@arg),(c:?___xxtofl)
  8033  002A3A  C029  F01F         	movff	(c:___xxtofl@arg+1),(c:?___xxtofl+1)
  8034  002A3E  C02A  F020         	movff	(c:___xxtofl@arg+2),(c:?___xxtofl+2)
  8035  002A42  C02B  F021         	movff	(c:___xxtofl@arg+3),(c:?___xxtofl+3)
  8036  002A46  C02C  F022         	goto	l877
  8037  002A4A  EF27  F015         	
  8038                           l3097:
  8039  002A4E                     	line	44
  8040                           	
  8041                           l877:
  8042  002A4E                     	return	;funcret
  8043  002A50  0012               	dw	0FFFFh; errata NOP
  8044  002A52  FFFF               	opt stack 0
  8045                           GLOBAL	__end_of___xxtofl
  8046                           	__end_of___xxtofl:
  8047  002A54                     	signat	___xxtofl,8316
  8048                           	global	___wmul
  8049                           
  8050 ;; *************** function ___wmul *****************
  8051 ;; Defined at:
  8052 ;;		line 15 in file "C:\Program Files (x86)\Microchip\xc8\v2.00\pic\sources\c90\common\Umul16.c"
  8053 ;; Parameters:    Size  Location     Type
  8054 ;;  multiplier      2   30[COMRAM] unsigned int 
  8055 ;;  multiplicand    2   32[COMRAM] unsigned int 
  8056 ;; Auto vars:     Size  Location     Type
  8057 ;;  product         2   34[COMRAM] unsigned int 
  8058 ;; Return value:  Size  Location     Type
  8059 ;;                  2   30[COMRAM] unsigned int 
  8060 ;; Registers used:
  8061 ;;		wreg, status,2, status,0, prodl, prodh
  8062 ;; Tracked objects:
  8063 ;;		On entry : 0/0
  8064 ;;		On exit  : 0/0
  8065 ;;		Unchanged: 0/0
  8066 ;; Data sizes:     COMRAM   BANK0   BANK1   BANK2   BANK3   BANK4   BANK5
  8067 ;;      Params:         4       0       0       0       0       0       0
  8068 ;;      Locals:         2       0       0       0       0       0       0
  8069 ;;      Temps:          0       0       0       0       0       0       0
  8070 ;;      Totals:         6       0       0       0       0       0       0
  8071 ;;Total ram usage:        6 bytes
  8072 ;; Hardware stack levels used:    1
  8073 ;; Hardware stack levels required when called:    3
  8074 ;; This function calls:
  8075 ;;		Nothing
  8076 ;; This function is called by:
  8077 ;;		_printf
  8078 ;; This function uses a non-reentrant model
  8079 ;;
  8080                           psect	text14,class=CODE,space=0,reloc=2,group=1
  8081                           	file	"C:\Program Files (x86)\Microchip\xc8\v2.00\pic\sources\c90\common\Umul16.c"
  8082                           	line	15
  8083                           global __ptext14
  8084                           __ptext14:
  8085  003C0C                     psect	text14
  8086                           	file	"C:\Program Files (x86)\Microchip\xc8\v2.00\pic\sources\c90\common\Umul16.c"
  8087                           	line	15
  8088                           	global	__size_of___wmul
  8089                           	__size_of___wmul	equ	__end_of___wmul-___wmul
  8090  0000                     	
  8091                           ___wmul:
  8092  003C0C                     ;incstack = 0
  8093                           	opt	stack 26
  8094                           	line	37
  8095                           	
  8096                           l2869:
  8097  003C0E                     	movf	((c:___wmul@multiplier)),c,w
  8098  003C0E  501F               	mulwf	((c:___wmul@multiplicand)),c
  8099  003C10  0221               	movff	prodl,(c:___wmul@product)
  8100  003C12  CFF3 F023          	movff	prodh,(c:___wmul@product+1)
  8101  003C16  CFF4 F024          	line	38
  8102                           	movf	((c:___wmul@multiplier)),c,w
  8103  003C1A  501F               	mulwf	(0+((c:___wmul@multiplicand)+01h)),c
  8104  003C1C  0222               	movf	(prodl),c,w
  8105  003C1E  50F3               	addwf	((c:___wmul@product+1)),c
  8106  003C20  2624               
  8107                           	line	39
  8108                           	movf	(0+((c:___wmul@multiplier)+01h)),c,w
  8109  003C22  5020               	mulwf	((c:___wmul@multiplicand)),c
  8110  003C24  0221               	movf	(prodl),c,w
  8111  003C26  50F3               	addwf	((c:___wmul@product+1)),c
  8112  003C28  2624               
  8113                           	line	52
  8114                           	
  8115                           l2871:
  8116  003C2A                     	movff	(c:___wmul@product),(c:?___wmul)
  8117  003C2A  C023  F01F         	movff	(c:___wmul@product+1),(c:?___wmul+1)
  8118  003C2E  C024  F020         	goto	l197
  8119  003C32  EF1B  F01E         	
  8120                           l2873:
  8121  003C36                     	line	53
  8122                           	
  8123                           l197:
  8124  003C36                     	return	;funcret
  8125  003C38  0012               	dw	0FFFFh; errata NOP
  8126  003C3A  FFFF               	opt stack 0
  8127                           GLOBAL	__end_of___wmul
  8128                           	__end_of___wmul:
  8129  003C3C                     	signat	___wmul,8314
  8130                           	global	___llmod
  8131                           
  8132 ;; *************** function ___llmod *****************
  8133 ;; Defined at:
  8134 ;;		line 7 in file "C:\Program Files (x86)\Microchip\xc8\v2.00\pic\sources\c90\common\llmod.c"
  8135 ;; Parameters:    Size  Location     Type
  8136 ;;  dividend        4   30[COMRAM] unsigned long 
  8137 ;;  divisor         4   34[COMRAM] unsigned long 
  8138 ;; Auto vars:     Size  Location     Type
  8139 ;;  counter         1   38[COMRAM] unsigned char 
  8140 ;; Return value:  Size  Location     Type
  8141 ;;                  4   30[COMRAM] unsigned long 
  8142 ;; Registers used:
  8143 ;;		wreg, status,2, status,0
  8144 ;; Tracked objects:
  8145 ;;		On entry : 0/0
  8146 ;;		On exit  : 0/0
  8147 ;;		Unchanged: 0/0
  8148 ;; Data sizes:     COMRAM   BANK0   BANK1   BANK2   BANK3   BANK4   BANK5
  8149 ;;      Params:         8       0       0       0       0       0       0
  8150 ;;      Locals:         1       0       0       0       0       0       0
  8151 ;;      Temps:          0       0       0       0       0       0       0
  8152 ;;      Totals:         9       0       0       0       0       0       0
  8153 ;;Total ram usage:        9 bytes
  8154 ;; Hardware stack levels used:    1
  8155 ;; Hardware stack levels required when called:    3
  8156 ;; This function calls:
  8157 ;;		Nothing
  8158 ;; This function is called by:
  8159 ;;		_printf
  8160 ;; This function uses a non-reentrant model
  8161 ;;
  8162                           psect	text15,class=CODE,space=0,reloc=2,group=1
  8163                           	file	"C:\Program Files (x86)\Microchip\xc8\v2.00\pic\sources\c90\common\llmod.c"
  8164                           	line	7
  8165                           global __ptext15
  8166                           __ptext15:
  8167  003870                     psect	text15
  8168                           	file	"C:\Program Files (x86)\Microchip\xc8\v2.00\pic\sources\c90\common\llmod.c"
  8169                           	line	7
  8170                           	global	__size_of___llmod
  8171                           	__size_of___llmod	equ	__end_of___llmod-___llmod
  8172  0000                     	
  8173                           ___llmod:
  8174  003870                     ;incstack = 0
  8175                           	opt	stack 26
  8176                           	line	12
  8177                           	
  8178                           l3037:
  8179  003872                     	movf	((c:___llmod@divisor)),c,w
  8180  003872  5023               iorwf	((c:___llmod@divisor+1)),c,w
  8181  003874  1024               iorwf	((c:___llmod@divisor+2)),c,w
  8182  003876  1025               iorwf	((c:___llmod@divisor+3)),c,w
  8183  003878  1026               	btfsc	status,2
  8184  00387A  B4D8               	goto	u3311
  8185  00387C  EF42  F01C         	goto	u3310
  8186  003880  EF45  F01C         
  8187                           u3311:
  8188  003884                     	goto	l639
  8189  003886  EF88  F01C         u3310:
  8190  00388A                     	line	13
  8191                           	
  8192                           l3039:
  8193  00388C                     	movlw	low(01h)
  8194  00388C  0E01               	movwf	((c:___llmod@counter)),c
  8195  00388E  6E27               	line	14
  8196                           	goto	l3043
  8197  003890  EF53  F01C         	
  8198                           l641:
  8199  003894                     	line	15
  8200                           	
  8201                           l3041:
  8202  003894                     	bcf	status,0
  8203  003896  90D8               	rlcf	((c:___llmod@divisor)),c
  8204  003898  3623               	rlcf	((c:___llmod@divisor+1)),c
  8205  00389A  3624               	rlcf	((c:___llmod@divisor+2)),c
  8206  00389C  3625               	rlcf	((c:___llmod@divisor+3)),c
  8207  00389E  3626               	line	16
  8208                           	incf	((c:___llmod@counter)),c
  8209  0038A0  2A27               	goto	l3043
  8210  0038A2  EF53  F01C         	line	17
  8211                           	
  8212                           l640:
  8213  0038A6                     	line	14
  8214                           	
  8215                           l3043:
  8216  0038A6                     	
  8217                           	btfss	((c:___llmod@divisor+3)),c,(31)&7
  8218  0038A8  AE26               	goto	u3321
  8219  0038AA  EF59  F01C         	goto	u3320
  8220  0038AE  EF5C  F01C         u3321:
  8221  0038B2                     	goto	l3041
  8222  0038B4  EF4A  F01C         u3320:
  8223  0038B8                     	goto	l3045
  8224  0038BA  EF61  F01C         	
  8225                           l642:
  8226  0038BE                     	goto	l3045
  8227  0038BE  EF61  F01C         	line	18
  8228                           	
  8229                           l643:
  8230  0038C2                     	line	19
  8231                           	
  8232                           l3045:
  8233  0038C2                     		movf	((c:___llmod@divisor)),c,w
  8234  0038C4  5023               	subwf	((c:___llmod@dividend)),c,w
  8235  0038C6  5C1F               	movf	((c:___llmod@divisor+1)),c,w
  8236  0038C8  5024               	subwfb	((c:___llmod@dividend+1)),c,w
  8237  0038CA  5820               	movf	((c:___llmod@divisor+2)),c,w
  8238  0038CC  5025               	subwfb	((c:___llmod@dividend+2)),c,w
  8239  0038CE  5821               	movf	((c:___llmod@divisor+3)),c,w
  8240  0038D0  5026               	subwfb	((c:___llmod@dividend+3)),c,w
  8241  0038D2  5822               	btfss	status,0
  8242  0038D4  A0D8               	goto	u3331
  8243  0038D6  EF6F  F01C         	goto	u3330
  8244  0038DA  EF72  F01C         
  8245                           u3331:
  8246  0038DE                     	goto	l3049
  8247  0038E0  EF7D  F01C         u3330:
  8248  0038E4                     	line	20
  8249                           	
  8250                           l3047:
  8251  0038E6                     	movf	((c:___llmod@divisor)),c,w
  8252  0038E6  5023               	subwf	((c:___llmod@dividend)),c
  8253  0038E8  5E1F               	movf	((c:___llmod@divisor+1)),c,w
  8254  0038EA  5024               	subwfb	((c:___llmod@dividend+1)),c
  8255  0038EC  5A20               	movf	((c:___llmod@divisor+2)),c,w
  8256  0038EE  5025               	subwfb	((c:___llmod@dividend+2)),c
  8257  0038F0  5A21               	movf	((c:___llmod@divisor+3)),c,w
  8258  0038F2  5026               	subwfb	((c:___llmod@dividend+3)),c
  8259  0038F4  5A22               	goto	l3049
  8260  0038F6  EF7D  F01C         	
  8261                           l644:
  8262  0038FA                     	line	21
  8263                           	
  8264                           l3049:
  8265  0038FA                     	bcf	status,0
  8266  0038FC  90D8               	rrcf	((c:___llmod@divisor+3)),c
  8267  0038FE  3226               	rrcf	((c:___llmod@divisor+2)),c
  8268  003900  3225               	rrcf	((c:___llmod@divisor+1)),c
  8269  003902  3224               	rrcf	((c:___llmod@divisor)),c
  8270  003904  3223               	line	22
  8271                           	
  8272                           l3051:
  8273  003906                     	decfsz	((c:___llmod@counter)),c
  8274  003906  2E27               	
  8275                           	goto	l3045
  8276  003908  EF61  F01C         	goto	l639
  8277  00390C  EF88  F01C         	
  8278                           l645:
  8279  003910                     	line	23
  8280                           	
  8281                           l639:
  8282  003910                     	line	24
  8283                           	movff	(c:___llmod@dividend),(c:?___llmod)
  8284  003912  C01F  F01F         	movff	(c:___llmod@dividend+1),(c:?___llmod+1)
  8285  003916  C020  F020         	movff	(c:___llmod@dividend+2),(c:?___llmod+2)
  8286  00391A  C021  F021         	movff	(c:___llmod@dividend+3),(c:?___llmod+3)
  8287  00391E  C022  F022         	line	25
  8288                           	
  8289                           l646:
  8290  003922                     	return	;funcret
  8291  003922  0012               	dw	0FFFFh; errata NOP
  8292  003924  FFFF               	opt stack 0
  8293                           GLOBAL	__end_of___llmod
  8294                           	__end_of___llmod:
  8295  003926                     	signat	___llmod,8316
  8296                           	global	___lldiv
  8297                           
  8298 ;; *************** function ___lldiv *****************
  8299 ;; Defined at:
  8300 ;;		line 7 in file "C:\Program Files (x86)\Microchip\xc8\v2.00\pic\sources\c90\common\__lldiv.c"
  8301 ;; Parameters:    Size  Location     Type
  8302 ;;  dividend        4   30[COMRAM] unsigned long 
  8303 ;;  divisor         4   34[COMRAM] unsigned long 
  8304 ;; Auto vars:     Size  Location     Type
  8305 ;;  quotient        4   38[COMRAM] unsigned long 
  8306 ;;  counter         1   42[COMRAM] unsigned char 
  8307 ;; Return value:  Size  Location     Type
  8308 ;;                  4   30[COMRAM] unsigned long 
  8309 ;; Registers used:
  8310 ;;		wreg, status,2, status,0
  8311 ;; Tracked objects:
  8312 ;;		On entry : 0/0
  8313 ;;		On exit  : 0/0
  8314 ;;		Unchanged: 0/0
  8315 ;; Data sizes:     COMRAM   BANK0   BANK1   BANK2   BANK3   BANK4   BANK5
  8316 ;;      Params:         8       0       0       0       0       0       0
  8317 ;;      Locals:         5       0       0       0       0       0       0
  8318 ;;      Temps:          0       0       0       0       0       0       0
  8319 ;;      Totals:        13       0       0       0       0       0       0
  8320 ;;Total ram usage:       13 bytes
  8321 ;; Hardware stack levels used:    1
  8322 ;; Hardware stack levels required when called:    3
  8323 ;; This function calls:
  8324 ;;		Nothing
  8325 ;; This function is called by:
  8326 ;;		_printf
  8327 ;; This function uses a non-reentrant model
  8328 ;;
  8329                           psect	text16,class=CODE,space=0,reloc=2,group=1
  8330                           	file	"C:\Program Files (x86)\Microchip\xc8\v2.00\pic\sources\c90\common\__lldiv.c"
  8331                           	line	7
  8332                           global __ptext16
  8333                           __ptext16:
  8334  0036CC                     psect	text16
  8335                           	file	"C:\Program Files (x86)\Microchip\xc8\v2.00\pic\sources\c90\common\__lldiv.c"
  8336                           	line	7
  8337                           	global	__size_of___lldiv
  8338                           	__size_of___lldiv	equ	__end_of___lldiv-___lldiv
  8339  0000                     	
  8340                           ___lldiv:
  8341  0036CC                     ;incstack = 0
  8342                           	opt	stack 26
  8343                           	line	13
  8344                           	
  8345                           l2875:
  8346  0036CE                     	movlw	low(0)
  8347  0036CE  0E00               	movwf	((c:___lldiv@quotient)),c
  8348  0036D0  6E27               	movlw	high(0)
  8349  0036D2  0E00               	movwf	((c:___lldiv@quotient+1)),c
  8350  0036D4  6E28               	movlw	low highword(0)
  8351  0036D6  0E00               	movwf	((c:___lldiv@quotient+2)),c
  8352  0036D8  6E29               	movlw	high highword(0)
  8353  0036DA  0E00               	movwf	((c:___lldiv@quotient+3)),c
  8354  0036DC  6E2A               	line	14
  8355                           	
  8356                           l2877:
  8357  0036DE                     	movf	((c:___lldiv@divisor)),c,w
  8358  0036DE  5023               iorwf	((c:___lldiv@divisor+1)),c,w
  8359  0036E0  1024               iorwf	((c:___lldiv@divisor+2)),c,w
  8360  0036E2  1025               iorwf	((c:___lldiv@divisor+3)),c,w
  8361  0036E4  1026               	btfsc	status,2
  8362  0036E6  B4D8               	goto	u3061
  8363  0036E8  EF78  F01B         	goto	u3060
  8364  0036EC  EF7B  F01B         
  8365                           u3061:
  8366  0036F0                     	goto	l224
  8367  0036F2  EFC4  F01B         u3060:
  8368  0036F6                     	line	15
  8369                           	
  8370                           l2879:
  8371  0036F8                     	movlw	low(01h)
  8372  0036F8  0E01               	movwf	((c:___lldiv@counter)),c
  8373  0036FA  6E2B               	line	16
  8374                           	goto	l2883
  8375  0036FC  EF89  F01B         	
  8376                           l226:
  8377  003700                     	line	17
  8378                           	
  8379                           l2881:
  8380  003700                     	bcf	status,0
  8381  003702  90D8               	rlcf	((c:___lldiv@divisor)),c
  8382  003704  3623               	rlcf	((c:___lldiv@divisor+1)),c
  8383  003706  3624               	rlcf	((c:___lldiv@divisor+2)),c
  8384  003708  3625               	rlcf	((c:___lldiv@divisor+3)),c
  8385  00370A  3626               	line	18
  8386                           	incf	((c:___lldiv@counter)),c
  8387  00370C  2A2B               	goto	l2883
  8388  00370E  EF89  F01B         	line	19
  8389                           	
  8390                           l225:
  8391  003712                     	line	16
  8392                           	
  8393                           l2883:
  8394  003712                     	
  8395                           	btfss	((c:___lldiv@divisor+3)),c,(31)&7
  8396  003714  AE26               	goto	u3071
  8397  003716  EF8F  F01B         	goto	u3070
  8398  00371A  EF92  F01B         u3071:
  8399  00371E                     	goto	l2881
  8400  003720  EF80  F01B         u3070:
  8401  003724                     	goto	l2885
  8402  003726  EF97  F01B         	
  8403                           l227:
  8404  00372A                     	goto	l2885
  8405  00372A  EF97  F01B         	line	20
  8406                           	
  8407                           l228:
  8408  00372E                     	line	21
  8409                           	
  8410                           l2885:
  8411  00372E                     	bcf	status,0
  8412  003730  90D8               	rlcf	((c:___lldiv@quotient)),c
  8413  003732  3627               	rlcf	((c:___lldiv@quotient+1)),c
  8414  003734  3628               	rlcf	((c:___lldiv@quotient+2)),c
  8415  003736  3629               	rlcf	((c:___lldiv@quotient+3)),c
  8416  003738  362A               	line	22
  8417                           	
  8418                           l2887:
  8419  00373A                     		movf	((c:___lldiv@divisor)),c,w
  8420  00373A  5023               	subwf	((c:___lldiv@dividend)),c,w
  8421  00373C  5C1F               	movf	((c:___lldiv@divisor+1)),c,w
  8422  00373E  5024               	subwfb	((c:___lldiv@dividend+1)),c,w
  8423  003740  5820               	movf	((c:___lldiv@divisor+2)),c,w
  8424  003742  5025               	subwfb	((c:___lldiv@dividend+2)),c,w
  8425  003744  5821               	movf	((c:___lldiv@divisor+3)),c,w
  8426  003746  5026               	subwfb	((c:___lldiv@dividend+3)),c,w
  8427  003748  5822               	btfss	status,0
  8428  00374A  A0D8               	goto	u3081
  8429  00374C  EFAA  F01B         	goto	u3080
  8430  003750  EFAD  F01B         
  8431                           u3081:
  8432  003754                     	goto	l2893
  8433  003756  EFB9  F01B         u3080:
  8434  00375A                     	line	23
  8435                           	
  8436                           l2889:
  8437  00375C                     	movf	((c:___lldiv@divisor)),c,w
  8438  00375C  5023               	subwf	((c:___lldiv@dividend)),c
  8439  00375E  5E1F               	movf	((c:___lldiv@divisor+1)),c,w
  8440  003760  5024               	subwfb	((c:___lldiv@dividend+1)),c
  8441  003762  5A20               	movf	((c:___lldiv@divisor+2)),c,w
  8442  003764  5025               	subwfb	((c:___lldiv@dividend+2)),c
  8443  003766  5A21               	movf	((c:___lldiv@divisor+3)),c,w
  8444  003768  5026               	subwfb	((c:___lldiv@dividend+3)),c
  8445  00376A  5A22               	line	24
  8446                           	
  8447                           l2891:
  8448  00376C                     	bsf	(0+(0/8)+(c:___lldiv@quotient)),c,(0)&7
  8449  00376C  8027               	goto	l2893
  8450  00376E  EFB9  F01B         	line	25
  8451                           	
  8452                           l229:
  8453  003772                     	line	26
  8454                           	
  8455                           l2893:
  8456  003772                     	bcf	status,0
  8457  003774  90D8               	rrcf	((c:___lldiv@divisor+3)),c
  8458  003776  3226               	rrcf	((c:___lldiv@divisor+2)),c
  8459  003778  3225               	rrcf	((c:___lldiv@divisor+1)),c
  8460  00377A  3224               	rrcf	((c:___lldiv@divisor)),c
  8461  00377C  3223               	line	27
  8462                           	
  8463                           l2895:
  8464  00377E                     	decfsz	((c:___lldiv@counter)),c
  8465  00377E  2E2B               	
  8466                           	goto	l2885
  8467  003780  EF97  F01B         	goto	l224
  8468  003784  EFC4  F01B         	
  8469                           l230:
  8470  003788                     	line	28
  8471                           	
  8472                           l224:
  8473  003788                     	line	29
  8474                           	movff	(c:___lldiv@quotient),(c:?___lldiv)
  8475  00378A  C027  F01F         	movff	(c:___lldiv@quotient+1),(c:?___lldiv+1)
  8476  00378E  C028  F020         	movff	(c:___lldiv@quotient+2),(c:?___lldiv+2)
  8477  003792  C029  F021         	movff	(c:___lldiv@quotient+3),(c:?___lldiv+3)
  8478  003796  C02A  F022         	line	30
  8479                           	
  8480                           l231:
  8481  00379A                     	return	;funcret
  8482  00379A  0012               	dw	0FFFFh; errata NOP
  8483  00379C  FFFF               	opt stack 0
  8484                           GLOBAL	__end_of___lldiv
  8485                           	__end_of___lldiv:
  8486  00379E                     	signat	___lldiv,8316
  8487                           	global	___fltol
  8488                           
  8489 ;; *************** function ___fltol *****************
  8490 ;; Defined at:
  8491 ;;		line 43 in file "C:\Program Files (x86)\Microchip\xc8\v2.00\pic\sources\c90\common\fltol.c"
  8492 ;; Parameters:    Size  Location     Type
  8493 ;;  f1              4   78[COMRAM] unsigned long 
  8494 ;; Auto vars:     Size  Location     Type
  8495 ;;  exp1            1   87[COMRAM] unsigned char 
  8496 ;;  sign1           1   86[COMRAM] unsigned char 
  8497 ;; Return value:  Size  Location     Type
  8498 ;;                  4   78[COMRAM] long 
  8499 ;; Registers used:
  8500 ;;		wreg, status,2, status,0
  8501 ;; Tracked objects:
  8502 ;;		On entry : 0/0
  8503 ;;		On exit  : 0/0
  8504 ;;		Unchanged: 0/0
  8505 ;; Data sizes:     COMRAM   BANK0   BANK1   BANK2   BANK3   BANK4   BANK5
  8506 ;;      Params:         4       0       0       0       0       0       0
  8507 ;;      Locals:         2       0       0       0       0       0       0
  8508 ;;      Temps:          4       0       0       0       0       0       0
  8509 ;;      Totals:        10       0       0       0       0       0       0
  8510 ;;Total ram usage:       10 bytes
  8511 ;; Hardware stack levels used:    1
  8512 ;; Hardware stack levels required when called:    3
  8513 ;; This function calls:
  8514 ;;		Nothing
  8515 ;; This function is called by:
  8516 ;;		_printf
  8517 ;; This function uses a non-reentrant model
  8518 ;;
  8519                           psect	text17,class=CODE,space=0,reloc=2,group=1
  8520                           	file	"C:\Program Files (x86)\Microchip\xc8\v2.00\pic\sources\c90\common\fltol.c"
  8521                           	line	43
  8522                           global __ptext17
  8523                           __ptext17:
  8524  0031C8                     psect	text17
  8525                           	file	"C:\Program Files (x86)\Microchip\xc8\v2.00\pic\sources\c90\common\fltol.c"
  8526                           	line	43
  8527                           	global	__size_of___fltol
  8528                           	__size_of___fltol	equ	__end_of___fltol-___fltol
  8529  0000                     	
  8530                           ___fltol:
  8531  0031C8                     ;incstack = 0
  8532                           	opt	stack 26
  8533                           	line	47
  8534                           	
  8535                           l2993:
  8536  0031CA                     	rlcf	((c:___fltol@f1+2)),c,w
  8537  0031CA  3451               	rlcf	((c:___fltol@f1+3)),c,w
  8538  0031CC  3452               	movwf	((c:___fltol@exp1)),c
  8539  0031CE  6E58               	movf	((c:___fltol@exp1)),c,w
  8540  0031D0  5058               	btfss	status,2
  8541  0031D2  A4D8               	goto	u3241
  8542  0031D4  EFEE  F018         	goto	u3240
  8543  0031D8  EFF1  F018         u3241:
  8544  0031DC                     	goto	l2999
  8545  0031DE  EFFE  F018         u3240:
  8546  0031E2                     	line	48
  8547                           	
  8548                           l2995:
  8549  0031E4                     	movlw	low(0)
  8550  0031E4  0E00               	movwf	((c:?___fltol)),c
  8551  0031E6  6E4F               	movlw	high(0)
  8552  0031E8  0E00               	movwf	((c:?___fltol+1)),c
  8553  0031EA  6E50               	movlw	low highword(0)
  8554  0031EC  0E00               	movwf	((c:?___fltol+2)),c
  8555  0031EE  6E51               	movlw	high highword(0)
  8556  0031F0  0E00               	movwf	((c:?___fltol+3)),c
  8557  0031F2  6E52               	goto	l503
  8558  0031F4  EFA2  F019         	
  8559                           l2997:
  8560  0031F8                     	goto	l503
  8561  0031F8  EFA2  F019         	
  8562                           l502:
  8563  0031FC                     	line	49
  8564                           	
  8565                           l2999:
  8566  0031FC                     	movff	(c:___fltol@f1),??___fltol+0+0
  8567  0031FE  C04F  F053         	movff	(c:___fltol@f1+1),??___fltol+0+0+1
  8568  003202  C050  F054         	movff	(c:___fltol@f1+2),??___fltol+0+0+2
  8569  003206  C051  F055         	movff	(c:___fltol@f1+3),??___fltol+0+0+3
  8570  00320A  C052  F056         	movlw	01Fh+1
  8571  00320E  0E20               	goto	u3250
  8572  003210  EF10  F019         u3255:
  8573  003214                     	bcf	status,0
  8574  003216  90D8               	rrcf	(??___fltol+0+3),c
  8575  003218  3256               	rrcf	(??___fltol+0+2),c
  8576  00321A  3255               	rrcf	(??___fltol+0+1),c
  8577  00321C  3254               	rrcf	(??___fltol+0+0),c
  8578  00321E  3253               u3250:
  8579  003220                     	decfsz	wreg
  8580  003222  2EE8               	goto	u3255
  8581  003224  EF0A  F019         	movf	(??___fltol+0+0),c,w
  8582  003228  5053               	movwf	((c:___fltol@sign1)),c
  8583  00322A  6E57               	line	50
  8584                           	
  8585                           l3001:
  8586  00322C                     	bsf	(0+(23/8)+(c:___fltol@f1)),c,(23)&7
  8587  00322C  8E51               	line	51
  8588                           	
  8589                           l3003:
  8590  00322E                     	movlw	0FFh
  8591  00322E  0EFF               	andwf	((c:___fltol@f1)),c
  8592  003230  164F               	movlw	0FFh
  8593  003232  0EFF               	andwf	((c:___fltol@f1+1)),c
  8594  003234  1650               	movlw	0FFh
  8595  003236  0EFF               	andwf	((c:___fltol@f1+2)),c
  8596  003238  1651               	movlw	0
  8597  00323A  0E00               	andwf	((c:___fltol@f1+3)),c
  8598  00323C  1652               	line	52
  8599                           	
  8600                           l3005:
  8601  00323E                     	movlw	(096h)&0ffh
  8602  00323E  0E96               	subwf	((c:___fltol@exp1)),c
  8603  003240  5E58               	line	53
  8604                           	
  8605                           l3007:
  8606  003242                     	btfsc	((c:___fltol@exp1)),c,7
  8607  003242  BE58               	goto	u3260
  8608  003244  EF29  F019         	goto	u3261
  8609  003248  EF26  F019         
  8610                           u3261:
  8611  00324C                     	goto	l3019
  8612  00324E  EF51  F019         u3260:
  8613  003252                     	line	54
  8614                           	
  8615                           l3009:
  8616  003254                     		movf	((c:___fltol@exp1)),c,w
  8617  003254  5058               	xorlw	80h
  8618  003256  0A80               	addlw	-(80h^-23)
  8619  003258  0F97               	btfsc	status,0
  8620  00325A  B0D8               	goto	u3271
  8621  00325C  EF32  F019         	goto	u3270
  8622  003260  EF35  F019         
  8623                           u3271:
  8624  003264                     	goto	l3015
  8625  003266  EF44  F019         u3270:
  8626  00326A                     	line	55
  8627                           	
  8628                           l3011:
  8629  00326C                     	movlw	low(0)
  8630  00326C  0E00               	movwf	((c:?___fltol)),c
  8631  00326E  6E4F               	movlw	high(0)
  8632  003270  0E00               	movwf	((c:?___fltol+1)),c
  8633  003272  6E50               	movlw	low highword(0)
  8634  003274  0E00               	movwf	((c:?___fltol+2)),c
  8635  003276  6E51               	movlw	high highword(0)
  8636  003278  0E00               	movwf	((c:?___fltol+3)),c
  8637  00327A  6E52               	goto	l503
  8638  00327C  EFA2  F019         	
  8639                           l3013:
  8640  003280                     	goto	l503
  8641  003280  EFA2  F019         	
  8642                           l505:
  8643  003284                     	goto	l3015
  8644  003284  EF44  F019         	line	56
  8645                           	
  8646                           l506:
  8647  003288                     	line	57
  8648                           	
  8649                           l3015:
  8650  003288                     	bcf	status,0
  8651  00328A  90D8               	rrcf	((c:___fltol@f1+3)),c
  8652  00328C  3252               	rrcf	((c:___fltol@f1+2)),c
  8653  00328E  3251               	rrcf	((c:___fltol@f1+1)),c
  8654  003290  3250               	rrcf	((c:___fltol@f1)),c
  8655  003292  324F               	line	58
  8656                           	
  8657                           l3017:
  8658  003294                     	incfsz	((c:___fltol@exp1)),c
  8659  003294  3E58               	
  8660                           	goto	l3015
  8661  003296  EF44  F019         	goto	l3029
  8662  00329A  EF82  F019         	
  8663                           l507:
  8664  00329E                     	line	59
  8665                           	goto	l3029
  8666  00329E  EF82  F019         	
  8667                           l504:
  8668  0032A2                     	line	60
  8669                           	
  8670                           l3019:
  8671  0032A2                     		movlw	020h-1
  8672  0032A4  0E1F               	cpfsgt	((c:___fltol@exp1)),c
  8673  0032A6  6458               	goto	u3281
  8674  0032A8  EF58  F019         	goto	u3280
  8675  0032AC  EF5B  F019         
  8676                           u3281:
  8677  0032B0                     	goto	l3027
  8678  0032B2  EF73  F019         u3280:
  8679  0032B6                     	line	61
  8680                           	
  8681                           l3021:
  8682  0032B8                     	movlw	low(0)
  8683  0032B8  0E00               	movwf	((c:?___fltol)),c
  8684  0032BA  6E4F               	movlw	high(0)
  8685  0032BC  0E00               	movwf	((c:?___fltol+1)),c
  8686  0032BE  6E50               	movlw	low highword(0)
  8687  0032C0  0E00               	movwf	((c:?___fltol+2)),c
  8688  0032C2  6E51               	movlw	high highword(0)
  8689  0032C4  0E00               	movwf	((c:?___fltol+3)),c
  8690  0032C6  6E52               	goto	l503
  8691  0032C8  EFA2  F019         	
  8692                           l3023:
  8693  0032CC                     	goto	l503
  8694  0032CC  EFA2  F019         	
  8695                           l509:
  8696  0032D0                     	line	62
  8697                           	goto	l3027
  8698  0032D0  EF73  F019         	
  8699                           l511:
  8700  0032D4                     	line	63
  8701                           	
  8702                           l3025:
  8703  0032D4                     	bcf	status,0
  8704  0032D6  90D8               	rlcf	((c:___fltol@f1)),c
  8705  0032D8  364F               	rlcf	((c:___fltol@f1+1)),c
  8706  0032DA  3650               	rlcf	((c:___fltol@f1+2)),c
  8707  0032DC  3651               	rlcf	((c:___fltol@f1+3)),c
  8708  0032DE  3652               	line	64
  8709                           	decf	((c:___fltol@exp1)),c
  8710  0032E0  0658               	goto	l3027
  8711  0032E2  EF73  F019         	line	65
  8712                           	
  8713                           l510:
  8714  0032E6                     	line	62
  8715                           	
  8716                           l3027:
  8717  0032E6                     	movf	((c:___fltol@exp1)),c,w
  8718  0032E8  5058               	btfss	status,2
  8719  0032EA  A4D8               	goto	u3291
  8720  0032EC  EF7A  F019         	goto	u3290
  8721  0032F0  EF7D  F019         u3291:
  8722  0032F4                     	goto	l3025
  8723  0032F6  EF6A  F019         u3290:
  8724  0032FA                     	goto	l3029
  8725  0032FC  EF82  F019         	
  8726                           l512:
  8727  003300                     	goto	l3029
  8728  003300  EF82  F019         	line	66
  8729                           	
  8730                           l508:
  8731  003304                     	line	67
  8732                           	
  8733                           l3029:
  8734  003304                     	movf	((c:___fltol@sign1)),c,w
  8735  003306  5057               	btfsc	status,2
  8736  003308  B4D8               	goto	u3301
  8737  00330A  EF89  F019         	goto	u3300
  8738  00330E  EF8C  F019         u3301:
  8739  003312                     	goto	l3033
  8740  003314  EF97  F019         u3300:
  8741  003318                     	line	68
  8742                           	
  8743                           l3031:
  8744  00331A                     	comf	((c:___fltol@f1+3)),c
  8745  00331A  1E52               	comf	((c:___fltol@f1+2)),c
  8746  00331C  1E51               	comf	((c:___fltol@f1+1)),c
  8747  00331E  1E50               	negf	((c:___fltol@f1)),c
  8748  003320  6C4F               	movlw	0
  8749  003322  0E00               	addwfc	((c:___fltol@f1+1)),c
  8750  003324  2250               	addwfc	((c:___fltol@f1+2)),c
  8751  003326  2251               	addwfc	((c:___fltol@f1+3)),c
  8752  003328  2252               	goto	l3033
  8753  00332A  EF97  F019         	
  8754                           l513:
  8755  00332E                     	line	69
  8756                           	
  8757                           l3033:
  8758  00332E                     	movff	(c:___fltol@f1),(c:?___fltol)
  8759  003330  C04F  F04F         	movff	(c:___fltol@f1+1),(c:?___fltol+1)
  8760  003334  C050  F050         	movff	(c:___fltol@f1+2),(c:?___fltol+2)
  8761  003338  C051  F051         	movff	(c:___fltol@f1+3),(c:?___fltol+3)
  8762  00333C  C052  F052         	goto	l503
  8763  003340  EFA2  F019         	
  8764                           l3035:
  8765  003344                     	line	70
  8766                           	
  8767                           l503:
  8768  003344                     	return	;funcret
  8769  003346  0012               	dw	0FFFFh; errata NOP
  8770  003348  FFFF               	opt stack 0
  8771                           GLOBAL	__end_of___fltol
  8772                           	__end_of___fltol:
  8773  00334A                     	signat	___fltol,4220
  8774                           	global	___flsub
  8775                           
  8776 ;; *************** function ___flsub *****************
  8777 ;; Defined at:
  8778 ;;		line 245 in file "C:\Program Files (x86)\Microchip\xc8\v2.00\pic\sources\c90\common\sprcadd.c"
  8779 ;; Parameters:    Size  Location     Type
  8780 ;;  b               4   12[BANK0 ] long 
  8781 ;;  a               4   16[BANK0 ] long 
  8782 ;; Auto vars:     Size  Location     Type
  8783 ;;		None
  8784 ;; Return value:  Size  Location     Type
  8785 ;;                  4   12[BANK0 ] long 
  8786 ;; Registers used:
  8787 ;;		wreg, status,2, status,0, cstack
  8788 ;; Tracked objects:
  8789 ;;		On entry : 0/0
  8790 ;;		On exit  : 0/0
  8791 ;;		Unchanged: 0/0
  8792 ;; Data sizes:     COMRAM   BANK0   BANK1   BANK2   BANK3   BANK4   BANK5
  8793 ;;      Params:         0       8       0       0       0       0       0
  8794 ;;      Locals:         0       0       0       0       0       0       0
  8795 ;;      Temps:          0       0       0       0       0       0       0
  8796 ;;      Totals:         0       8       0       0       0       0       0
  8797 ;;Total ram usage:        8 bytes
  8798 ;; Hardware stack levels used:    1
  8799 ;; Hardware stack levels required when called:    4
  8800 ;; This function calls:
  8801 ;;		___fladd
  8802 ;; This function is called by:
  8803 ;;		_printf
  8804 ;; This function uses a non-reentrant model
  8805 ;;
  8806                           psect	text18,class=CODE,space=0,reloc=2,group=1
  8807                           	file	"C:\Program Files (x86)\Microchip\xc8\v2.00\pic\sources\c90\common\sprcadd.c"
  8808                           	line	245
  8809                           global __ptext18
  8810                           __ptext18:
  8811  003AD8                     psect	text18
  8812                           	file	"C:\Program Files (x86)\Microchip\xc8\v2.00\pic\sources\c90\common\sprcadd.c"
  8813                           	line	245
  8814                           	global	__size_of___flsub
  8815                           	__size_of___flsub	equ	__end_of___flsub-___flsub
  8816  0000                     	
  8817                           ___flsub:
  8818  003AD8                     ;incstack = 0
  8819                           	opt	stack 25
  8820                           	line	248
  8821                           	
  8822                           l3647:
  8823  003ADA                     	movlw	0
  8824  003ADA  0E00               	movlb	0	; () banked
  8825  003ADC  0100               	xorwf	((___flsub@a))&0ffh
  8826  003ADE  1B90               	movlw	0
  8827  003AE0  0E00               	xorwf	((___flsub@a+1))&0ffh
  8828  003AE2  1B91               	movlw	0
  8829  003AE4  0E00               	xorwf	((___flsub@a+2))&0ffh
  8830  003AE6  1B92               	movlw	080h
  8831  003AE8  0E80               	xorwf	((___flsub@a+3))&0ffh
  8832  003AEA  1B93               	line	249
  8833                           	
  8834                           l3649:; BSR set to: 0
  8835  003AEC                     
  8836                           	movff	(___flsub@b),(c:___fladd@b)
  8837  003AEC  C08C  F053         	movff	(___flsub@b+1),(c:___fladd@b+1)
  8838  003AF0  C08D  F054         	movff	(___flsub@b+2),(c:___fladd@b+2)
  8839  003AF4  C08E  F055         	movff	(___flsub@b+3),(c:___fladd@b+3)
  8840  003AF8  C08F  F056         	movff	(___flsub@a),(c:___fladd@a)
  8841  003AFC  C090  F057         	movff	(___flsub@a+1),(c:___fladd@a+1)
  8842  003B00  C091  F058         	movff	(___flsub@a+2),(c:___fladd@a+2)
  8843  003B04  C092  F059         	movff	(___flsub@a+3),(c:___fladd@a+3)
  8844  003B08  C093  F05A         	call	___fladd	;wreg free
  8845  003B0C  EC93  F00A         	movff	0+?___fladd,(?___flsub)
  8846  003B10  C053  F08C         	movff	1+?___fladd,(?___flsub+1)
  8847  003B14  C054  F08D         	movff	2+?___fladd,(?___flsub+2)
  8848  003B18  C055  F08E         	movff	3+?___fladd,(?___flsub+3)
  8849  003B1C  C056  F08F         	
  8850                           	goto	l789
  8851  003B20  EF92  F01D         	
  8852                           l3651:
  8853  003B24                     	line	250
  8854                           	
  8855                           l789:
  8856  003B24                     	return	;funcret
  8857  003B26  0012               	dw	0FFFFh; errata NOP
  8858  003B28  FFFF               	opt stack 0
  8859                           GLOBAL	__end_of___flsub
  8860                           	__end_of___flsub:
  8861  003B2A                     	signat	___flsub,8316
  8862                           	global	___fladd
  8863                           
  8864 ;; *************** function ___fladd *****************
  8865 ;; Defined at:
  8866 ;;		line 10 in file "C:\Program Files (x86)\Microchip\xc8\v2.00\pic\sources\c90\common\sprcadd.c"
  8867 ;; Parameters:    Size  Location     Type
  8868 ;;  b               4   82[COMRAM] long 
  8869 ;;  a               4   86[COMRAM] long 
  8870 ;; Auto vars:     Size  Location     Type
  8871 ;;  grs             1   11[BANK0 ] unsigned char 
  8872 ;;  bexp            1   10[BANK0 ] unsigned char 
  8873 ;;  aexp            1    9[BANK0 ] unsigned char 
  8874 ;;  signs           1    8[BANK0 ] unsigned char 
  8875 ;; Return value:  Size  Location     Type
  8876 ;;                  4   82[COMRAM] unsigned char 
  8877 ;; Registers used:
  8878 ;;		wreg, status,2, status,0
  8879 ;; Tracked objects:
  8880 ;;		On entry : 0/0
  8881 ;;		On exit  : 0/0
  8882 ;;		Unchanged: 0/0
  8883 ;; Data sizes:     COMRAM   BANK0   BANK1   BANK2   BANK3   BANK4   BANK5
  8884 ;;      Params:         8       0       0       0       0       0       0
  8885 ;;      Locals:         0       4       0       0       0       0       0
  8886 ;;      Temps:          0       8       0       0       0       0       0
  8887 ;;      Totals:         8      12       0       0       0       0       0
  8888 ;;Total ram usage:       20 bytes
  8889 ;; Hardware stack levels used:    1
  8890 ;; Hardware stack levels required when called:    3
  8891 ;; This function calls:
  8892 ;;		Nothing
  8893 ;; This function is called by:
  8894 ;;		_printf
  8895 ;;		___flsub
  8896 ;; This function uses a non-reentrant model
  8897 ;;
  8898                           psect	text19,class=CODE,space=0,reloc=2,group=1
  8899                           	line	10
  8900                           global __ptext19
  8901                           __ptext19:
  8902  001526                     psect	text19
  8903                           	file	"C:\Program Files (x86)\Microchip\xc8\v2.00\pic\sources\c90\common\sprcadd.c"
  8904                           	line	10
  8905                           	global	__size_of___fladd
  8906                           	__size_of___fladd	equ	__end_of___fladd-___fladd
  8907  0000                     	
  8908                           ___fladd:
  8909  001526                     ;incstack = 0
  8910                           	opt	stack 25
  8911                           	line	21
  8912                           	
  8913                           l3445:
  8914  001528                     	movf	(0+((c:___fladd@b)+03h)),c,w
  8915  001528  5056               	andlw	low(080h)
  8916  00152A  0B80               	movlb	0	; () banked
  8917  00152C  0100               	movwf	((___fladd@signs))&0ffh
  8918  00152E  6F88               	line	22
  8919                           	movf	(0+((c:___fladd@b)+03h)),c,w
  8920  001530  5056               	addwf	(0+((c:___fladd@b)+03h)),c,w
  8921  001532  2456               	movwf	((___fladd@bexp))&0ffh
  8922  001534  6F8A               	line	23
  8923                           	
  8924                           l3447:; BSR set to: 0
  8925  001536                     
  8926                           	
  8927                           	btfss	(0+((c:___fladd@b)+02h)),c,(7)&7
  8928  001536  AE55               	goto	u4071
  8929  001538  EFA0  F00A         	goto	u4070
  8930  00153C  EFA3  F00A         u4071:
  8931  001540                     	goto	l3451
  8932  001542  EFA7  F00A         u4070:
  8933  001546                     	line	24
  8934                           	
  8935                           l3449:; BSR set to: 0
  8936  001548                     
  8937                           	bsf	(0+(0/8)+(___fladd@bexp))&0ffh,(0)&7
  8938  001548  818A               	goto	l3451
  8939  00154A  EFA7  F00A         	line	25
  8940                           	
  8941                           l735:; BSR set to: 0
  8942  00154E                     
  8943                           	line	28
  8944                           	
  8945                           l3451:; BSR set to: 0
  8946  00154E                     
  8947                           	movf	((___fladd@bexp))&0ffh,w
  8948  001550  518A               	btfsc	status,2
  8949  001552  B4D8               	goto	u4081
  8950  001554  EFAE  F00A         	goto	u4080
  8951  001558  EFB1  F00A         u4081:
  8952  00155C                     	goto	l3461
  8953  00155E  EFCC  F00A         u4080:
  8954  001562                     	line	30
  8955                           	
  8956                           l3453:; BSR set to: 0
  8957  001564                     
  8958                           		incf	((___fladd@bexp))&0ffh,w
  8959  001564  298A               	btfss	status,2
  8960  001566  A4D8               	goto	u4091
  8961  001568  EFB8  F00A         	goto	u4090
  8962  00156C  EFBB  F00A         
  8963                           u4091:
  8964  001570                     	goto	l3457
  8965  001572  EFC6  F00A         u4090:
  8966  001576                     	line	32
  8967                           	
  8968                           l3455:; BSR set to: 0
  8969  001578                     
  8970                           	movlw	low(normalize32(0x0))
  8971  001578  0E00               	movwf	((c:___fladd@b)),c
  8972  00157A  6E53               	movlw	high(normalize32(0x0))
  8973  00157C  0E00               	movwf	((c:___fladd@b+1)),c
  8974  00157E  6E54               	movlw	low highword(normalize32(0x0))
  8975  001580  0E00               	movwf	((c:___fladd@b+2)),c
  8976  001582  6E55               	movlw	high highword(normalize32(0x0))
  8977  001584  0E00               	movwf	((c:___fladd@b+3)),c
  8978  001586  6E56               	goto	l3457
  8979  001588  EFC6  F00A         	line	33
  8980                           	
  8981                           l737:; BSR set to: 0
  8982  00158C                     
  8983                           	line	35
  8984                           	
  8985                           l3457:; BSR set to: 0
  8986  00158C                     
  8987                           	bsf	(0+(23/8)+(c:___fladd@b)),c,(23)&7
  8988  00158E  8E55               	line	37
  8989                           	
  8990                           l3459:; BSR set to: 0
  8991  001590                     
  8992                           	movlw	low(0)
  8993  001590  0E00               	movwf	(0+((c:___fladd@b)+03h)),c
  8994  001592  6E56               	line	38
  8995                           	goto	l3463
  8996  001594  EFD7  F00A         	line	39
  8997                           	
  8998                           l736:; BSR set to: 0
  8999  001598                     
  9000                           	line	41
  9001                           	
  9002                           l3461:; BSR set to: 0
  9003  001598                     
  9004                           	movlw	low(normalize32(0x0))
  9005  00159A  0E00               	movwf	((c:___fladd@b)),c
  9006  00159C  6E53               	movlw	high(normalize32(0x0))
  9007  00159E  0E00               	movwf	((c:___fladd@b+1)),c
  9008  0015A0  6E54               	movlw	low highword(normalize32(0x0))
  9009  0015A2  0E00               	movwf	((c:___fladd@b+2)),c
  9010  0015A4  6E55               	movlw	high highword(normalize32(0x0))
  9011  0015A6  0E00               	movwf	((c:___fladd@b+3)),c
  9012  0015A8  6E56               	goto	l3463
  9013  0015AA  EFD7  F00A         	line	42
  9014                           	
  9015                           l738:; BSR set to: 0
  9016  0015AE                     
  9017                           	line	44
  9018                           	
  9019                           l3463:; BSR set to: 0
  9020  0015AE                     
  9021                           	movf	(0+((c:___fladd@a)+03h)),c,w
  9022  0015B0  505A               	andlw	low(080h)
  9023  0015B2  0B80               	movwf	((___fladd@aexp))&0ffh
  9024  0015B4  6F89               	line	46
  9025                           	
  9026                           l3465:; BSR set to: 0
  9027  0015B6                     
  9028                           	movf	((___fladd@signs))&0ffh,w
  9029  0015B6  5188               xorwf	((___fladd@aexp))&0ffh,w
  9030  0015B8  1989               	btfsc	status,2
  9031  0015BA  B4D8               	goto	u4101
  9032  0015BC  EFE2  F00A         	goto	u4100
  9033  0015C0  EFE5  F00A         
  9034                           u4101:
  9035  0015C4                     	goto	l3469
  9036  0015C6  EFE9  F00A         u4100:
  9037  0015CA                     	line	47
  9038                           	
  9039                           l3467:; BSR set to: 0
  9040  0015CC                     
  9041                           	bsf	(0+(6/8)+(___fladd@signs))&0ffh,(6)&7
  9042  0015CC  8D88               	goto	l3469
  9043  0015CE  EFE9  F00A         	line	48
  9044                           	
  9045                           l739:; BSR set to: 0
  9046  0015D2                     
  9047                           	line	49
  9048                           	
  9049                           l3469:; BSR set to: 0
  9050  0015D2                     
  9051                           	movf	(0+((c:___fladd@a)+03h)),c,w
  9052  0015D4  505A               	addwf	(0+((c:___fladd@a)+03h)),c,w
  9053  0015D6  245A               	movwf	((___fladd@aexp))&0ffh
  9054  0015D8  6F89               	line	50
  9055                           	
  9056                           l3471:; BSR set to: 0
  9057  0015DA                     
  9058                           	
  9059                           	btfss	(0+((c:___fladd@a)+02h)),c,(7)&7
  9060  0015DA  AE59               	goto	u4111
  9061  0015DC  EFF2  F00A         	goto	u4110
  9062  0015E0  EFF5  F00A         u4111:
  9063  0015E4                     	goto	l3475
  9064  0015E6  EFF9  F00A         u4110:
  9065  0015EA                     	line	51
  9066                           	
  9067                           l3473:; BSR set to: 0
  9068  0015EC                     
  9069                           	bsf	(0+(0/8)+(___fladd@aexp))&0ffh,(0)&7
  9070  0015EC  8189               	goto	l3475
  9071  0015EE  EFF9  F00A         	line	52
  9072                           	
  9073                           l740:; BSR set to: 0
  9074  0015F2                     
  9075                           	line	55
  9076                           	
  9077                           l3475:; BSR set to: 0
  9078  0015F2                     
  9079                           	movf	((___fladd@aexp))&0ffh,w
  9080  0015F4  5189               	btfsc	status,2
  9081  0015F6  B4D8               	goto	u4121
  9082  0015F8  EF00  F00B         	goto	u4120
  9083  0015FC  EF03  F00B         u4121:
  9084  001600                     	goto	l3485
  9085  001602  EF1E  F00B         u4120:
  9086  001606                     	line	57
  9087                           	
  9088                           l3477:; BSR set to: 0
  9089  001608                     
  9090                           		incf	((___fladd@aexp))&0ffh,w
  9091  001608  2989               	btfss	status,2
  9092  00160A  A4D8               	goto	u4131
  9093  00160C  EF0A  F00B         	goto	u4130
  9094  001610  EF0D  F00B         
  9095                           u4131:
  9096  001614                     	goto	l3481
  9097  001616  EF18  F00B         u4130:
  9098  00161A                     	line	59
  9099                           	
  9100                           l3479:; BSR set to: 0
  9101  00161C                     
  9102                           	movlw	low(normalize32(0x0))
  9103  00161C  0E00               	movwf	((c:___fladd@a)),c
  9104  00161E  6E57               	movlw	high(normalize32(0x0))
  9105  001620  0E00               	movwf	((c:___fladd@a+1)),c
  9106  001622  6E58               	movlw	low highword(normalize32(0x0))
  9107  001624  0E00               	movwf	((c:___fladd@a+2)),c
  9108  001626  6E59               	movlw	high highword(normalize32(0x0))
  9109  001628  0E00               	movwf	((c:___fladd@a+3)),c
  9110  00162A  6E5A               	goto	l3481
  9111  00162C  EF18  F00B         	line	60
  9112                           	
  9113                           l742:; BSR set to: 0
  9114  001630                     
  9115                           	line	62
  9116                           	
  9117                           l3481:; BSR set to: 0
  9118  001630                     
  9119                           	bsf	(0+(23/8)+(c:___fladd@a)),c,(23)&7
  9120  001632  8E59               	line	64
  9121                           	
  9122                           l3483:; BSR set to: 0
  9123  001634                     
  9124                           	movlw	low(0)
  9125  001634  0E00               	movwf	(0+((c:___fladd@a)+03h)),c
  9126  001636  6E5A               	line	65
  9127                           	goto	l3487
  9128  001638  EF29  F00B         	line	66
  9129                           	
  9130                           l741:; BSR set to: 0
  9131  00163C                     
  9132                           	line	68
  9133                           	
  9134                           l3485:; BSR set to: 0
  9135  00163C                     
  9136                           	movlw	low(normalize32(0x0))
  9137  00163E  0E00               	movwf	((c:___fladd@a)),c
  9138  001640  6E57               	movlw	high(normalize32(0x0))
  9139  001642  0E00               	movwf	((c:___fladd@a+1)),c
  9140  001644  6E58               	movlw	low highword(normalize32(0x0))
  9141  001646  0E00               	movwf	((c:___fladd@a+2)),c
  9142  001648  6E59               	movlw	high highword(normalize32(0x0))
  9143  00164A  0E00               	movwf	((c:___fladd@a+3)),c
  9144  00164C  6E5A               	goto	l3487
  9145  00164E  EF29  F00B         	line	69
  9146                           	
  9147                           l743:; BSR set to: 0
  9148  001652                     
  9149                           	line	75
  9150                           	
  9151                           l3487:; BSR set to: 0
  9152  001652                     
  9153                           		movf	((___fladd@bexp))&0ffh,w
  9154  001654  518A               	subwf	((___fladd@aexp))&0ffh,w
  9155  001656  5D89               	btfsc	status,0
  9156  001658  B0D8               	goto	u4141
  9157  00165A  EF31  F00B         	goto	u4140
  9158  00165E  EF34  F00B         
  9159                           u4141:
  9160  001662                     	goto	l3523
  9161  001664  EF63  F00B         u4140:
  9162  001668                     	line	77
  9163                           	
  9164                           l3489:; BSR set to: 0
  9165  00166A                     
  9166                           	
  9167                           	btfss	((___fladd@signs))&0ffh,(6)&7
  9168  00166A  AD88               	goto	u4151
  9169  00166C  EF3A  F00B         	goto	u4150
  9170  001670  EF3D  F00B         u4151:
  9171  001674                     	goto	l3493
  9172  001676  EF42  F00B         u4150:
  9173  00167A                     	line	78
  9174                           	
  9175                           l3491:; BSR set to: 0
  9176  00167C                     
  9177                           	movlw	(080h)&0ffh
  9178  00167C  0E80               	xorwf	((___fladd@signs))&0ffh
  9179  00167E  1B88               	goto	l3493
  9180  001680  EF42  F00B         	line	79
  9181                           	
  9182                           l745:; BSR set to: 0
  9183  001684                     
  9184                           	line	81
  9185                           	
  9186                           l3493:; BSR set to: 0
  9187  001684                     
  9188                           	movff	(___fladd@bexp),(___fladd@grs)
  9189  001686  C08A  F08B         	line	82
  9190                           	
  9191                           l3495:; BSR set to: 0
  9192  00168A                     
  9193                           	movff	(___fladd@aexp),(___fladd@bexp)
  9194  00168A  C089  F08A         	line	83
  9195                           	
  9196                           l3497:; BSR set to: 0
  9197  00168E                     
  9198                           	movff	(___fladd@grs),(___fladd@aexp)
  9199  00168E  C08B  F089         	line	84
  9200                           	
  9201                           l3499:; BSR set to: 0
  9202  001692                     
  9203                           	movff	(c:___fladd@b),(___fladd@grs)
  9204  001692  C053  F08B         	line	85
  9205                           	
  9206                           l3501:; BSR set to: 0
  9207  001696                     
  9208                           	movff	(c:___fladd@a),(c:___fladd@b)
  9209  001696  C057  F053         	line	86
  9210                           	
  9211                           l3503:; BSR set to: 0
  9212  00169A                     
  9213                           	movff	(___fladd@grs),(c:___fladd@a)
  9214  00169A  C08B  F057         	line	87
  9215                           	
  9216                           l3505:; BSR set to: 0
  9217  00169E                     
  9218                           	movff	0+((c:___fladd@b)+01h),(___fladd@grs)
  9219  00169E  C054  F08B         	line	88
  9220                           	
  9221                           l3507:; BSR set to: 0
  9222  0016A2                     
  9223                           	movff	0+((c:___fladd@a)+01h),0+((c:___fladd@b)+01h)
  9224  0016A2  C058  F054         	line	89
  9225                           	
  9226                           l3509:; BSR set to: 0
  9227  0016A6                     
  9228                           	movff	(___fladd@grs),0+((c:___fladd@a)+01h)
  9229  0016A6  C08B  F058         	line	90
  9230                           	
  9231                           l3511:; BSR set to: 0
  9232  0016AA                     
  9233                           	movff	0+((c:___fladd@b)+02h),(___fladd@grs)
  9234  0016AA  C055  F08B         	line	91
  9235                           	
  9236                           l3513:; BSR set to: 0
  9237  0016AE                     
  9238                           	movff	0+((c:___fladd@a)+02h),0+((c:___fladd@b)+02h)
  9239  0016AE  C059  F055         	line	92
  9240                           	
  9241                           l3515:; BSR set to: 0
  9242  0016B2                     
  9243                           	movff	(___fladd@grs),0+((c:___fladd@a)+02h)
  9244  0016B2  C08B  F059         	line	93
  9245                           	
  9246                           l3517:; BSR set to: 0
  9247  0016B6                     
  9248                           	movff	0+((c:___fladd@b)+03h),(___fladd@grs)
  9249  0016B6  C056  F08B         	line	94
  9250                           	
  9251                           l3519:; BSR set to: 0
  9252  0016BA                     
  9253                           	movff	0+((c:___fladd@a)+03h),0+((c:___fladd@b)+03h)
  9254  0016BA  C05A  F056         	line	95
  9255                           	
  9256                           l3521:; BSR set to: 0
  9257  0016BE                     
  9258                           	movff	(___fladd@grs),0+((c:___fladd@a)+03h)
  9259  0016BE  C08B  F05A         	goto	l3523
  9260  0016C2  EF63  F00B         	line	96
  9261                           	
  9262                           l744:; BSR set to: 0
  9263  0016C6                     
  9264                           	line	98
  9265                           	
  9266                           l3523:; BSR set to: 0
  9267  0016C6                     
  9268                           	movlw	low(0)
  9269  0016C8  0E00               	movwf	((___fladd@grs))&0ffh
  9270  0016CA  6F8B               	line	100
  9271                           	
  9272                           l3525:; BSR set to: 0
  9273  0016CC                     
  9274                           	movf	((___fladd@bexp))&0ffh,w
  9275  0016CC  518A               	movwf	(??___fladd+0+0)&0ffh
  9276  0016CE  6F80               	clrf	(??___fladd+0+0+1)&0ffh
  9277  0016D0  6B81               
  9278                           	comf	(??___fladd+0+0)&0ffh
  9279  0016D2  1F80               	comf	(??___fladd+0+1)&0ffh
  9280  0016D4  1F81               	infsnz	(??___fladd+0+0)&0ffh
  9281  0016D6  4B80               	incf	(??___fladd+0+1)&0ffh
  9282  0016D8  2B81               	movf	((___fladd@aexp))&0ffh,w
  9283  0016DA  5189               	movwf	(??___fladd+2+0)&0ffh
  9284  0016DC  6F82               	clrf	(??___fladd+2+0+1)&0ffh
  9285  0016DE  6B83               
  9286                           	movf	(??___fladd+0+0)&0ffh,w
  9287  0016E0  5180               	addwf	(??___fladd+2+0)&0ffh
  9288  0016E2  2782               	movf	(??___fladd+0+1)&0ffh,w
  9289  0016E4  5181               	addwfc	(??___fladd+2+1)&0ffh
  9290  0016E6  2383               	btfsc	(??___fladd+2+1)&0ffh,7
  9291  0016E8  BF83               	goto	u4161
  9292  0016EA  EF80  F00B         	movf	(??___fladd+2+1)&0ffh,w
  9293  0016EE  5183               	bnz	u4160
  9294  0016F0  E10A               	movlw	26
  9295  0016F2  0E1A               	subwf	 (??___fladd+2+0)&0ffh,w
  9296  0016F4  5D82               	btfss	status,0
  9297  0016F6  A0D8               	goto	u4161
  9298  0016F8  EF80  F00B         	goto	u4160
  9299  0016FC  EF83  F00B         
  9300                           u4161:
  9301  001700                     	goto	l748
  9302  001702  EFCC  F00B         u4160:
  9303  001706                     	line	101
  9304                           	
  9305                           l3527:; BSR set to: 0
  9306  001708                     
  9307                           	movf	((c:___fladd@b)),c,w
  9308  001708  5053               iorwf	((c:___fladd@b+1)),c,w
  9309  00170A  1054               iorwf	((c:___fladd@b+2)),c,w
  9310  00170C  1055               iorwf	((c:___fladd@b+3)),c,w
  9311  00170E  1056               	btfss	status,2
  9312  001710  A4D8               	goto	u4171
  9313  001712  EF8D  F00B         	goto	u4170
  9314  001716  EF91  F00B         
  9315                           u4171:
  9316  00171A                     	movlw	1
  9317  00171C  0E01               	goto	u4180
  9318  00171E  EF93  F00B         u4170:
  9319  001722                     	movlw	0
  9320  001724  0E00               u4180:
  9321  001726                     	movwf	((___fladd@grs))&0ffh
  9322  001728  6F8B               	line	102
  9323                           	
  9324                           l3529:; BSR set to: 0
  9325  00172A                     
  9326                           	movlw	low(0)
  9327  00172A  0E00               	movwf	((c:___fladd@b)),c
  9328  00172C  6E53               	movlw	high(0)
  9329  00172E  0E00               	movwf	((c:___fladd@b+1)),c
  9330  001730  6E54               	movlw	low highword(0)
  9331  001732  0E00               	movwf	((c:___fladd@b+2)),c
  9332  001734  6E55               	movlw	high highword(0)
  9333  001736  0E00               	movwf	((c:___fladd@b+3)),c
  9334  001738  6E56               	line	103
  9335                           	
  9336                           l3531:; BSR set to: 0
  9337  00173A                     
  9338                           	movff	(___fladd@aexp),(___fladd@bexp)
  9339  00173A  C089  F08A         	line	104
  9340                           	goto	l747
  9341  00173E  EFDA  F00B         	line	105
  9342                           	
  9343                           l746:; BSR set to: 0
  9344  001742                     
  9345                           	line	106
  9346                           	goto	l748
  9347  001742  EFCC  F00B         	
  9348                           l749:; BSR set to: 0
  9349  001746                     
  9350                           	line	109
  9351                           	
  9352                           	btfss	((___fladd@grs))&0ffh,(0)&7
  9353  001748  A18B               	goto	u4191
  9354  00174A  EFA9  F00B         	goto	u4190
  9355  00174E  EFAC  F00B         u4191:
  9356  001752                     	goto	l3535
  9357  001754  EFB3  F00B         u4190:
  9358  001758                     	line	110
  9359                           	
  9360                           l3533:; BSR set to: 0
  9361  00175A                     
  9362                           	bcf	status,0
  9363  00175A  90D8               	rrcf	((___fladd@grs))&0ffh,w
  9364  00175C  318B               	iorlw	low(01h)
  9365  00175E  0901               	movwf	((___fladd@grs))&0ffh
  9366  001760  6F8B               	line	111
  9367                           	goto	l3537
  9368  001762  EFB8  F00B         	line	112
  9369                           	
  9370                           l750:; BSR set to: 0
  9371  001766                     
  9372                           	line	113
  9373                           	
  9374                           l3535:; BSR set to: 0
  9375  001766                     
  9376                           	bcf status,0
  9377  001768  90D8               	rrcf	((___fladd@grs))&0ffh
  9378  00176A  338B               
  9379                           	goto	l3537
  9380  00176C  EFB8  F00B         	line	114
  9381                           	
  9382                           l751:; BSR set to: 0
  9383  001770                     
  9384                           	line	115
  9385                           	
  9386                           l3537:; BSR set to: 0
  9387  001770                     
  9388                           	
  9389                           	btfss	((c:___fladd@b)),c,(0)&7
  9390  001772  A053               	goto	u4201
  9391  001774  EFBE  F00B         	goto	u4200
  9392  001778  EFC1  F00B         u4201:
  9393  00177C                     	goto	l3541
  9394  00177E  EFC5  F00B         u4200:
  9395  001782                     	line	116
  9396                           	
  9397                           l3539:; BSR set to: 0
  9398  001784                     
  9399                           	bsf	(0+(7/8)+(___fladd@grs))&0ffh,(7)&7
  9400  001784  8F8B               	goto	l3541
  9401  001786  EFC5  F00B         	line	117
  9402                           	
  9403                           l752:; BSR set to: 0
  9404  00178A                     
  9405                           	line	118
  9406                           	
  9407                           l3541:; BSR set to: 0
  9408  00178A                     
  9409                           	rlcf	((c:___fladd@b+3)),c,w
  9410  00178C  3456               	rrcf	((c:___fladd@b+3)),c
  9411  00178E  3256               	rrcf	((c:___fladd@b+2)),c
  9412  001790  3255               	rrcf	((c:___fladd@b+1)),c
  9413  001792  3254               	rrcf	((c:___fladd@b)),c
  9414  001794  3253               	line	119
  9415                           	
  9416                           l3543:; BSR set to: 0
  9417  001796                     
  9418                           	incf	((___fladd@bexp))&0ffh
  9419  001796  2B8A               	line	120
  9420                           	
  9421                           l748:; BSR set to: 0
  9422  001798                     
  9423                           	line	106
  9424                           		movf	((___fladd@aexp))&0ffh,w
  9425  00179A  5189               	subwf	((___fladd@bexp))&0ffh,w
  9426  00179C  5D8A               	btfss	status,0
  9427  00179E  A0D8               	goto	u4211
  9428  0017A0  EFD4  F00B         	goto	u4210
  9429  0017A4  EFD7  F00B         
  9430                           u4211:
  9431  0017A8                     	goto	l749
  9432  0017AA  EFA3  F00B         u4210:
  9433  0017AE                     	goto	l747
  9434  0017B0  EFDA  F00B         	
  9435                           l753:; BSR set to: 0
  9436  0017B4                     
  9437                           	line	121
  9438                           	
  9439                           l747:; BSR set to: 0
  9440  0017B4                     
  9441                           	line	124
  9442                           	
  9443                           	btfsc	((___fladd@signs))&0ffh,(6)&7
  9444  0017B6  BD88               	goto	u4221
  9445  0017B8  EFE0  F00B         	goto	u4220
  9446  0017BC  EFE3  F00B         u4221:
  9447  0017C0                     	goto	l3569
  9448  0017C2  EF38  F00C         u4220:
  9449  0017C6                     	line	127
  9450                           	
  9451                           l3545:; BSR set to: 0
  9452  0017C8                     
  9453                           	movf	((___fladd@bexp))&0ffh,w
  9454  0017C8  518A               	btfss	status,2
  9455  0017CA  A4D8               	goto	u4231
  9456  0017CC  EFEA  F00B         	goto	u4230
  9457  0017D0  EFED  F00B         u4231:
  9458  0017D4                     	goto	l3551
  9459  0017D6  EFFA  F00B         u4230:
  9460  0017DA                     	line	128
  9461                           	
  9462                           l3547:; BSR set to: 0
  9463  0017DC                     
  9464                           	movlw	low(normalize32(0x0))
  9465  0017DC  0E00               	movwf	((c:?___fladd)),c
  9466  0017DE  6E53               	movlw	high(normalize32(0x0))
  9467  0017E0  0E00               	movwf	((c:?___fladd+1)),c
  9468  0017E2  6E54               	movlw	low highword(normalize32(0x0))
  9469  0017E4  0E00               	movwf	((c:?___fladd+2)),c
  9470  0017E6  6E55               	movlw	high highword(normalize32(0x0))
  9471  0017E8  0E00               	movwf	((c:?___fladd+3)),c
  9472  0017EA  6E56               	goto	l756
  9473  0017EC  EFC9  F00D         	
  9474                           l3549:; BSR set to: 0
  9475  0017F0                     
  9476                           	goto	l756
  9477  0017F0  EFC9  F00D         	line	129
  9478                           	
  9479                           l755:; BSR set to: 0
  9480  0017F4                     
  9481                           	line	132
  9482                           	
  9483                           l3551:; BSR set to: 0
  9484  0017F4                     
  9485                           	movf	((c:___fladd@a)),c,w
  9486  0017F6  5057               	addwf	((c:___fladd@b)),c
  9487  0017F8  2653               	movf	((c:___fladd@a+1)),c,w
  9488  0017FA  5058               	addwfc	((c:___fladd@b+1)),c
  9489  0017FC  2254               	movf	((c:___fladd@a+2)),c,w
  9490  0017FE  5059               	addwfc	((c:___fladd@b+2)),c
  9491  001800  2255               	movf	((c:___fladd@a+3)),c,w
  9492  001802  505A               	addwfc	((c:___fladd@b+3)),c
  9493  001804  2256               	line	134
  9494                           	
  9495                           l3553:; BSR set to: 0
  9496  001806                     
  9497                           	
  9498                           	btfss	((c:___fladd@b+3)),c,(24)&7
  9499  001806  A056               	goto	u4241
  9500  001808  EF08  F00C         	goto	u4240
  9501  00180C  EF0B  F00C         u4241:
  9502  001810                     	goto	l3605
  9503  001812  EF00  F00D         u4240:
  9504  001816                     	line	135
  9505                           	
  9506                           l3555:; BSR set to: 0
  9507  001818                     
  9508                           	
  9509                           	btfss	((___fladd@grs))&0ffh,(0)&7
  9510  001818  A18B               	goto	u4251
  9511  00181A  EF11  F00C         	goto	u4250
  9512  00181E  EF14  F00C         u4251:
  9513  001822                     	goto	l3559
  9514  001824  EF1B  F00C         u4250:
  9515  001828                     	line	136
  9516                           	
  9517                           l3557:; BSR set to: 0
  9518  00182A                     
  9519                           	bcf	status,0
  9520  00182A  90D8               	rrcf	((___fladd@grs))&0ffh,w
  9521  00182C  318B               	iorlw	low(01h)
  9522  00182E  0901               	movwf	((___fladd@grs))&0ffh
  9523  001830  6F8B               	line	137
  9524                           	goto	l3561
  9525  001832  EF20  F00C         	line	138
  9526                           	
  9527                           l758:; BSR set to: 0
  9528  001836                     
  9529                           	line	139
  9530                           	
  9531                           l3559:; BSR set to: 0
  9532  001836                     
  9533                           	bcf status,0
  9534  001838  90D8               	rrcf	((___fladd@grs))&0ffh
  9535  00183A  338B               
  9536                           	goto	l3561
  9537  00183C  EF20  F00C         	line	140
  9538                           	
  9539                           l759:; BSR set to: 0
  9540  001840                     
  9541                           	line	141
  9542                           	
  9543                           l3561:; BSR set to: 0
  9544  001840                     
  9545                           	
  9546                           	btfss	((c:___fladd@b)),c,(0)&7
  9547  001842  A053               	goto	u4261
  9548  001844  EF26  F00C         	goto	u4260
  9549  001848  EF29  F00C         u4261:
  9550  00184C                     	goto	l3565
  9551  00184E  EF2D  F00C         u4260:
  9552  001852                     	line	142
  9553                           	
  9554                           l3563:; BSR set to: 0
  9555  001854                     
  9556                           	bsf	(0+(7/8)+(___fladd@grs))&0ffh,(7)&7
  9557  001854  8F8B               	goto	l3565
  9558  001856  EF2D  F00C         	line	143
  9559                           	
  9560                           l760:; BSR set to: 0
  9561  00185A                     
  9562                           	line	144
  9563                           	
  9564                           l3565:; BSR set to: 0
  9565  00185A                     
  9566                           	rlcf	((c:___fladd@b+3)),c,w
  9567  00185C  3456               	rrcf	((c:___fladd@b+3)),c
  9568  00185E  3256               	rrcf	((c:___fladd@b+2)),c
  9569  001860  3255               	rrcf	((c:___fladd@b+1)),c
  9570  001862  3254               	rrcf	((c:___fladd@b)),c
  9571  001864  3253               	line	145
  9572                           	
  9573                           l3567:; BSR set to: 0
  9574  001866                     
  9575                           	incf	((___fladd@bexp))&0ffh
  9576  001866  2B8A               	goto	l3605
  9577  001868  EF00  F00D         	line	146
  9578                           	
  9579                           l757:; BSR set to: 0
  9580  00186C                     
  9581                           	line	148
  9582                           	goto	l3605
  9583  00186C  EF00  F00D         	line	149
  9584                           	
  9585                           l754:; BSR set to: 0
  9586  001870                     
  9587                           	line	153
  9588                           	
  9589                           l3569:; BSR set to: 0
  9590  001870                     
  9591                           		movf	((c:___fladd@a)),c,w
  9592  001872  5057               	subwf	((c:___fladd@b)),c,w
  9593  001874  5C53               	movf	((c:___fladd@a+1)),c,w
  9594  001876  5058               	subwfb	((c:___fladd@b+1)),c,w
  9595  001878  5854               	movf	((c:___fladd@a+2)),c,w
  9596  00187A  5059               	subwfb	((c:___fladd@b+2)),c,w
  9597  00187C  5855               	movf	((c:___fladd@b+3)),c,w
  9598  00187E  5056               	xorlw	80h
  9599  001880  0A80               	movwf	(??___fladd+0+0)&0ffh
  9600  001882  6F80               	movf	((c:___fladd@a+3)),c,w
  9601  001884  505A               	xorlw	80h
  9602  001886  0A80               	subwfb	(??___fladd+0+0)&0ffh,w
  9603  001888  5980               	btfsc	status,0
  9604  00188A  B0D8               	goto	u4271
  9605  00188C  EF4A  F00C         	goto	u4270
  9606  001890  EF4D  F00C         
  9607                           u4271:
  9608  001894                     	goto	l3579
  9609  001896  EF8E  F00C         u4270:
  9610  00189A                     	line	154
  9611                           	
  9612                           l3571:; BSR set to: 0
  9613  00189C                     
  9614                           	movff	(c:___fladd@b),??___fladd+0+0
  9615  00189C  C053  F080         	movff	(c:___fladd@b+1),??___fladd+0+0+1
  9616  0018A0  C054  F081         	movff	(c:___fladd@b+2),??___fladd+0+0+2
  9617  0018A4  C055  F082         	movff	(c:___fladd@b+3),??___fladd+0+0+3
  9618  0018A8  C056  F083         	comf	(??___fladd+0+0)&0ffh
  9619  0018AC  1F80               	comf	(??___fladd+0+1)&0ffh
  9620  0018AE  1F81               	comf	(??___fladd+0+2)&0ffh
  9621  0018B0  1F82               	comf	(??___fladd+0+3)&0ffh
  9622  0018B2  1F83               	incf	(??___fladd+0+0)&0ffh
  9623  0018B4  2B80               	movlw	0
  9624  0018B6  0E00               	addwfc	(??___fladd+0+1)&0ffh
  9625  0018B8  2381               	addwfc	(??___fladd+0+2)&0ffh
  9626  0018BA  2382               	addwfc	(??___fladd+0+3)&0ffh
  9627  0018BC  2383               	movf	((c:___fladd@a)),c,w
  9628  0018BE  5057               	addwf	(??___fladd+0+0)&0ffh,w
  9629  0018C0  2580               	movwf	(??___fladd+4+0)&0ffh
  9630  0018C2  6F84               	movf	((c:___fladd@a+1)),c,w
  9631  0018C4  5058               	addwfc	(??___fladd+0+1)&0ffh,w
  9632  0018C6  2181               	movwf	1+(??___fladd+4+0)&0ffh
  9633  0018C8  6F85               	
  9634                           	movf	((c:___fladd@a+2)),c,w
  9635  0018CA  5059               	addwfc	(??___fladd+0+2)&0ffh,w
  9636  0018CC  2182               	movwf	2+(??___fladd+4+0)&0ffh
  9637  0018CE  6F86               	
  9638                           	movf	((c:___fladd@a+3)),c,w
  9639  0018D0  505A               	addwfc	(??___fladd+0+3)&0ffh,w
  9640  0018D2  2183               	movwf	3+(??___fladd+4+0)&0ffh
  9641  0018D4  6F87               	movlw	0FFh
  9642  0018D6  0EFF               	addwf	(??___fladd+4+0)&0ffh,w
  9643  0018D8  2584               	movwf	((c:___fladd@b)),c
  9644  0018DA  6E53               	movlw	0FFh
  9645  0018DC  0EFF               	addwfc	(??___fladd+4+1)&0ffh,w
  9646  0018DE  2185               	movwf	1+((c:___fladd@b)),c
  9647  0018E0  6E54               	
  9648                           	movlw	0FFh
  9649  0018E2  0EFF               	addwfc	(??___fladd+4+2)&0ffh,w
  9650  0018E4  2186               	movwf	2+((c:___fladd@b)),c
  9651  0018E6  6E55               	
  9652                           	movlw	0FFh
  9653  0018E8  0EFF               	addwfc	(??___fladd+4+3)&0ffh,w
  9654  0018EA  2187               	movwf	3+((c:___fladd@b)),c
  9655  0018EC  6E56               	line	155
  9656                           	movlw	(080h)&0ffh
  9657  0018EE  0E80               	xorwf	((___fladd@signs))&0ffh
  9658  0018F0  1B88               	line	156
  9659                           	
  9660                           l3573:; BSR set to: 0
  9661  0018F2                     
  9662                           	negf	((___fladd@grs))&0ffh
  9663  0018F2  6D8B               	line	157
  9664                           	
  9665                           l3575:; BSR set to: 0
  9666  0018F4                     
  9667                           	movf	((___fladd@grs))&0ffh,w
  9668  0018F4  518B               	btfss	status,2
  9669  0018F6  A4D8               	goto	u4281
  9670  0018F8  EF80  F00C         	goto	u4280
  9671  0018FC  EF83  F00C         u4281:
  9672  001900                     	goto	l764
  9673  001902  EF97  F00C         u4280:
  9674  001906                     	line	158
  9675                           	
  9676                           l3577:; BSR set to: 0
  9677  001908                     
  9678                           	movlw	low(01h)
  9679  001908  0E01               	addwf	((c:___fladd@b)),c
  9680  00190A  2653               	movlw	0
  9681  00190C  0E00               	addwfc	((c:___fladd@b+1)),c
  9682  00190E  2254               	addwfc	((c:___fladd@b+2)),c
  9683  001910  2255               	addwfc	((c:___fladd@b+3)),c
  9684  001912  2256               	goto	l764
  9685  001914  EF97  F00C         	line	159
  9686                           	
  9687                           l763:; BSR set to: 0
  9688  001918                     
  9689                           	line	160
  9690                           	goto	l764
  9691  001918  EF97  F00C         	line	161
  9692                           	
  9693                           l762:; BSR set to: 0
  9694  00191C                     
  9695                           	line	162
  9696                           	
  9697                           l3579:; BSR set to: 0
  9698  00191C                     
  9699                           	movf	((c:___fladd@a)),c,w
  9700  00191E  5057               	subwf	((c:___fladd@b)),c
  9701  001920  5E53               	movf	((c:___fladd@a+1)),c,w
  9702  001922  5058               	subwfb	((c:___fladd@b+1)),c
  9703  001924  5A54               	movf	((c:___fladd@a+2)),c,w
  9704  001926  5059               	subwfb	((c:___fladd@b+2)),c
  9705  001928  5A55               	movf	((c:___fladd@a+3)),c,w
  9706  00192A  505A               	subwfb	((c:___fladd@b+3)),c
  9707  00192C  5A56               	line	163
  9708                           	
  9709                           l764:; BSR set to: 0
  9710  00192E                     
  9711                           	line	166
  9712                           	movf	((c:___fladd@b)),c,w
  9713  001930  5053               iorwf	((c:___fladd@b+1)),c,w
  9714  001932  1054               iorwf	((c:___fladd@b+2)),c,w
  9715  001934  1055               iorwf	((c:___fladd@b+3)),c,w
  9716  001936  1056               	btfss	status,2
  9717  001938  A4D8               	goto	u4291
  9718  00193A  EFA1  F00C         	goto	u4290
  9719  00193E  EFA4  F00C         
  9720                           u4291:
  9721  001942                     	goto	l3603
  9722  001944  EFF2  F00C         u4290:
  9723  001948                     	
  9724                           l3581:; BSR set to: 0
  9725  00194A                     
  9726                           	movf	((___fladd@grs))&0ffh,w
  9727  00194A  518B               	btfss	status,2
  9728  00194C  A4D8               	goto	u4301
  9729  00194E  EFAB  F00C         	goto	u4300
  9730  001952  EFAE  F00C         u4301:
  9731  001956                     	goto	l3603
  9732  001958  EFF2  F00C         u4300:
  9733  00195C                     	line	167
  9734                           	
  9735                           l3583:; BSR set to: 0
  9736  00195E                     
  9737                           	movlw	low(normalize32(0x0))
  9738  00195E  0E00               	movwf	((c:?___fladd)),c
  9739  001960  6E53               	movlw	high(normalize32(0x0))
  9740  001962  0E00               	movwf	((c:?___fladd+1)),c
  9741  001964  6E54               	movlw	low highword(normalize32(0x0))
  9742  001966  0E00               	movwf	((c:?___fladd+2)),c
  9743  001968  6E55               	movlw	high highword(normalize32(0x0))
  9744  00196A  0E00               	movwf	((c:?___fladd+3)),c
  9745  00196C  6E56               	goto	l756
  9746  00196E  EFC9  F00D         	
  9747                           l3585:; BSR set to: 0
  9748  001972                     
  9749                           	goto	l756
  9750  001972  EFC9  F00D         	line	168
  9751                           	
  9752                           l765:; BSR set to: 0
  9753  001976                     
  9754                           	line	171
  9755                           	goto	l3603
  9756  001976  EFF2  F00C         	
  9757                           l767:; BSR set to: 0
  9758  00197A                     
  9759                           	line	172
  9760                           	
  9761                           l3587:; BSR set to: 0
  9762  00197A                     
  9763                           	bcf	status,0
  9764  00197C  90D8               	rlcf	((c:___fladd@b)),c
  9765  00197E  3653               	rlcf	((c:___fladd@b+1)),c
  9766  001980  3654               	rlcf	((c:___fladd@b+2)),c
  9767  001982  3655               	rlcf	((c:___fladd@b+3)),c
  9768  001984  3656               	line	173
  9769                           	
  9770                           l3589:; BSR set to: 0
  9771  001986                     
  9772                           	
  9773                           	btfss	((___fladd@grs))&0ffh,(7)&7
  9774  001986  AF8B               	goto	u4311
  9775  001988  EFC8  F00C         	goto	u4310
  9776  00198C  EFCB  F00C         u4311:
  9777  001990                     	goto	l3593
  9778  001992  EFCF  F00C         u4310:
  9779  001996                     	line	174
  9780                           	
  9781                           l3591:; BSR set to: 0
  9782  001998                     
  9783                           	bsf	(0+(0/8)+(c:___fladd@b)),c,(0)&7
  9784  001998  8053               	goto	l3593
  9785  00199A  EFCF  F00C         	line	175
  9786                           	
  9787                           l768:; BSR set to: 0
  9788  00199E                     
  9789                           	line	176
  9790                           	
  9791                           l3593:; BSR set to: 0
  9792  00199E                     
  9793                           	
  9794                           	btfss	((___fladd@grs))&0ffh,(0)&7
  9795  0019A0  A18B               	goto	u4321
  9796  0019A2  EFD5  F00C         	goto	u4320
  9797  0019A6  EFD8  F00C         u4321:
  9798  0019AA                     	goto	l3597
  9799  0019AC  EFDD  F00C         u4320:
  9800  0019B0                     	line	177
  9801                           	
  9802                           l3595:; BSR set to: 0
  9803  0019B2                     
  9804                           	bsf	status,0
  9805  0019B2  80D8               	
  9806                           	rlcf	((___fladd@grs))&0ffh
  9807  0019B4  378B               	line	178
  9808                           	goto	l3599
  9809  0019B6  EFE2  F00C         	line	179
  9810                           	
  9811                           l769:; BSR set to: 0
  9812  0019BA                     
  9813                           	line	180
  9814                           	
  9815                           l3597:; BSR set to: 0
  9816  0019BA                     
  9817                           	bcf status,0
  9818  0019BC  90D8               	rlcf	((___fladd@grs))&0ffh
  9819  0019BE  378B               
  9820                           	goto	l3599
  9821  0019C0  EFE2  F00C         	line	181
  9822                           	
  9823                           l770:; BSR set to: 0
  9824  0019C4                     
  9825                           	line	182
  9826                           	
  9827                           l3599:; BSR set to: 0
  9828  0019C4                     
  9829                           	movf	((___fladd@bexp))&0ffh,w
  9830  0019C6  518A               	btfsc	status,2
  9831  0019C8  B4D8               	goto	u4331
  9832  0019CA  EFE9  F00C         	goto	u4330
  9833  0019CE  EFEC  F00C         u4331:
  9834  0019D2                     	goto	l3603
  9835  0019D4  EFF2  F00C         u4330:
  9836  0019D8                     	line	183
  9837                           	
  9838                           l3601:; BSR set to: 0
  9839  0019DA                     
  9840                           	decf	((___fladd@bexp))&0ffh
  9841  0019DA  078A               	goto	l3603
  9842  0019DC  EFF2  F00C         	line	184
  9843                           	
  9844                           l771:; BSR set to: 0
  9845  0019E0                     
  9846                           	goto	l3603
  9847  0019E0  EFF2  F00C         	line	185
  9848                           	
  9849                           l766:; BSR set to: 0
  9850  0019E4                     
  9851                           	line	171
  9852                           	
  9853                           l3603:; BSR set to: 0
  9854  0019E4                     
  9855                           	
  9856                           	btfss	((c:___fladd@b+2)),c,(23)&7
  9857  0019E6  AE55               	goto	u4341
  9858  0019E8  EFF8  F00C         	goto	u4340
  9859  0019EC  EFFB  F00C         u4341:
  9860  0019F0                     	goto	l3587
  9861  0019F2  EFBD  F00C         u4340:
  9862  0019F6                     	goto	l3605
  9863  0019F8  EF00  F00D         	
  9864                           l772:; BSR set to: 0
  9865  0019FC                     
  9866                           	goto	l3605
  9867  0019FC  EF00  F00D         	line	186
  9868                           	
  9869                           l761:; BSR set to: 0
  9870  001A00                     
  9871                           	line	192
  9872                           	
  9873                           l3605:; BSR set to: 0
  9874  001A00                     
  9875                           	movlw	low(0)
  9876  001A02  0E00               	movwf	((___fladd@aexp))&0ffh
  9877  001A04  6F89               	line	193
  9878                           	
  9879                           l3607:; BSR set to: 0
  9880  001A06                     
  9881                           	
  9882                           	btfss	((___fladd@grs))&0ffh,(7)&7
  9883  001A06  AF8B               	goto	u4351
  9884  001A08  EF08  F00D         	goto	u4350
  9885  001A0C  EF0B  F00D         u4351:
  9886  001A10                     	goto	l773
  9887  001A12  EF2D  F00D         u4350:
  9888  001A16                     	line	194
  9889                           	
  9890                           l3609:; BSR set to: 0
  9891  001A18                     
  9892                           	movff	(___fladd@grs),??___fladd+0+0
  9893  001A18  C08B  F080         	movlw	07Fh
  9894  001A1C  0E7F               	andwf	(??___fladd+0+0)&0ffh
  9895  001A1E  1780               	btfsc	status,2
  9896  001A20  B4D8               	goto	u4361
  9897  001A22  EF15  F00D         	goto	u4360
  9898  001A26  EF18  F00D         u4361:
  9899  001A2A                     	goto	l774
  9900  001A2C  EF1D  F00D         u4360:
  9901  001A30                     	line	195
  9902                           	
  9903                           l3611:; BSR set to: 0
  9904  001A32                     
  9905                           	movlw	low(01h)
  9906  001A32  0E01               	movwf	((___fladd@aexp))&0ffh
  9907  001A34  6F89               	line	196
  9908                           	goto	l773
  9909  001A36  EF2D  F00D         	line	197
  9910                           	
  9911                           l774:; BSR set to: 0
  9912  001A3A                     
  9913                           	line	198
  9914                           	
  9915                           	btfss	((c:___fladd@b)),c,(0)&7
  9916  001A3C  A053               	goto	u4371
  9917  001A3E  EF23  F00D         	goto	u4370
  9918  001A42  EF26  F00D         u4371:
  9919  001A46                     	goto	l773
  9920  001A48  EF2D  F00D         u4370:
  9921  001A4C                     	line	199
  9922                           	
  9923                           l3613:; BSR set to: 0
  9924  001A4E                     
  9925                           	movlw	low(01h)
  9926  001A4E  0E01               	movwf	((___fladd@aexp))&0ffh
  9927  001A50  6F89               	goto	l773
  9928  001A52  EF2D  F00D         	line	200
  9929                           	
  9930                           l776:; BSR set to: 0
  9931  001A56                     
  9932                           	goto	l773
  9933  001A56  EF2D  F00D         	line	201
  9934                           	
  9935                           l775:; BSR set to: 0
  9936  001A5A                     
  9937                           	line	202
  9938                           	
  9939                           l773:; BSR set to: 0
  9940  001A5A                     
  9941                           	line	203
  9942                           	movf	((___fladd@aexp))&0ffh,w
  9943  001A5C  5189               	btfsc	status,2
  9944  001A5E  B4D8               	goto	u4381
  9945  001A60  EF34  F00D         	goto	u4380
  9946  001A64  EF37  F00D         u4381:
  9947  001A68                     	goto	l3623
  9948  001A6A  EF6D  F00D         u4380:
  9949  001A6E                     	line	204
  9950                           	
  9951                           l3615:; BSR set to: 0
  9952  001A70                     
  9953                           	movlw	low(01h)
  9954  001A70  0E01               	addwf	((c:___fladd@b)),c
  9955  001A72  2653               	movlw	0
  9956  001A74  0E00               	addwfc	((c:___fladd@b+1)),c
  9957  001A76  2254               	addwfc	((c:___fladd@b+2)),c
  9958  001A78  2255               	addwfc	((c:___fladd@b+3)),c
  9959  001A7A  2256               	line	205
  9960                           	
  9961                           l3617:; BSR set to: 0
  9962  001A7C                     
  9963                           	
  9964                           	btfss	((c:___fladd@b+3)),c,(24)&7
  9965  001A7C  A056               	goto	u4391
  9966  001A7E  EF43  F00D         	goto	u4390
  9967  001A82  EF46  F00D         u4391:
  9968  001A86                     	goto	l3623
  9969  001A88  EF6D  F00D         u4390:
  9970  001A8C                     	line	206
  9971                           	
  9972                           l3619:; BSR set to: 0
  9973  001A8E                     
  9974                           	movff	(c:___fladd@b),??___fladd+0+0
  9975  001A8E  C053  F080         	movff	(c:___fladd@b+1),??___fladd+0+0+1
  9976  001A92  C054  F081         	movff	(c:___fladd@b+2),??___fladd+0+0+2
  9977  001A96  C055  F082         	movff	(c:___fladd@b+3),??___fladd+0+0+3
  9978  001A9A  C056  F083         	rlcf	(??___fladd+0+3)&0ffh,w
  9979  001A9E  3583               	rrcf	(??___fladd+0+3)&0ffh
  9980  001AA0  3383               	rrcf	(??___fladd+0+2)&0ffh
  9981  001AA2  3382               	rrcf	(??___fladd+0+1)&0ffh
  9982  001AA4  3381               	rrcf	(??___fladd+0+0)&0ffh
  9983  001AA6  3380               	movff	??___fladd+0+0,(c:___fladd@b)
  9984  001AA8  C080  F053         	movff	??___fladd+0+1,(c:___fladd@b+1)
  9985  001AAC  C081  F054         	movff	??___fladd+0+2,(c:___fladd@b+2)
  9986  001AB0  C082  F055         	movff	??___fladd+0+3,(c:___fladd@b+3)
  9987  001AB4  C083  F056         	line	207
  9988                           		incf	((___fladd@bexp))&0ffh,w
  9989  001AB8  298A               	btfsc	status,2
  9990  001ABA  B4D8               	goto	u4401
  9991  001ABC  EF62  F00D         	goto	u4400
  9992  001AC0  EF65  F00D         
  9993                           u4401:
  9994  001AC4                     	goto	l3623
  9995  001AC6  EF6D  F00D         u4400:
  9996  001ACA                     	line	208
  9997                           	
  9998                           l3621:; BSR set to: 0
  9999  001ACC                     
 10000                           	incf	((___fladd@bexp))&0ffh
 10001  001ACC  2B8A               	goto	l3623
 10002  001ACE  EF6D  F00D         	line	209
 10003                           	
 10004                           l779:; BSR set to: 0
 10005  001AD2                     
 10006                           	goto	l3623
 10007  001AD2  EF6D  F00D         	line	210
 10008                           	
 10009                           l778:; BSR set to: 0
 10010  001AD6                     
 10011                           	goto	l3623
 10012  001AD6  EF6D  F00D         	line	211
 10013                           	
 10014                           l777:; BSR set to: 0
 10015  001ADA                     
 10016                           	line	215
 10017                           	
 10018                           l3623:; BSR set to: 0
 10019  001ADA                     
 10020                           		incf	((___fladd@bexp))&0ffh,w
 10021  001ADC  298A               	btfsc	status,2
 10022  001ADE  B4D8               	goto	u4411
 10023  001AE0  EF74  F00D         	goto	u4410
 10024  001AE4  EF77  F00D         
 10025                           u4411:
 10026  001AE8                     	goto	l3627
 10027  001AEA  EF84  F00D         u4410:
 10028  001AEE                     	
 10029                           l3625:; BSR set to: 0
 10030  001AF0                     
 10031                           	movf	((___fladd@bexp))&0ffh,w
 10032  001AF0  518A               	btfss	status,2
 10033  001AF2  A4D8               	goto	u4421
 10034  001AF4  EF7E  F00D         	goto	u4420
 10035  001AF8  EF81  F00D         u4421:
 10036  001AFC                     	goto	l3631
 10037  001AFE  EF9D  F00D         u4420:
 10038  001B02                     	goto	l3627
 10039  001B04  EF84  F00D         	
 10040                           l782:; BSR set to: 0
 10041  001B08                     
 10042                           	line	216
 10043                           	
 10044                           l3627:; BSR set to: 0
 10045  001B08                     
 10046                           	movlw	low(0)
 10047  001B0A  0E00               	movwf	((c:___fladd@b)),c
 10048  001B0C  6E53               	movlw	high(0)
 10049  001B0E  0E00               	movwf	((c:___fladd@b+1)),c
 10050  001B10  6E54               	movlw	low highword(0)
 10051  001B12  0E00               	movwf	((c:___fladd@b+2)),c
 10052  001B14  6E55               	movlw	high highword(0)
 10053  001B16  0E00               	movwf	((c:___fladd@b+3)),c
 10054  001B18  6E56               	line	218
 10055                           	movf	((___fladd@bexp))&0ffh,w
 10056  001B1A  518A               	btfss	status,2
 10057  001B1C  A4D8               	goto	u4431
 10058  001B1E  EF93  F00D         	goto	u4430
 10059  001B22  EF96  F00D         u4431:
 10060  001B26                     	goto	l3631
 10061  001B28  EF9D  F00D         u4430:
 10062  001B2C                     	line	219
 10063                           	
 10064                           l3629:; BSR set to: 0
 10065  001B2E                     
 10066                           	movlw	low(0)
 10067  001B2E  0E00               	movwf	((___fladd@signs))&0ffh
 10068  001B30  6F88               	goto	l3631
 10069  001B32  EF9D  F00D         	line	220
 10070                           	
 10071                           l783:; BSR set to: 0
 10072  001B36                     
 10073                           	goto	l3631
 10074  001B36  EF9D  F00D         	line	221
 10075                           	
 10076                           l780:; BSR set to: 0
 10077  001B3A                     
 10078                           	line	225
 10079                           	
 10080                           l3631:; BSR set to: 0
 10081  001B3A                     
 10082                           	
 10083                           	btfss	((___fladd@bexp))&0ffh,(0)&7
 10084  001B3C  A18A               	goto	u4441
 10085  001B3E  EFA3  F00D         	goto	u4440
 10086  001B42  EFA6  F00D         u4441:
 10087  001B46                     	goto	l3635
 10088  001B48  EFAA  F00D         u4440:
 10089  001B4C                     	line	226
 10090                           	
 10091                           l3633:; BSR set to: 0
 10092  001B4E                     
 10093                           	bsf	(0+(7/8)+0+((c:___fladd@b)+02h)),c,(7)&7
 10094  001B4E  8E55               	line	227
 10095                           	goto	l3637
 10096  001B50  EFAE  F00D         	line	229
 10097                           	
 10098                           l784:; BSR set to: 0
 10099  001B54                     
 10100                           	line	230
 10101                           	
 10102                           l3635:; BSR set to: 0
 10103  001B54                     
 10104                           	bcf	(0+(7/8)+0+((c:___fladd@b)+02h)),c,(7)&7
 10105  001B56  9E55               	goto	l3637
 10106  001B58  EFAE  F00D         	line	231
 10107                           	
 10108                           l785:; BSR set to: 0
 10109  001B5C                     
 10110                           	line	232
 10111                           	
 10112                           l3637:; BSR set to: 0
 10113  001B5C                     
 10114                           	bcf	status,0
 10115  001B5E  90D8               	rrcf	((___fladd@bexp))&0ffh,w
 10116  001B60  318A               	movwf	(0+((c:___fladd@b)+03h)),c
 10117  001B62  6E56               	line	233
 10118                           	
 10119                           l3639:; BSR set to: 0
 10120  001B64                     
 10121                           	
 10122                           	btfss	((___fladd@signs))&0ffh,(7)&7
 10123  001B64  AF88               	goto	u4451
 10124  001B66  EFB7  F00D         	goto	u4450
 10125  001B6A  EFBA  F00D         u4451:
 10126  001B6E                     	goto	l3643
 10127  001B70  EFBE  F00D         u4450:
 10128  001B74                     	line	234
 10129                           	
 10130                           l3641:; BSR set to: 0
 10131  001B76                     
 10132                           	bsf	(0+(7/8)+0+((c:___fladd@b)+03h)),c,(7)&7
 10133  001B76  8E56               	goto	l3643
 10134  001B78  EFBE  F00D         	line	235
 10135                           	
 10136                           l786:; BSR set to: 0
 10137  001B7C                     
 10138                           	line	236
 10139                           	
 10140                           l3643:; BSR set to: 0
 10141  001B7C                     
 10142                           	movff	(c:___fladd@b),(c:?___fladd)
 10143  001B7E  C053  F053         	movff	(c:___fladd@b+1),(c:?___fladd+1)
 10144  001B82  C054  F054         	movff	(c:___fladd@b+2),(c:?___fladd+2)
 10145  001B86  C055  F055         	movff	(c:___fladd@b+3),(c:?___fladd+3)
 10146  001B8A  C056  F056         	goto	l756
 10147  001B8E  EFC9  F00D         	
 10148                           l3645:; BSR set to: 0
 10149  001B92                     
 10150                           	line	237
 10151                           	
 10152                           l756:; BSR set to: 0
 10153  001B92                     
 10154                           	return	;funcret
 10155  001B94  0012               	dw	0FFFFh; errata NOP
 10156  001B96  FFFF               	opt stack 0
 10157                           GLOBAL	__end_of___fladd
 10158                           	__end_of___fladd:
 10159  001B98                     	signat	___fladd,8316
 10160                           	global	___flneg
 10161                           
 10162 ;; *************** function ___flneg *****************
 10163 ;; Defined at:
 10164 ;;		line 15 in file "C:\Program Files (x86)\Microchip\xc8\v2.00\pic\sources\c90\common\flneg.c"
 10165 ;; Parameters:    Size  Location     Type
 10166 ;;  f1              4   30[COMRAM] unsigned char 
 10167 ;; Auto vars:     Size  Location     Type
 10168 ;;		None
 10169 ;; Return value:  Size  Location     Type
 10170 ;;                  4   30[COMRAM] unsigned char 
 10171 ;; Registers used:
 10172 ;;		wreg, status,2, status,0
 10173 ;; Tracked objects:
 10174 ;;		On entry : 0/0
 10175 ;;		On exit  : 0/0
 10176 ;;		Unchanged: 0/0
 10177 ;; Data sizes:     COMRAM   BANK0   BANK1   BANK2   BANK3   BANK4   BANK5
 10178 ;;      Params:         4       0       0       0       0       0       0
 10179 ;;      Locals:         0       0       0       0       0       0       0
 10180 ;;      Temps:          0       0       0       0       0       0       0
 10181 ;;      Totals:         4       0       0       0       0       0       0
 10182 ;;Total ram usage:        4 bytes
 10183 ;; Hardware stack levels used:    1
 10184 ;; Hardware stack levels required when called:    3
 10185 ;; This function calls:
 10186 ;;		Nothing
 10187 ;; This function is called by:
 10188 ;;		_printf
 10189 ;; This function uses a non-reentrant model
 10190 ;;
 10191                           psect	text20,class=CODE,space=0,reloc=2,group=1
 10192                           	file	"C:\Program Files (x86)\Microchip\xc8\v2.00\pic\sources\c90\common\flneg.c"
 10193                           	line	15
 10194                           global __ptext20
 10195                           __ptext20:
 10196  003B76                     psect	text20
 10197                           	file	"C:\Program Files (x86)\Microchip\xc8\v2.00\pic\sources\c90\common\flneg.c"
 10198                           	line	15
 10199                           	global	__size_of___flneg
 10200                           	__size_of___flneg	equ	__end_of___flneg-___flneg
 10201  0000                     	
 10202                           ___flneg:; BSR set to: 0
 10203  003B76                     
 10204                           ;incstack = 0
 10205                           	opt	stack 26
 10206                           	line	17
 10207                           	
 10208                           l2985:
 10209  003B78                     	movf	((c:___flneg@f1)),c,w
 10210  003B78  501F               iorwf	((c:___flneg@f1+1)),c,w
 10211  003B7A  1020               iorwf	((c:___flneg@f1+2)),c,w
 10212  003B7C  1021               iorwf	((c:___flneg@f1+3)),c,w
 10213  003B7E  1022               	btfsc	status,2
 10214  003B80  B4D8               	goto	u3231
 10215  003B82  EFC5  F01D         	goto	u3230
 10216  003B86  EFC8  F01D         
 10217                           u3231:
 10218  003B8A                     	goto	l2989
 10219  003B8C  EFD3  F01D         u3230:
 10220  003B90                     	line	18
 10221                           	
 10222                           l2987:
 10223  003B92                     	movlw	0
 10224  003B92  0E00               	xorwf	((c:___flneg@f1)),c
 10225  003B94  1A1F               	movlw	0
 10226  003B96  0E00               	xorwf	((c:___flneg@f1+1)),c
 10227  003B98  1A20               	movlw	0
 10228  003B9A  0E00               	xorwf	((c:___flneg@f1+2)),c
 10229  003B9C  1A21               	movlw	080h
 10230  003B9E  0E80               	xorwf	((c:___flneg@f1+3)),c
 10231  003BA0  1A22               	goto	l2989
 10232  003BA2  EFD3  F01D         	
 10233                           l479:
 10234  003BA6                     	line	19
 10235                           	
 10236                           l2989:
 10237  003BA6                     	movff	(c:___flneg@f1),(c:?___flneg)
 10238  003BA8  C01F  F01F         	movff	(c:___flneg@f1+1),(c:?___flneg+1)
 10239  003BAC  C020  F020         	movff	(c:___flneg@f1+2),(c:?___flneg+2)
 10240  003BB0  C021  F021         	movff	(c:___flneg@f1+3),(c:?___flneg+3)
 10241  003BB4  C022  F022         	goto	l480
 10242  003BB8  EFDE  F01D         	
 10243                           l2991:
 10244  003BBC                     	line	20
 10245                           	
 10246                           l480:
 10247  003BBC                     	return	;funcret
 10248  003BBE  0012               	dw	0FFFFh; errata NOP
 10249  003BC0  FFFF               	opt stack 0
 10250                           GLOBAL	__end_of___flneg
 10251                           	__end_of___flneg:
 10252  003BC2                     	signat	___flneg,4220
 10253                           	global	___flge
 10254                           
 10255 ;; *************** function ___flge *****************
 10256 ;; Defined at:
 10257 ;;		line 4 in file "C:\Program Files (x86)\Microchip\xc8\v2.00\pic\sources\c90\common\flge.c"
 10258 ;; Parameters:    Size  Location     Type
 10259 ;;  ff1             4   30[COMRAM] unsigned char 
 10260 ;;  ff2             4   34[COMRAM] unsigned char 
 10261 ;; Auto vars:     Size  Location     Type
 10262 ;;		None
 10263 ;; Return value:  Size  Location     Type
 10264 ;;		None               void
 10265 ;; Registers used:
 10266 ;;		wreg, status,2, status,0
 10267 ;; Tracked objects:
 10268 ;;		On entry : 0/0
 10269 ;;		On exit  : 0/0
 10270 ;;		Unchanged: 0/0
 10271 ;; Data sizes:     COMRAM   BANK0   BANK1   BANK2   BANK3   BANK4   BANK5
 10272 ;;      Params:         8       0       0       0       0       0       0
 10273 ;;      Locals:         0       0       0       0       0       0       0
 10274 ;;      Temps:          4       0       0       0       0       0       0
 10275 ;;      Totals:        12       0       0       0       0       0       0
 10276 ;;Total ram usage:       12 bytes
 10277 ;; Hardware stack levels used:    1
 10278 ;; Hardware stack levels required when called:    3
 10279 ;; This function calls:
 10280 ;;		Nothing
 10281 ;; This function is called by:
 10282 ;;		_printf
 10283 ;; This function uses a non-reentrant model
 10284 ;;
 10285                           psect	text21,class=CODE,space=0,reloc=2,group=1
 10286                           	file	"C:\Program Files (x86)\Microchip\xc8\v2.00\pic\sources\c90\common\flge.c"
 10287                           	line	4
 10288                           global __ptext21
 10289                           __ptext21:
 10290  00303C                     psect	text21
 10291                           	file	"C:\Program Files (x86)\Microchip\xc8\v2.00\pic\sources\c90\common\flge.c"
 10292                           	line	4
 10293                           	global	__size_of___flge
 10294                           	__size_of___flge	equ	__end_of___flge-___flge
 10295  0000                     	
 10296                           ___flge:
 10297  00303C                     ;incstack = 0
 10298                           	opt	stack 26
 10299                           	line	7
 10300                           	
 10301                           l2963:
 10302  00303E                     	movlw	0
 10303  00303E  0E00               	andwf	((c:___flge@ff1)),c,w
 10304  003040  141F               	movwf	(??___flge+0+0)&0ffh,c
 10305  003042  6E27               	movlw	0
 10306  003044  0E00               	andwf	((c:___flge@ff1+1)),c,w
 10307  003046  1420               	movwf	1+(??___flge+0+0)&0ffh,c
 10308  003048  6E28               	
 10309                           	movlw	080h
 10310  00304A  0E80               	andwf	((c:___flge@ff1+2)),c,w
 10311  00304C  1421               	movwf	2+(??___flge+0+0)&0ffh,c
 10312  00304E  6E29               	
 10313                           	movlw	07Fh
 10314  003050  0E7F               	andwf	((c:___flge@ff1+3)),c,w
 10315  003052  1422               	movwf	3+(??___flge+0+0)&0ffh,c
 10316  003054  6E2A               	movf	(??___flge+0+0),c,w
 10317  003056  5027               iorwf	(??___flge+0+1),c,w
 10318  003058  1028               iorwf	(??___flge+0+2),c,w
 10319  00305A  1029               iorwf	(??___flge+0+3),c,w
 10320  00305C  102A               	btfss	status,2
 10321  00305E  A4D8               	goto	u3181
 10322  003060  EF34  F018         	goto	u3180
 10323  003064  EF37  F018         
 10324                           u3181:
 10325  003068                     	goto	l2967
 10326  00306A  EF42  F018         u3180:
 10327  00306E                     	line	8
 10328                           	
 10329                           l2965:
 10330  003070                     	movlw	low(0)
 10331  003070  0E00               	movwf	((c:___flge@ff1)),c
 10332  003072  6E1F               	movlw	high(0)
 10333  003074  0E00               	movwf	((c:___flge@ff1+1)),c
 10334  003076  6E20               	movlw	low highword(0)
 10335  003078  0E00               	movwf	((c:___flge@ff1+2)),c
 10336  00307A  6E21               	movlw	high highword(0)
 10337  00307C  0E00               	movwf	((c:___flge@ff1+3)),c
 10338  00307E  6E22               	goto	l2967
 10339  003080  EF42  F018         	
 10340                           l472:
 10341  003084                     	line	9
 10342                           	
 10343                           l2967:
 10344  003084                     	movlw	0
 10345  003086  0E00               	andwf	((c:___flge@ff2)),c,w
 10346  003088  1423               	movwf	(??___flge+0+0)&0ffh,c
 10347  00308A  6E27               	movlw	0
 10348  00308C  0E00               	andwf	((c:___flge@ff2+1)),c,w
 10349  00308E  1424               	movwf	1+(??___flge+0+0)&0ffh,c
 10350  003090  6E28               	
 10351                           	movlw	080h
 10352  003092  0E80               	andwf	((c:___flge@ff2+2)),c,w
 10353  003094  1425               	movwf	2+(??___flge+0+0)&0ffh,c
 10354  003096  6E29               	
 10355                           	movlw	07Fh
 10356  003098  0E7F               	andwf	((c:___flge@ff2+3)),c,w
 10357  00309A  1426               	movwf	3+(??___flge+0+0)&0ffh,c
 10358  00309C  6E2A               	movf	(??___flge+0+0),c,w
 10359  00309E  5027               iorwf	(??___flge+0+1),c,w
 10360  0030A0  1028               iorwf	(??___flge+0+2),c,w
 10361  0030A2  1029               iorwf	(??___flge+0+3),c,w
 10362  0030A4  102A               	btfss	status,2
 10363  0030A6  A4D8               	goto	u3191
 10364  0030A8  EF58  F018         	goto	u3190
 10365  0030AC  EF5B  F018         
 10366                           u3191:
 10367  0030B0                     	goto	l2971
 10368  0030B2  EF66  F018         u3190:
 10369  0030B6                     	line	10
 10370                           	
 10371                           l2969:
 10372  0030B8                     	movlw	low(0)
 10373  0030B8  0E00               	movwf	((c:___flge@ff2)),c
 10374  0030BA  6E23               	movlw	high(0)
 10375  0030BC  0E00               	movwf	((c:___flge@ff2+1)),c
 10376  0030BE  6E24               	movlw	low highword(0)
 10377  0030C0  0E00               	movwf	((c:___flge@ff2+2)),c
 10378  0030C2  6E25               	movlw	high highword(0)
 10379  0030C4  0E00               	movwf	((c:___flge@ff2+3)),c
 10380  0030C6  6E26               	goto	l2971
 10381  0030C8  EF66  F018         	
 10382                           l473:
 10383  0030CC                     	line	12
 10384                           	
 10385                           l2971:
 10386  0030CC                     	
 10387                           	btfss	((c:___flge@ff1+3)),c,(31)&7
 10388  0030CE  AE22               	goto	u3201
 10389  0030D0  EF6C  F018         	goto	u3200
 10390  0030D4  EF6F  F018         u3201:
 10391  0030D8                     	goto	l2975
 10392  0030DA  EF8F  F018         u3200:
 10393  0030DE                     	line	13
 10394                           	
 10395                           l2973:
 10396  0030E0                     	movff	(c:___flge@ff1),??___flge+0+0
 10397  0030E0  C01F  F027         	movff	(c:___flge@ff1+1),??___flge+0+0+1
 10398  0030E4  C020  F028         	movff	(c:___flge@ff1+2),??___flge+0+0+2
 10399  0030E8  C021  F029         	movff	(c:___flge@ff1+3),??___flge+0+0+3
 10400  0030EC  C022  F02A         	comf	(??___flge+0+0),c
 10401  0030F0  1E27               	comf	(??___flge+0+1),c
 10402  0030F2  1E28               	comf	(??___flge+0+2),c
 10403  0030F4  1E29               	comf	(??___flge+0+3),c
 10404  0030F6  1E2A               	incf	(??___flge+0+0),c
 10405  0030F8  2A27               	movlw	0
 10406  0030FA  0E00               	addwfc	(??___flge+0+1),c
 10407  0030FC  2228               	addwfc	(??___flge+0+2),c
 10408  0030FE  2229               	addwfc	(??___flge+0+3),c
 10409  003100  222A               	movlw	0
 10410  003102  0E00               	addwf	(??___flge+0+0),c,w
 10411  003104  2427               	movwf	((c:___flge@ff1)),c
 10412  003106  6E1F               	movlw	0
 10413  003108  0E00               	addwfc	(??___flge+0+1),c,w
 10414  00310A  2028               	movwf	1+((c:___flge@ff1)),c
 10415  00310C  6E20               	
 10416                           	movlw	0
 10417  00310E  0E00               	addwfc	(??___flge+0+2),c,w
 10418  003110  2029               	movwf	2+((c:___flge@ff1)),c
 10419  003112  6E21               	
 10420                           	movlw	080h
 10421  003114  0E80               	addwfc	(??___flge+0+3),c,w
 10422  003116  202A               	movwf	3+((c:___flge@ff1)),c
 10423  003118  6E22               	goto	l2975
 10424  00311A  EF8F  F018         	
 10425                           l474:
 10426  00311E                     	line	14
 10427                           	
 10428                           l2975:
 10429  00311E                     	
 10430                           	btfss	((c:___flge@ff2+3)),c,(31)&7
 10431  003120  AE26               	goto	u3211
 10432  003122  EF95  F018         	goto	u3210
 10433  003126  EF98  F018         u3211:
 10434  00312A                     	goto	l475
 10435  00312C  EFB6  F018         u3210:
 10436  003130                     	line	15
 10437                           	
 10438                           l2977:
 10439  003132                     	movff	(c:___flge@ff2),??___flge+0+0
 10440  003132  C023  F027         	movff	(c:___flge@ff2+1),??___flge+0+0+1
 10441  003136  C024  F028         	movff	(c:___flge@ff2+2),??___flge+0+0+2
 10442  00313A  C025  F029         	movff	(c:___flge@ff2+3),??___flge+0+0+3
 10443  00313E  C026  F02A         	comf	(??___flge+0+0),c
 10444  003142  1E27               	comf	(??___flge+0+1),c
 10445  003144  1E28               	comf	(??___flge+0+2),c
 10446  003146  1E29               	comf	(??___flge+0+3),c
 10447  003148  1E2A               	incf	(??___flge+0+0),c
 10448  00314A  2A27               	movlw	0
 10449  00314C  0E00               	addwfc	(??___flge+0+1),c
 10450  00314E  2228               	addwfc	(??___flge+0+2),c
 10451  003150  2229               	addwfc	(??___flge+0+3),c
 10452  003152  222A               	movlw	0
 10453  003154  0E00               	addwf	(??___flge+0+0),c,w
 10454  003156  2427               	movwf	((c:___flge@ff2)),c
 10455  003158  6E23               	movlw	0
 10456  00315A  0E00               	addwfc	(??___flge+0+1),c,w
 10457  00315C  2028               	movwf	1+((c:___flge@ff2)),c
 10458  00315E  6E24               	
 10459                           	movlw	0
 10460  003160  0E00               	addwfc	(??___flge+0+2),c,w
 10461  003162  2029               	movwf	2+((c:___flge@ff2)),c
 10462  003164  6E25               	
 10463                           	movlw	080h
 10464  003166  0E80               	addwfc	(??___flge+0+3),c,w
 10465  003168  202A               	movwf	3+((c:___flge@ff2)),c
 10466  00316A  6E26               	
 10467                           l475:
 10468  00316C                     	line	16
 10469                           	movlw	0
 10470  00316E  0E00               	xorwf	((c:___flge@ff1)),c
 10471  003170  1A1F               	movlw	0
 10472  003172  0E00               	xorwf	((c:___flge@ff1+1)),c
 10473  003174  1A20               	movlw	0
 10474  003176  0E00               	xorwf	((c:___flge@ff1+2)),c
 10475  003178  1A21               	movlw	080h
 10476  00317A  0E80               	xorwf	((c:___flge@ff1+3)),c
 10477  00317C  1A22               	line	17
 10478                           	movlw	0
 10479  00317E  0E00               	xorwf	((c:___flge@ff2)),c
 10480  003180  1A23               	movlw	0
 10481  003182  0E00               	xorwf	((c:___flge@ff2+1)),c
 10482  003184  1A24               	movlw	0
 10483  003186  0E00               	xorwf	((c:___flge@ff2+2)),c
 10484  003188  1A25               	movlw	080h
 10485  00318A  0E80               	xorwf	((c:___flge@ff2+3)),c
 10486  00318C  1A26               	line	18
 10487                           		movf	((c:___flge@ff2)),c,w
 10488  00318E  5023               	subwf	((c:___flge@ff1)),c,w
 10489  003190  5C1F               	movf	((c:___flge@ff2+1)),c,w
 10490  003192  5024               	subwfb	((c:___flge@ff1+1)),c,w
 10491  003194  5820               	movf	((c:___flge@ff2+2)),c,w
 10492  003196  5025               	subwfb	((c:___flge@ff1+2)),c,w
 10493  003198  5821               	movf	((c:___flge@ff2+3)),c,w
 10494  00319A  5026               	subwfb	((c:___flge@ff1+3)),c,w
 10495  00319C  5822               	btfsc	status,0
 10496  00319E  B0D8               	goto	u3221
 10497  0031A0  EFD4  F018         	goto	u3220
 10498  0031A4  EFD7  F018         
 10499                           u3221:
 10500  0031A8                     	goto	l2981
 10501  0031AA  EFDB  F018         u3220:
 10502  0031AE                     	
 10503                           l2979:
 10504  0031B0                     	bcf	status,0
 10505  0031B0  90D8               	goto	l476
 10506  0031B2  EFE1  F018         	
 10507                           l2227:
 10508  0031B6                     	
 10509                           l2981:
 10510  0031B6                     	bsf	status,0
 10511  0031B8  80D8               	goto	l476
 10512  0031BA  EFE1  F018         	
 10513                           l2229:
 10514  0031BE                     	goto	l476
 10515  0031BE  EFE1  F018         	
 10516                           l2983:
 10517  0031C2                     	line	19
 10518                           	
 10519                           l476:
 10520  0031C2                     	return	;funcret
 10521  0031C4  0012               	dw	0FFFFh; errata NOP
 10522  0031C6  FFFF               	opt stack 0
 10523                           GLOBAL	__end_of___flge
 10524                           	__end_of___flge:
 10525  0031C8                     	signat	___flge,8312
 10526                           	global	___fleq
 10527                           
 10528 ;; *************** function ___fleq *****************
 10529 ;; Defined at:
 10530 ;;		line 4 in file "C:\Program Files (x86)\Microchip\xc8\v2.00\pic\sources\c90\common\fleq.c"
 10531 ;; Parameters:    Size  Location     Type
 10532 ;;  ff1             4   30[COMRAM] unsigned char 
 10533 ;;  ff2             4   34[COMRAM] unsigned char 
 10534 ;; Auto vars:     Size  Location     Type
 10535 ;;		None
 10536 ;; Return value:  Size  Location     Type
 10537 ;;		None               void
 10538 ;; Registers used:
 10539 ;;		wreg, status,2, status,0
 10540 ;; Tracked objects:
 10541 ;;		On entry : 0/0
 10542 ;;		On exit  : 0/0
 10543 ;;		Unchanged: 0/0
 10544 ;; Data sizes:     COMRAM   BANK0   BANK1   BANK2   BANK3   BANK4   BANK5
 10545 ;;      Params:         8       0       0       0       0       0       0
 10546 ;;      Locals:         0       0       0       0       0       0       0
 10547 ;;      Temps:          4       0       0       0       0       0       0
 10548 ;;      Totals:        12       0       0       0       0       0       0
 10549 ;;Total ram usage:       12 bytes
 10550 ;; Hardware stack levels used:    1
 10551 ;; Hardware stack levels required when called:    3
 10552 ;; This function calls:
 10553 ;;		Nothing
 10554 ;; This function is called by:
 10555 ;;		_printf
 10556 ;; This function uses a non-reentrant model
 10557 ;;
 10558                           psect	text22,class=CODE,space=0,reloc=2,group=1
 10559                           	file	"C:\Program Files (x86)\Microchip\xc8\v2.00\pic\sources\c90\common\fleq.c"
 10560                           	line	4
 10561                           global __ptext22
 10562                           __ptext22:
 10563  00379E                     psect	text22
 10564                           	file	"C:\Program Files (x86)\Microchip\xc8\v2.00\pic\sources\c90\common\fleq.c"
 10565                           	line	4
 10566                           	global	__size_of___fleq
 10567                           	__size_of___fleq	equ	__end_of___fleq-___fleq
 10568  0000                     	
 10569                           ___fleq:
 10570  00379E                     ;incstack = 0
 10571                           	opt	stack 26
 10572                           	line	7
 10573                           	
 10574                           l2947:
 10575  0037A0                     	movlw	0
 10576  0037A0  0E00               	andwf	((c:___fleq@ff1)),c,w
 10577  0037A2  141F               	movwf	(??___fleq+0+0)&0ffh,c
 10578  0037A4  6E27               	movlw	0
 10579  0037A6  0E00               	andwf	((c:___fleq@ff1+1)),c,w
 10580  0037A8  1420               	movwf	1+(??___fleq+0+0)&0ffh,c
 10581  0037AA  6E28               	
 10582                           	movlw	080h
 10583  0037AC  0E80               	andwf	((c:___fleq@ff1+2)),c,w
 10584  0037AE  1421               	movwf	2+(??___fleq+0+0)&0ffh,c
 10585  0037B0  6E29               	
 10586                           	movlw	07Fh
 10587  0037B2  0E7F               	andwf	((c:___fleq@ff1+3)),c,w
 10588  0037B4  1422               	movwf	3+(??___fleq+0+0)&0ffh,c
 10589  0037B6  6E2A               	movf	(??___fleq+0+0),c,w
 10590  0037B8  5027               iorwf	(??___fleq+0+1),c,w
 10591  0037BA  1028               iorwf	(??___fleq+0+2),c,w
 10592  0037BC  1029               iorwf	(??___fleq+0+3),c,w
 10593  0037BE  102A               	btfss	status,2
 10594  0037C0  A4D8               	goto	u3151
 10595  0037C2  EFE5  F01B         	goto	u3150
 10596  0037C6  EFE8  F01B         
 10597                           u3151:
 10598  0037CA                     	goto	l2951
 10599  0037CC  EFF3  F01B         u3150:
 10600  0037D0                     	line	8
 10601                           	
 10602                           l2949:
 10603  0037D2                     	movlw	low(0)
 10604  0037D2  0E00               	movwf	((c:___fleq@ff1)),c
 10605  0037D4  6E1F               	movlw	high(0)
 10606  0037D6  0E00               	movwf	((c:___fleq@ff1+1)),c
 10607  0037D8  6E20               	movlw	low highword(0)
 10608  0037DA  0E00               	movwf	((c:___fleq@ff1+2)),c
 10609  0037DC  6E21               	movlw	high highword(0)
 10610  0037DE  0E00               	movwf	((c:___fleq@ff1+3)),c
 10611  0037E0  6E22               	goto	l2951
 10612  0037E2  EFF3  F01B         	
 10613                           l467:
 10614  0037E6                     	line	9
 10615                           	
 10616                           l2951:
 10617  0037E6                     	movlw	0
 10618  0037E8  0E00               	andwf	((c:___fleq@ff2)),c,w
 10619  0037EA  1423               	movwf	(??___fleq+0+0)&0ffh,c
 10620  0037EC  6E27               	movlw	0
 10621  0037EE  0E00               	andwf	((c:___fleq@ff2+1)),c,w
 10622  0037F0  1424               	movwf	1+(??___fleq+0+0)&0ffh,c
 10623  0037F2  6E28               	
 10624                           	movlw	080h
 10625  0037F4  0E80               	andwf	((c:___fleq@ff2+2)),c,w
 10626  0037F6  1425               	movwf	2+(??___fleq+0+0)&0ffh,c
 10627  0037F8  6E29               	
 10628                           	movlw	07Fh
 10629  0037FA  0E7F               	andwf	((c:___fleq@ff2+3)),c,w
 10630  0037FC  1426               	movwf	3+(??___fleq+0+0)&0ffh,c
 10631  0037FE  6E2A               	movf	(??___fleq+0+0),c,w
 10632  003800  5027               iorwf	(??___fleq+0+1),c,w
 10633  003802  1028               iorwf	(??___fleq+0+2),c,w
 10634  003804  1029               iorwf	(??___fleq+0+3),c,w
 10635  003806  102A               	btfss	status,2
 10636  003808  A4D8               	goto	u3161
 10637  00380A  EF09  F01C         	goto	u3160
 10638  00380E  EF0C  F01C         
 10639                           u3161:
 10640  003812                     	goto	l2955
 10641  003814  EF17  F01C         u3160:
 10642  003818                     	line	10
 10643                           	
 10644                           l2953:
 10645  00381A                     	movlw	low(0)
 10646  00381A  0E00               	movwf	((c:___fleq@ff2)),c
 10647  00381C  6E23               	movlw	high(0)
 10648  00381E  0E00               	movwf	((c:___fleq@ff2+1)),c
 10649  003820  6E24               	movlw	low highword(0)
 10650  003822  0E00               	movwf	((c:___fleq@ff2+2)),c
 10651  003824  6E25               	movlw	high highword(0)
 10652  003826  0E00               	movwf	((c:___fleq@ff2+3)),c
 10653  003828  6E26               	goto	l2955
 10654  00382A  EF17  F01C         	
 10655                           l468:
 10656  00382E                     	line	11
 10657                           	
 10658                           l2955:
 10659  00382E                     	movf	((c:___fleq@ff2)),c,w
 10660  003830  5023               xorwf	((c:___fleq@ff1)),c,w
 10661  003832  181F               	bnz	u3170
 10662  003834  E110               movf	((c:___fleq@ff2+1)),c,w
 10663  003836  5024               xorwf	((c:___fleq@ff1+1)),c,w
 10664  003838  1820               	bnz	u3170
 10665  00383A  E10D               movf	((c:___fleq@ff2+2)),c,w
 10666  00383C  5025               xorwf	((c:___fleq@ff1+2)),c,w
 10667  00383E  1821               	bnz	u3170
 10668  003840  E10A               movf	((c:___fleq@ff2+3)),c,w
 10669  003842  5026               xorwf	((c:___fleq@ff1+3)),c,w
 10670  003844  1822               	btfsc	status,2
 10671  003846  B4D8               	goto	u3171
 10672  003848  EF28  F01C         	goto	u3170
 10673  00384C  EF2B  F01C         
 10674                           u3171:
 10675  003850                     	goto	l2959
 10676  003852  EF2F  F01C         u3170:
 10677  003856                     	
 10678                           l2957:
 10679  003858                     	bcf	status,0
 10680  003858  90D8               	goto	l469
 10681  00385A  EF35  F01C         	
 10682                           l2223:
 10683  00385E                     	
 10684                           l2959:
 10685  00385E                     	bsf	status,0
 10686  003860  80D8               	goto	l469
 10687  003862  EF35  F01C         	
 10688                           l2225:
 10689  003866                     	goto	l469
 10690  003866  EF35  F01C         	
 10691                           l2961:
 10692  00386A                     	line	12
 10693                           	
 10694                           l469:
 10695  00386A                     	return	;funcret
 10696  00386C  0012               	dw	0FFFFh; errata NOP
 10697  00386E  FFFF               	opt stack 0
 10698                           GLOBAL	__end_of___fleq
 10699                           	__end_of___fleq:
 10700  003870                     	signat	___fleq,8312
 10701                           	global	_enable_timer
 10702                           
 10703 ;; *************** function _enable_timer *****************
 10704 ;; Defined at:
 10705 ;;		line 97 in file "HW2.c"
 10706 ;; Parameters:    Size  Location     Type
 10707 ;;		None
 10708 ;; Auto vars:     Size  Location     Type
 10709 ;;		None
 10710 ;; Return value:  Size  Location     Type
 10711 ;;                  1    wreg      void 
 10712 ;; Registers used:
 10713 ;;		None
 10714 ;; Tracked objects:
 10715 ;;		On entry : 0/0
 10716 ;;		On exit  : 0/0
 10717 ;;		Unchanged: 0/0
 10718 ;; Data sizes:     COMRAM   BANK0   BANK1   BANK2   BANK3   BANK4   BANK5
 10719 ;;      Params:         0       0       0       0       0       0       0
 10720 ;;      Locals:         0       0       0       0       0       0       0
 10721 ;;      Temps:          0       0       0       0       0       0       0
 10722 ;;      Totals:         0       0       0       0       0       0       0
 10723 ;;Total ram usage:        0 bytes
 10724 ;; Hardware stack levels used:    1
 10725 ;; Hardware stack levels required when called:    3
 10726 ;; This function calls:
 10727 ;;		Nothing
 10728 ;; This function is called by:
 10729 ;;		_main
 10730 ;; This function uses a non-reentrant model
 10731 ;;
 10732                           psect	text23,class=CODE,space=0,reloc=2,group=0
 10733                           	file	"HW2.c"
 10734                           	line	97
 10735                           global __ptext23
 10736                           __ptext23:
 10737  003C86                     psect	text23
 10738                           	file	"HW2.c"
 10739                           	line	97
 10740                           	global	__size_of_enable_timer
 10741                           	__size_of_enable_timer	equ	__end_of_enable_timer-_enable_timer
 10742  0000                     	
 10743                           _enable_timer:
 10744  003C86                     ;incstack = 0
 10745                           	opt	stack 27
 10746                           	line	98
 10747                           	
 10748                           l3145:
 10749  003C88                     ;HW2.c: 98: T3CONbits.TMR3ON = 1;
 10750                           	bsf	((c:4017)),c,0	;volatile
 10751  003C88  80B1               	line	99
 10752                           	
 10753                           l64:
 10754  003C8A                     	return	;funcret
 10755  003C8A  0012               	dw	0FFFFh; errata NOP
 10756  003C8C  FFFF               	opt stack 0
 10757                           GLOBAL	__end_of_enable_timer
 10758                           	__end_of_enable_timer:
 10759  003C8E                     	signat	_enable_timer,89
 10760                           	global	_Timer
 10761                           
 10762 ;; *************** function _Timer *****************
 10763 ;; Defined at:
 10764 ;;		line 82 in file "HW2.c"
 10765 ;; Parameters:    Size  Location     Type
 10766 ;;		None
 10767 ;; Auto vars:     Size  Location     Type
 10768 ;;		None
 10769 ;; Return value:  Size  Location     Type
 10770 ;;                  1    wreg      void 
 10771 ;; Registers used:
 10772 ;;		wreg, status,2, status,0, cstack
 10773 ;; Tracked objects:
 10774 ;;		On entry : 0/0
 10775 ;;		On exit  : 0/0
 10776 ;;		Unchanged: 0/0
 10777 ;; Data sizes:     COMRAM   BANK0   BANK1   BANK2   BANK3   BANK4   BANK5
 10778 ;;      Params:         0       0       0       0       0       0       0
 10779 ;;      Locals:         0       0       0       0       0       0       0
 10780 ;;      Temps:          0       0       0       0       0       0       0
 10781 ;;      Totals:         0       0       0       0       0       0       0
 10782 ;;Total ram usage:        0 bytes
 10783 ;; Hardware stack levels used:    1
 10784 ;; Hardware stack levels required when called:    2
 10785 ;; This function calls:
 10786 ;;		_show_freq
 10787 ;; This function is called by:
 10788 ;;		Interrupt level 2
 10789 ;; This function uses a non-reentrant model
 10790 ;;
 10791                           psect	intcode,class=CODE,space=0,reloc=2
 10792                           global __pintcode
 10793                           __pintcode:
 10794  000008                     psect	intcode
 10795                           	file	"HW2.c"
 10796                           	line	82
 10797                           	global	__size_of_Timer
 10798                           	__size_of_Timer	equ	__end_of_Timer-_Timer
 10799  0000                     	
 10800                           _Timer:
 10801  000008                     ;incstack = 0
 10802                           	opt	stack 25
 10803                           	bsf int$flags,1,c ;set compiler interrupt flag (level 2)
 10804  00000A  825F               	line	83
 10805                           	
 10806                           i2l3437:
 10807  00000C                     ;HW2.c: 83: if( (PIE1bits.CCP1IE == 1) && (PIR1bits.CCP1IF == 1) ){
 10808                           	btfss	((c:3997)),c,2	;volatile
 10809  00000C  A49D               	goto	i2u405_41
 10810  00000E  EF0B  F000         	goto	i2u405_40
 10811  000012  EF0E  F000         i2u405_41:
 10812  000016                     	goto	i2l58
 10813  000018  EF1D  F000         i2u405_40:
 10814  00001C                     	
 10815                           i2l3439:
 10816  00001E                     	btfss	((c:3998)),c,2	;volatile
 10817  00001E  A49E               	goto	i2u406_41
 10818  000020  EF14  F000         	goto	i2u406_40
 10819  000024  EF17  F000         i2u406_41:
 10820  000028                     	goto	i2l58
 10821  00002A  EF1D  F000         i2u406_40:
 10822  00002E                     	line	84
 10823                           	
 10824                           i2l3441:
 10825  000030                     ;HW2.c: 84: show_freq();
 10826                           	call	_show_freq	;wreg free
 10827  000030  EC2D  F01D         	line	85
 10828                           	
 10829                           i2l3443:
 10830  000034                     ;HW2.c: 85: PIR1bits.CCP1IF = 0;
 10831                           	bcf	((c:3998)),c,2	;volatile
 10832  000034  949E               	goto	i2l58
 10833  000036  EF1D  F000         	line	86
 10834                           	
 10835                           i2l57:
 10836  00003A                     	line	87
 10837                           	
 10838                           i2l58:
 10839  00003A                     	bcf int$flags,1,c ;clear compiler interrupt flag (level 2)
 10840  00003C  925F               	retfie f
 10841  00003E  0011               	dw	0FFFFh; errata NOP
 10842  000040  FFFF               	opt stack 0
 10843                           GLOBAL	__end_of_Timer
 10844                           	__end_of_Timer:
 10845  000042                     	signat	_Timer,89
 10846                           	global	_show_freq
 10847                           
 10848 ;; *************** function _show_freq *****************
 10849 ;; Defined at:
 10850 ;;		line 89 in file "HW2.c"
 10851 ;; Parameters:    Size  Location     Type
 10852 ;;		None
 10853 ;; Auto vars:     Size  Location     Type
 10854 ;;		None
 10855 ;; Return value:  Size  Location     Type
 10856 ;;                  1    wreg      void 
 10857 ;; Registers used:
 10858 ;;		wreg, status,2, status,0, cstack
 10859 ;; Tracked objects:
 10860 ;;		On entry : 0/0
 10861 ;;		On exit  : 0/0
 10862 ;;		Unchanged: 0/0
 10863 ;; Data sizes:     COMRAM   BANK0   BANK1   BANK2   BANK3   BANK4   BANK5
 10864 ;;      Params:         0       0       0       0       0       0       0
 10865 ;;      Locals:         0       0       0       0       0       0       0
 10866 ;;      Temps:          2       0       0       0       0       0       0
 10867 ;;      Totals:         2       0       0       0       0       0       0
 10868 ;;Total ram usage:        2 bytes
 10869 ;; Hardware stack levels used:    1
 10870 ;; Hardware stack levels required when called:    1
 10871 ;; This function calls:
 10872 ;;		___aldiv
 10873 ;;		i2___xxtofl
 10874 ;; This function is called by:
 10875 ;;		_Timer
 10876 ;; This function uses a non-reentrant model
 10877 ;;
 10878                           psect	text25,class=CODE,space=0,reloc=2,group=0
 10879                           	line	89
 10880                           global __ptext25
 10881                           __ptext25:
 10882  003A5A                     psect	text25
 10883                           	file	"HW2.c"
 10884                           	line	89
 10885                           	global	__size_of_show_freq
 10886                           	__size_of_show_freq	equ	__end_of_show_freq-_show_freq
 10887  0000                     	
 10888                           _show_freq:
 10889  003A5A                     ;incstack = 0
 10890                           	opt	stack 25
 10891                           	line	90
 10892                           	
 10893                           i2l3413:
 10894  003A5C                     ;HW2.c: 90: t2 = (CCPR1H << 8) + CCPR1L;
 10895                           	movf	((c:4031)),c,w	;volatile
 10896  003A5C  50BF               	movwf	(??_show_freq+0+0+1)&0ffh,c
 10897  003A5E  6E1E               	clrf	(??_show_freq+0+0)&0ffh,c
 10898  003A60  6A1D               	movf	((c:4030)),c,w	;volatile
 10899  003A62  50BE               	addwf	(??_show_freq+0+0),c,w
 10900  003A64  241D               	movwf	((c:_t2)),c
 10901  003A66  6E5B               	movlw	0
 10902  003A68  0E00               	addwfc	(??_show_freq+0+1),c,w
 10903  003A6A  201E               	movwf	1+((c:_t2)),c
 10904  003A6C  6E5C               	line	92
 10905                           	
 10906                           i2l3415:
 10907  003A6E                     ;HW2.c: 92: f = 1000000/(t2-t1);
 10908                           	movff	(c:_t1),??_show_freq+0+0
 10909  003A6E  C05D  F01D         	movff	(c:_t1+1),??_show_freq+0+0+1
 10910  003A72  C05E  F01E         	comf	(??_show_freq+0+0),c
 10911  003A76  1E1D               	comf	(??_show_freq+0+1),c
 10912  003A78  1E1E               	infsnz	(??_show_freq+0+0),c
 10913  003A7A  4A1D               	incf	(??_show_freq+0+1),c
 10914  003A7C  2A1E               	movf	((c:_t2)),c,w
 10915  003A7E  505B               	addwf	(??_show_freq+0+0),c
 10916  003A80  261D               	movf	((c:_t2+1)),c,w
 10917  003A82  505C               	addwfc	(??_show_freq+0+1),c
 10918  003A84  221E               	movff	??_show_freq+0+0,(c:___aldiv@divisor)
 10919  003A86  C01D  F005         	movff	??_show_freq+0+1,(c:___aldiv@divisor+1)
 10920  003A8A  C01E  F006         	clrf	((c:___aldiv@divisor+2)),c
 10921  003A8E  6A07               	clrf	((c:___aldiv@divisor+3)),c
 10922  003A90  6A08               
 10923                           	movlw	low(0F4240h)
 10924  003A92  0E40               	movwf	((c:___aldiv@dividend)),c
 10925  003A94  6E01               	movlw	high(0F4240h)
 10926  003A96  0E42               	movwf	((c:___aldiv@dividend+1)),c
 10927  003A98  6E02               	movlw	low highword(0F4240h)
 10928  003A9A  0E0F               	movwf	((c:___aldiv@dividend+2)),c
 10929  003A9C  6E03               	movlw	high highword(0F4240h)
 10930  003A9E  0E00               	movwf	((c:___aldiv@dividend+3)),c
 10931  003AA0  6E04               	call	___aldiv	;wreg free
 10932  003AA2  ECA5  F019         	movff	0+?___aldiv,(c:i2___xxtofl@val)
 10933  003AA6  C001  F00F         	movff	1+?___aldiv,(c:i2___xxtofl@val+1)
 10934  003AAA  C002  F010         	movff	2+?___aldiv,(c:i2___xxtofl@val+2)
 10935  003AAE  C003  F011         	movff	3+?___aldiv,(c:i2___xxtofl@val+3)
 10936  003AB2  C004  F012         	
 10937                           	movlw	(01h)&0ffh
 10938  003AB6  0E01               	
 10939                           	call	i2___xxtofl
 10940  003AB8  EC2A  F015         	movff	0+?i2___xxtofl,(_f)
 10941  003ABC  C00F  F0B9         	movff	1+?i2___xxtofl,(_f+1)
 10942  003AC0  C010  F0BA         	movff	2+?i2___xxtofl,(_f+2)
 10943  003AC4  C011  F0BB         	movff	3+?i2___xxtofl,(_f+3)
 10944  003AC8  C012  F0BC         	
 10945                           	line	93
 10946                           	
 10947                           i2l3417:
 10948  003ACC                     ;HW2.c: 93: t1 = t2;
 10949                           	movff	(c:_t2),(c:_t1)
 10950  003ACC  C05B  F05D         	movff	(c:_t2+1),(c:_t1+1)
 10951  003AD0  C05C  F05E         	line	94
 10952                           	
 10953                           i2l61:
 10954  003AD4                     	return	;funcret
 10955  003AD4  0012               	dw	0FFFFh; errata NOP
 10956  003AD6  FFFF               	opt stack 0
 10957                           GLOBAL	__end_of_show_freq
 10958                           	__end_of_show_freq:
 10959  003AD8                     	signat	_show_freq,89
 10960                           	global	i2___xxtofl
 10961                           
 10962 ;; *************** function i2___xxtofl *****************
 10963 ;; Defined at:
 10964 ;;		line 10 in file "C:\Program Files (x86)\Microchip\xc8\v2.00\pic\sources\c90\common\xxtofl.c"
 10965 ;; Parameters:    Size  Location     Type
 10966 ;;  sign            1    wreg     unsigned char 
 10967 ;;  val             4   14[COMRAM] long 
 10968 ;; Auto vars:     Size  Location     Type
 10969 ;;  sign            1   22[COMRAM] unsigned char 
 10970 ;;  __xxtofl        4   24[COMRAM] unsigned long 
 10971 ;;  __xxtofl        1   23[COMRAM] unsigned char 
 10972 ;; Return value:  Size  Location     Type
 10973 ;;                  4   14[COMRAM] unsigned char 
 10974 ;; Registers used:
 10975 ;;		wreg, status,2, status,0
 10976 ;; Tracked objects:
 10977 ;;		On entry : 0/0
 10978 ;;		On exit  : 0/0
 10979 ;;		Unchanged: 0/0
 10980 ;; Data sizes:     COMRAM   BANK0   BANK1   BANK2   BANK3   BANK4   BANK5
 10981 ;;      Params:         4       0       0       0       0       0       0
 10982 ;;      Locals:         6       0       0       0       0       0       0
 10983 ;;      Temps:          4       0       0       0       0       0       0
 10984 ;;      Totals:        14       0       0       0       0       0       0
 10985 ;;Total ram usage:       14 bytes
 10986 ;; Hardware stack levels used:    1
 10987 ;; This function calls:
 10988 ;;		Nothing
 10989 ;; This function is called by:
 10990 ;;		_show_freq
 10991 ;; This function uses a non-reentrant model
 10992 ;;
 10993                           psect	text26,class=CODE,space=0,reloc=2,group=0
 10994                           	file	"C:\Program Files (x86)\Microchip\xc8\v2.00\pic\sources\c90\common\xxtofl.c"
 10995                           	line	10
 10996                           global __ptext26
 10997                           __ptext26:
 10998  002A54                     psect	text26
 10999                           	file	"C:\Program Files (x86)\Microchip\xc8\v2.00\pic\sources\c90\common\xxtofl.c"
 11000                           	line	10
 11001                           	global	__size_ofi2___xxtofl
 11002                           	__size_ofi2___xxtofl	equ	__end_ofi2___xxtofl-i2___xxtofl
 11003  0000                     	
 11004                           i2___xxtofl:
 11005  002A54                     ;incstack = 0
 11006                           	opt	stack 25
 11007                           ;i2___xxtofl@sign stored from wreg
 11008                           	movwf	((c:i2___xxtofl@sign)),c
 11009  002A56  6E17               	line	15
 11010                           	
 11011                           i2l3099:
 11012  002A58                     	movf	((c:i2___xxtofl@sign)),c,w
 11013  002A58  5017               	btfsc	status,2
 11014  002A5A  B4D8               	goto	i2u344_41
 11015  002A5C  EF32  F015         	goto	i2u344_40
 11016  002A60  EF35  F015         i2u344_41:
 11017  002A64                     	goto	i2l874
 11018  002A66  EF5A  F015         i2u344_40:
 11019  002A6A                     	
 11020                           i2l3101:
 11021  002A6C                     	btfsc	((c:i2___xxtofl@val+3)),c,7
 11022  002A6C  BE12               	goto	i2u345_40
 11023  002A6E  EF3E  F015         	goto	i2u345_41
 11024  002A72  EF3B  F015         
 11025                           i2u345_41:
 11026  002A76                     	goto	i2l874
 11027  002A78  EF5A  F015         i2u345_40:
 11028  002A7C                     	line	16
 11029                           	
 11030                           i2l3103:
 11031  002A7E                     	movff	(c:i2___xxtofl@val),??i2___xxtofl+0+0
 11032  002A7E  C00F  F013         	movff	(c:i2___xxtofl@val+1),??i2___xxtofl+0+0+1
 11033  002A82  C010  F014         	movff	(c:i2___xxtofl@val+2),??i2___xxtofl+0+0+2
 11034  002A86  C011  F015         	movff	(c:i2___xxtofl@val+3),??i2___xxtofl+0+0+3
 11035  002A8A  C012  F016         	comf	(??i2___xxtofl+0+0),c
 11036  002A8E  1E13               	comf	(??i2___xxtofl+0+1),c
 11037  002A90  1E14               	comf	(??i2___xxtofl+0+2),c
 11038  002A92  1E15               	comf	(??i2___xxtofl+0+3),c
 11039  002A94  1E16               	incf	(??i2___xxtofl+0+0),c
 11040  002A96  2A13               	movlw	0
 11041  002A98  0E00               	addwfc	(??i2___xxtofl+0+1),c
 11042  002A9A  2214               	addwfc	(??i2___xxtofl+0+2),c
 11043  002A9C  2215               	addwfc	(??i2___xxtofl+0+3),c
 11044  002A9E  2216               	movff	??i2___xxtofl+0+0,(c:i2___xxtofl@arg)
 11045  002AA0  C013  F019         	movff	??i2___xxtofl+0+1,(c:i2___xxtofl@arg+1)
 11046  002AA4  C014  F01A         	movff	??i2___xxtofl+0+2,(c:i2___xxtofl@arg+2)
 11047  002AA8  C015  F01B         	movff	??i2___xxtofl+0+3,(c:i2___xxtofl@arg+3)
 11048  002AAC  C016  F01C         	line	17
 11049                           	goto	i2l3105
 11050  002AB0  EF65  F015         	line	18
 11051                           	
 11052                           i2l874:
 11053  002AB4                     	line	19
 11054                           	movff	(c:i2___xxtofl@val),(c:i2___xxtofl@arg)
 11055  002AB6  C00F  F019         	movff	(c:i2___xxtofl@val+1),(c:i2___xxtofl@arg+1)
 11056  002ABA  C010  F01A         	movff	(c:i2___xxtofl@val+2),(c:i2___xxtofl@arg+2)
 11057  002ABE  C011  F01B         	movff	(c:i2___xxtofl@val+3),(c:i2___xxtofl@arg+3)
 11058  002AC2  C012  F01C         	goto	i2l3105
 11059  002AC6  EF65  F015         	line	20
 11060                           	
 11061                           i2l875:
 11062  002ACA                     	line	21
 11063                           	
 11064                           i2l3105:
 11065  002ACA                     	movf	((c:i2___xxtofl@val)),c,w
 11066  002ACC  500F               iorwf	((c:i2___xxtofl@val+1)),c,w
 11067  002ACE  1010               iorwf	((c:i2___xxtofl@val+2)),c,w
 11068  002AD0  1011               iorwf	((c:i2___xxtofl@val+3)),c,w
 11069  002AD2  1012               	btfss	status,2
 11070  002AD4  A4D8               	goto	i2u346_41
 11071  002AD6  EF6F  F015         	goto	i2u346_40
 11072  002ADA  EF72  F015         
 11073                           i2u346_41:
 11074  002ADE                     	goto	i2l3111
 11075  002AE0  EF7F  F015         i2u346_40:
 11076  002AE4                     	line	22
 11077                           	
 11078                           i2l3107:
 11079  002AE6                     	movlw	low(normalize32(0x0))
 11080  002AE6  0E00               	movwf	((c:?i2___xxtofl)),c
 11081  002AE8  6E0F               	movlw	high(normalize32(0x0))
 11082  002AEA  0E00               	movwf	((c:?i2___xxtofl+1)),c
 11083  002AEC  6E10               	movlw	low highword(normalize32(0x0))
 11084  002AEE  0E00               	movwf	((c:?i2___xxtofl+2)),c
 11085  002AF0  6E11               	movlw	high highword(normalize32(0x0))
 11086  002AF2  0E00               	movwf	((c:?i2___xxtofl+3)),c
 11087  002AF4  6E12               	goto	i2l877
 11088  002AF6  EF38  F016         	
 11089                           i2l3109:
 11090  002AFA                     	goto	i2l877
 11091  002AFA  EF38  F016         	
 11092                           i2l876:
 11093  002AFE                     	line	23
 11094                           	
 11095                           i2l3111:
 11096  002AFE                     	movlw	low(096h)
 11097  002B00  0E96               	movwf	((c:i2___xxtofl@exp)),c
 11098  002B02  6E18               	line	24
 11099                           	goto	i2l3115
 11100  002B04  EF8D  F015         	
 11101                           i2l879:
 11102  002B08                     	line	25
 11103                           	
 11104                           i2l3113:
 11105  002B08                     	incf	((c:i2___xxtofl@exp)),c
 11106  002B0A  2A18               	line	26
 11107                           	bcf	status,0
 11108  002B0C  90D8               	rrcf	((c:i2___xxtofl@arg+3)),c
 11109  002B0E  321C               	rrcf	((c:i2___xxtofl@arg+2)),c
 11110  002B10  321B               	rrcf	((c:i2___xxtofl@arg+1)),c
 11111  002B12  321A               	rrcf	((c:i2___xxtofl@arg)),c
 11112  002B14  3219               	goto	i2l3115
 11113  002B16  EF8D  F015         	line	27
 11114                           	
 11115                           i2l878:
 11116  002B1A                     	line	24
 11117                           	
 11118                           i2l3115:
 11119  002B1A                     	movlw	0
 11120  002B1C  0E00               	andwf	((c:i2___xxtofl@arg)),c,w
 11121  002B1E  1419               	movwf	(??i2___xxtofl+0+0)&0ffh,c
 11122  002B20  6E13               	movlw	0
 11123  002B22  0E00               	andwf	((c:i2___xxtofl@arg+1)),c,w
 11124  002B24  141A               	movwf	1+(??i2___xxtofl+0+0)&0ffh,c
 11125  002B26  6E14               	
 11126                           	movlw	0
 11127  002B28  0E00               	andwf	((c:i2___xxtofl@arg+2)),c,w
 11128  002B2A  141B               	movwf	2+(??i2___xxtofl+0+0)&0ffh,c
 11129  002B2C  6E15               	
 11130                           	movlw	0FEh
 11131  002B2E  0EFE               	andwf	((c:i2___xxtofl@arg+3)),c,w
 11132  002B30  141C               	movwf	3+(??i2___xxtofl+0+0)&0ffh,c
 11133  002B32  6E16               	movf	(??i2___xxtofl+0+0),c,w
 11134  002B34  5013               iorwf	(??i2___xxtofl+0+1),c,w
 11135  002B36  1014               iorwf	(??i2___xxtofl+0+2),c,w
 11136  002B38  1015               iorwf	(??i2___xxtofl+0+3),c,w
 11137  002B3A  1016               	btfss	status,2
 11138  002B3C  A4D8               	goto	i2u347_41
 11139  002B3E  EFA3  F015         	goto	i2u347_40
 11140  002B42  EFA6  F015         
 11141                           i2u347_41:
 11142  002B46                     	goto	i2l3113
 11143  002B48  EF84  F015         i2u347_40:
 11144  002B4C                     	goto	i2l881
 11145  002B4E  EFB8  F015         	
 11146                           i2l880:
 11147  002B52                     	line	28
 11148                           	goto	i2l881
 11149  002B52  EFB8  F015         	
 11150                           i2l882:
 11151  002B56                     	line	29
 11152                           	
 11153                           i2l3117:
 11154  002B56                     	incf	((c:i2___xxtofl@exp)),c
 11155  002B58  2A18               	line	30
 11156                           	
 11157                           i2l3119:
 11158  002B5A                     	movlw	low(01h)
 11159  002B5A  0E01               	addwf	((c:i2___xxtofl@arg)),c
 11160  002B5C  2619               	movlw	0
 11161  002B5E  0E00               	addwfc	((c:i2___xxtofl@arg+1)),c
 11162  002B60  221A               	addwfc	((c:i2___xxtofl@arg+2)),c
 11163  002B62  221B               	addwfc	((c:i2___xxtofl@arg+3)),c
 11164  002B64  221C               	line	31
 11165                           	
 11166                           i2l3121:
 11167  002B66                     	bcf	status,0
 11168  002B66  90D8               	rrcf	((c:i2___xxtofl@arg+3)),c
 11169  002B68  321C               	rrcf	((c:i2___xxtofl@arg+2)),c
 11170  002B6A  321B               	rrcf	((c:i2___xxtofl@arg+1)),c
 11171  002B6C  321A               	rrcf	((c:i2___xxtofl@arg)),c
 11172  002B6E  3219               	line	32
 11173                           	
 11174                           i2l881:
 11175  002B70                     	line	28
 11176                           	movlw	0
 11177  002B72  0E00               	andwf	((c:i2___xxtofl@arg)),c,w
 11178  002B74  1419               	movwf	(??i2___xxtofl+0+0)&0ffh,c
 11179  002B76  6E13               	movlw	0
 11180  002B78  0E00               	andwf	((c:i2___xxtofl@arg+1)),c,w
 11181  002B7A  141A               	movwf	1+(??i2___xxtofl+0+0)&0ffh,c
 11182  002B7C  6E14               	
 11183                           	movlw	0
 11184  002B7E  0E00               	andwf	((c:i2___xxtofl@arg+2)),c,w
 11185  002B80  141B               	movwf	2+(??i2___xxtofl+0+0)&0ffh,c
 11186  002B82  6E15               	
 11187                           	movlw	0FFh
 11188  002B84  0EFF               	andwf	((c:i2___xxtofl@arg+3)),c,w
 11189  002B86  141C               	movwf	3+(??i2___xxtofl+0+0)&0ffh,c
 11190  002B88  6E16               	movf	(??i2___xxtofl+0+0),c,w
 11191  002B8A  5013               iorwf	(??i2___xxtofl+0+1),c,w
 11192  002B8C  1014               iorwf	(??i2___xxtofl+0+2),c,w
 11193  002B8E  1015               iorwf	(??i2___xxtofl+0+3),c,w
 11194  002B90  1016               	btfss	status,2
 11195  002B92  A4D8               	goto	i2u348_41
 11196  002B94  EFCE  F015         	goto	i2u348_40
 11197  002B98  EFD1  F015         
 11198                           i2u348_41:
 11199  002B9C                     	goto	i2l3117
 11200  002B9E  EFAB  F015         i2u348_40:
 11201  002BA2                     	goto	i2l3125
 11202  002BA4  EFDF  F015         	
 11203                           i2l883:
 11204  002BA8                     	line	33
 11205                           	goto	i2l3125
 11206  002BA8  EFDF  F015         	
 11207                           i2l885:
 11208  002BAC                     	line	34
 11209                           	
 11210                           i2l3123:
 11211  002BAC                     	decf	((c:i2___xxtofl@exp)),c
 11212  002BAE  0618               	line	35
 11213                           	bcf	status,0
 11214  002BB0  90D8               	rlcf	((c:i2___xxtofl@arg)),c
 11215  002BB2  3619               	rlcf	((c:i2___xxtofl@arg+1)),c
 11216  002BB4  361A               	rlcf	((c:i2___xxtofl@arg+2)),c
 11217  002BB6  361B               	rlcf	((c:i2___xxtofl@arg+3)),c
 11218  002BB8  361C               	goto	i2l3125
 11219  002BBA  EFDF  F015         	line	36
 11220                           	
 11221                           i2l884:
 11222  002BBE                     	line	33
 11223                           	
 11224                           i2l3125:
 11225  002BBE                     	
 11226                           	btfsc	((c:i2___xxtofl@arg+2)),c,(23)&7
 11227  002BC0  BE1B               	goto	i2u349_41
 11228  002BC2  EFE5  F015         	goto	i2u349_40
 11229  002BC6  EFE8  F015         i2u349_41:
 11230  002BCA                     	goto	i2l888
 11231  002BCC  EFF5  F015         i2u349_40:
 11232  002BD0                     	
 11233                           i2l3127:
 11234  002BD2                     		movlw	02h-0
 11235  002BD2  0E02               	cpfslt	((c:i2___xxtofl@exp)),c
 11236  002BD4  6018               	goto	i2u350_41
 11237  002BD6  EFEF  F015         	goto	i2u350_40
 11238  002BDA  EFF2  F015         
 11239                           i2u350_41:
 11240  002BDE                     	goto	i2l3123
 11241  002BE0  EFD6  F015         i2u350_40:
 11242  002BE4                     	goto	i2l888
 11243  002BE6  EFF5  F015         	
 11244                           i2l887:
 11245  002BEA                     	
 11246                           i2l888:
 11247  002BEA                     	line	37
 11248                           	
 11249                           	btfsc	((c:i2___xxtofl@exp)),c,(0)&7
 11250  002BEC  B018               	goto	i2u351_41
 11251  002BEE  EFFB  F015         	goto	i2u351_40
 11252  002BF2  EFFE  F015         i2u351_41:
 11253  002BF6                     	goto	i2l3131
 11254  002BF8  EF02  F016         i2u351_40:
 11255  002BFC                     	line	38
 11256                           	
 11257                           i2l3129:
 11258  002BFE                     	bcf	(0+(23/8)+(c:i2___xxtofl@arg)),c,(23)&7
 11259  002BFE  9E1B               	goto	i2l3131
 11260  002C00  EF02  F016         	
 11261                           i2l889:
 11262  002C04                     	line	39
 11263                           	
 11264                           i2l3131:
 11265  002C04                     	bcf status,0
 11266  002C06  90D8               	rrcf	((c:i2___xxtofl@exp)),c
 11267  002C08  3218               
 11268                           	line	40
 11269                           	
 11270                           i2l3133:
 11271  002C0A                     	movff	(c:i2___xxtofl@exp),??i2___xxtofl+0+0
 11272  002C0A  C018  F013         	clrf	(??i2___xxtofl+0+0+1)&0ffh,c
 11273  002C0E  6A14               	clrf	(??i2___xxtofl+0+0+2)&0ffh,c
 11274  002C10  6A15               	clrf	(??i2___xxtofl+0+0+3)&0ffh,c
 11275  002C12  6A16               	movff	??i2___xxtofl+0+0,??i2___xxtofl+0+3
 11276  002C14  C013  F016         	clrf	(??i2___xxtofl+0+2),c
 11277  002C18  6A15               	clrf	(??i2___xxtofl+0+1),c
 11278  002C1A  6A14               	clrf	(??i2___xxtofl+0+0),c
 11279  002C1C  6A13               	movf	(??i2___xxtofl+0+0),c,w
 11280  002C1E  5013               	iorwf	((c:i2___xxtofl@arg)),c
 11281  002C20  1219               	movf	(??i2___xxtofl+0+1),c,w
 11282  002C22  5014               	iorwf	((c:i2___xxtofl@arg+1)),c
 11283  002C24  121A               	movf	(??i2___xxtofl+0+2),c,w
 11284  002C26  5015               	iorwf	((c:i2___xxtofl@arg+2)),c
 11285  002C28  121B               	movf	(??i2___xxtofl+0+3),c,w
 11286  002C2A  5016               	iorwf	((c:i2___xxtofl@arg+3)),c
 11287  002C2C  121C               
 11288                           	line	41
 11289                           	
 11290                           i2l3135:
 11291  002C2E                     	movf	((c:i2___xxtofl@sign)),c,w
 11292  002C2E  5017               	btfsc	status,2
 11293  002C30  B4D8               	goto	i2u352_41
 11294  002C32  EF1D  F016         	goto	i2u352_40
 11295  002C36  EF20  F016         i2u352_41:
 11296  002C3A                     	goto	i2l3141
 11297  002C3C  EF2D  F016         i2u352_40:
 11298  002C40                     	
 11299                           i2l3137:
 11300  002C42                     	btfsc	((c:i2___xxtofl@val+3)),c,7
 11301  002C42  BE12               	goto	i2u353_40
 11302  002C44  EF29  F016         	goto	i2u353_41
 11303  002C48  EF26  F016         
 11304                           i2u353_41:
 11305  002C4C                     	goto	i2l3141
 11306  002C4E  EF2D  F016         i2u353_40:
 11307  002C52                     	line	42
 11308                           	
 11309                           i2l3139:
 11310  002C54                     	bsf	(0+(31/8)+(c:i2___xxtofl@arg)),c,(31)&7
 11311  002C54  8E1C               	goto	i2l3141
 11312  002C56  EF2D  F016         	
 11313                           i2l890:
 11314  002C5A                     	line	43
 11315                           	
 11316                           i2l3141:
 11317  002C5A                     	movff	(c:i2___xxtofl@arg),(c:?i2___xxtofl)
 11318  002C5C  C019  F00F         	movff	(c:i2___xxtofl@arg+1),(c:?i2___xxtofl+1)
 11319  002C60  C01A  F010         	movff	(c:i2___xxtofl@arg+2),(c:?i2___xxtofl+2)
 11320  002C64  C01B  F011         	movff	(c:i2___xxtofl@arg+3),(c:?i2___xxtofl+3)
 11321  002C68  C01C  F012         	goto	i2l877
 11322  002C6C  EF38  F016         	
 11323                           i2l3143:
 11324  002C70                     	line	44
 11325                           	
 11326                           i2l877:
 11327  002C70                     	return	;funcret
 11328  002C72  0012               	dw	0FFFFh; errata NOP
 11329  002C74  FFFF               	opt stack 0
 11330                           GLOBAL	__end_ofi2___xxtofl
 11331                           	__end_ofi2___xxtofl:
 11332  002C76                     	signat	i2___xxtofl,92
 11333                           	global	___aldiv
 11334                           
 11335 ;; *************** function ___aldiv *****************
 11336 ;; Defined at:
 11337 ;;		line 7 in file "C:\Program Files (x86)\Microchip\xc8\v2.00\pic\sources\c90\common\aldiv.c"
 11338 ;; Parameters:    Size  Location     Type
 11339 ;;  dividend        4    0[COMRAM] long 
 11340 ;;  divisor         4    4[COMRAM] long 
 11341 ;; Auto vars:     Size  Location     Type
 11342 ;;  quotient        4   10[COMRAM] long 
 11343 ;;  sign            1    9[COMRAM] unsigned char 
 11344 ;;  counter         1    8[COMRAM] unsigned char 
 11345 ;; Return value:  Size  Location     Type
 11346 ;;                  4    0[COMRAM] long 
 11347 ;; Registers used:
 11348 ;;		wreg, status,2, status,0
 11349 ;; Tracked objects:
 11350 ;;		On entry : 0/0
 11351 ;;		On exit  : 0/0
 11352 ;;		Unchanged: 0/0
 11353 ;; Data sizes:     COMRAM   BANK0   BANK1   BANK2   BANK3   BANK4   BANK5
 11354 ;;      Params:         8       0       0       0       0       0       0
 11355 ;;      Locals:         6       0       0       0       0       0       0
 11356 ;;      Temps:          0       0       0       0       0       0       0
 11357 ;;      Totals:        14       0       0       0       0       0       0
 11358 ;;Total ram usage:       14 bytes
 11359 ;; Hardware stack levels used:    1
 11360 ;; This function calls:
 11361 ;;		Nothing
 11362 ;; This function is called by:
 11363 ;;		_show_freq
 11364 ;; This function uses a non-reentrant model
 11365 ;;
 11366                           psect	text27,class=CODE,space=0,reloc=2,group=1
 11367                           	file	"C:\Program Files (x86)\Microchip\xc8\v2.00\pic\sources\c90\common\aldiv.c"
 11368                           	line	7
 11369                           global __ptext27
 11370                           __ptext27:
 11371  00334A                     psect	text27
 11372                           	file	"C:\Program Files (x86)\Microchip\xc8\v2.00\pic\sources\c90\common\aldiv.c"
 11373                           	line	7
 11374                           	global	__size_of___aldiv
 11375                           	__size_of___aldiv	equ	__end_of___aldiv-___aldiv
 11376  0000                     	
 11377                           ___aldiv:
 11378  00334A                     ;incstack = 0
 11379                           	opt	stack 25
 11380                           	line	13
 11381                           	
 11382                           i2l2897:
 11383  00334C                     	movlw	low(0)
 11384  00334C  0E00               	movwf	((c:___aldiv@sign)),c
 11385  00334E  6E0A               	line	14
 11386                           	
 11387                           i2l2899:
 11388  003350                     	btfsc	((c:___aldiv@divisor+3)),c,7
 11389  003350  BE08               	goto	i2u309_40
 11390  003352  EFB0  F019         	goto	i2u309_41
 11391  003356  EFAD  F019         
 11392                           i2u309_41:
 11393  00335A                     	goto	i2l2905
 11394  00335C  EFBD  F019         i2u309_40:
 11395  003360                     	line	15
 11396                           	
 11397                           i2l2901:
 11398  003362                     	comf	((c:___aldiv@divisor+3)),c
 11399  003362  1E08               	comf	((c:___aldiv@divisor+2)),c
 11400  003364  1E07               	comf	((c:___aldiv@divisor+1)),c
 11401  003366  1E06               	negf	((c:___aldiv@divisor)),c
 11402  003368  6C05               	movlw	0
 11403  00336A  0E00               	addwfc	((c:___aldiv@divisor+1)),c
 11404  00336C  2206               	addwfc	((c:___aldiv@divisor+2)),c
 11405  00336E  2207               	addwfc	((c:___aldiv@divisor+3)),c
 11406  003370  2208               	line	16
 11407                           	
 11408                           i2l2903:
 11409  003372                     	movlw	low(01h)
 11410  003372  0E01               	movwf	((c:___aldiv@sign)),c
 11411  003374  6E0A               	goto	i2l2905
 11412  003376  EFBD  F019         	line	17
 11413                           	
 11414                           i2l266:
 11415  00337A                     	line	18
 11416                           	
 11417                           i2l2905:
 11418  00337A                     	btfsc	((c:___aldiv@dividend+3)),c,7
 11419  00337C  BE04               	goto	i2u310_40
 11420  00337E  EFC6  F019         	goto	i2u310_41
 11421  003382  EFC3  F019         
 11422                           i2u310_41:
 11423  003386                     	goto	i2l2911
 11424  003388  EFD3  F019         i2u310_40:
 11425  00338C                     	line	19
 11426                           	
 11427                           i2l2907:
 11428  00338E                     	comf	((c:___aldiv@dividend+3)),c
 11429  00338E  1E04               	comf	((c:___aldiv@dividend+2)),c
 11430  003390  1E03               	comf	((c:___aldiv@dividend+1)),c
 11431  003392  1E02               	negf	((c:___aldiv@dividend)),c
 11432  003394  6C01               	movlw	0
 11433  003396  0E00               	addwfc	((c:___aldiv@dividend+1)),c
 11434  003398  2202               	addwfc	((c:___aldiv@dividend+2)),c
 11435  00339A  2203               	addwfc	((c:___aldiv@dividend+3)),c
 11436  00339C  2204               	line	20
 11437                           	
 11438                           i2l2909:
 11439  00339E                     	movlw	(01h)&0ffh
 11440  00339E  0E01               	xorwf	((c:___aldiv@sign)),c
 11441  0033A0  1A0A               	goto	i2l2911
 11442  0033A2  EFD3  F019         	line	21
 11443                           	
 11444                           i2l267:
 11445  0033A6                     	line	22
 11446                           	
 11447                           i2l2911:
 11448  0033A6                     	movlw	low(0)
 11449  0033A8  0E00               	movwf	((c:___aldiv@quotient)),c
 11450  0033AA  6E0B               	movlw	high(0)
 11451  0033AC  0E00               	movwf	((c:___aldiv@quotient+1)),c
 11452  0033AE  6E0C               	movlw	low highword(0)
 11453  0033B0  0E00               	movwf	((c:___aldiv@quotient+2)),c
 11454  0033B2  6E0D               	movlw	high highword(0)
 11455  0033B4  0E00               	movwf	((c:___aldiv@quotient+3)),c
 11456  0033B6  6E0E               	line	23
 11457                           	
 11458                           i2l2913:
 11459  0033B8                     	movf	((c:___aldiv@divisor)),c,w
 11460  0033B8  5005               iorwf	((c:___aldiv@divisor+1)),c,w
 11461  0033BA  1006               iorwf	((c:___aldiv@divisor+2)),c,w
 11462  0033BC  1007               iorwf	((c:___aldiv@divisor+3)),c,w
 11463  0033BE  1008               	btfsc	status,2
 11464  0033C0  B4D8               	goto	i2u311_41
 11465  0033C2  EFE5  F019         	goto	i2u311_40
 11466  0033C6  EFE8  F019         
 11467                           i2u311_41:
 11468  0033CA                     	goto	i2l2933
 11469  0033CC  EF33  F01A         i2u311_40:
 11470  0033D0                     	line	24
 11471                           	
 11472                           i2l2915:
 11473  0033D2                     	movlw	low(01h)
 11474  0033D2  0E01               	movwf	((c:___aldiv@counter)),c
 11475  0033D4  6E09               	line	25
 11476                           	goto	i2l2919
 11477  0033D6  EFF6  F019         	
 11478                           i2l270:
 11479  0033DA                     	line	26
 11480                           	
 11481                           i2l2917:
 11482  0033DA                     	bcf	status,0
 11483  0033DC  90D8               	rlcf	((c:___aldiv@divisor)),c
 11484  0033DE  3605               	rlcf	((c:___aldiv@divisor+1)),c
 11485  0033E0  3606               	rlcf	((c:___aldiv@divisor+2)),c
 11486  0033E2  3607               	rlcf	((c:___aldiv@divisor+3)),c
 11487  0033E4  3608               	line	27
 11488                           	incf	((c:___aldiv@counter)),c
 11489  0033E6  2A09               	goto	i2l2919
 11490  0033E8  EFF6  F019         	line	28
 11491                           	
 11492                           i2l269:
 11493  0033EC                     	line	25
 11494                           	
 11495                           i2l2919:
 11496  0033EC                     	
 11497                           	btfss	((c:___aldiv@divisor+3)),c,(31)&7
 11498  0033EE  AE08               	goto	i2u312_41
 11499  0033F0  EFFC  F019         	goto	i2u312_40
 11500  0033F4  EFFF  F019         i2u312_41:
 11501  0033F8                     	goto	i2l2917
 11502  0033FA  EFED  F019         i2u312_40:
 11503  0033FE                     	goto	i2l2921
 11504  003400  EF04  F01A         	
 11505                           i2l271:
 11506  003404                     	goto	i2l2921
 11507  003404  EF04  F01A         	line	29
 11508                           	
 11509                           i2l272:
 11510  003408                     	line	30
 11511                           	
 11512                           i2l2921:
 11513  003408                     	bcf	status,0
 11514  00340A  90D8               	rlcf	((c:___aldiv@quotient)),c
 11515  00340C  360B               	rlcf	((c:___aldiv@quotient+1)),c
 11516  00340E  360C               	rlcf	((c:___aldiv@quotient+2)),c
 11517  003410  360D               	rlcf	((c:___aldiv@quotient+3)),c
 11518  003412  360E               	line	31
 11519                           	
 11520                           i2l2923:
 11521  003414                     		movf	((c:___aldiv@divisor)),c,w
 11522  003414  5005               	subwf	((c:___aldiv@dividend)),c,w
 11523  003416  5C01               	movf	((c:___aldiv@divisor+1)),c,w
 11524  003418  5006               	subwfb	((c:___aldiv@dividend+1)),c,w
 11525  00341A  5802               	movf	((c:___aldiv@divisor+2)),c,w
 11526  00341C  5007               	subwfb	((c:___aldiv@dividend+2)),c,w
 11527  00341E  5803               	movf	((c:___aldiv@divisor+3)),c,w
 11528  003420  5008               	subwfb	((c:___aldiv@dividend+3)),c,w
 11529  003422  5804               	btfss	status,0
 11530  003424  A0D8               	goto	i2u313_41
 11531  003426  EF17  F01A         	goto	i2u313_40
 11532  00342A  EF1A  F01A         
 11533                           i2u313_41:
 11534  00342E                     	goto	i2l2929
 11535  003430  EF26  F01A         i2u313_40:
 11536  003434                     	line	32
 11537                           	
 11538                           i2l2925:
 11539  003436                     	movf	((c:___aldiv@divisor)),c,w
 11540  003436  5005               	subwf	((c:___aldiv@dividend)),c
 11541  003438  5E01               	movf	((c:___aldiv@divisor+1)),c,w
 11542  00343A  5006               	subwfb	((c:___aldiv@dividend+1)),c
 11543  00343C  5A02               	movf	((c:___aldiv@divisor+2)),c,w
 11544  00343E  5007               	subwfb	((c:___aldiv@dividend+2)),c
 11545  003440  5A03               	movf	((c:___aldiv@divisor+3)),c,w
 11546  003442  5008               	subwfb	((c:___aldiv@dividend+3)),c
 11547  003444  5A04               	line	33
 11548                           	
 11549                           i2l2927:
 11550  003446                     	bsf	(0+(0/8)+(c:___aldiv@quotient)),c,(0)&7
 11551  003446  800B               	goto	i2l2929
 11552  003448  EF26  F01A         	line	34
 11553                           	
 11554                           i2l273:
 11555  00344C                     	line	35
 11556                           	
 11557                           i2l2929:
 11558  00344C                     	bcf	status,0
 11559  00344E  90D8               	rrcf	((c:___aldiv@divisor+3)),c
 11560  003450  3208               	rrcf	((c:___aldiv@divisor+2)),c
 11561  003452  3207               	rrcf	((c:___aldiv@divisor+1)),c
 11562  003454  3206               	rrcf	((c:___aldiv@divisor)),c
 11563  003456  3205               	line	36
 11564                           	
 11565                           i2l2931:
 11566  003458                     	decfsz	((c:___aldiv@counter)),c
 11567  003458  2E09               	
 11568                           	goto	i2l2921
 11569  00345A  EF04  F01A         	goto	i2l2933
 11570  00345E  EF33  F01A         	
 11571                           i2l274:
 11572  003462                     	goto	i2l2933
 11573  003462  EF33  F01A         	line	37
 11574                           	
 11575                           i2l268:
 11576  003466                     	line	38
 11577                           	
 11578                           i2l2933:
 11579  003466                     	movf	((c:___aldiv@sign)),c,w
 11580  003468  500A               	btfsc	status,2
 11581  00346A  B4D8               	goto	i2u314_41
 11582  00346C  EF3A  F01A         	goto	i2u314_40
 11583  003470  EF3D  F01A         i2u314_41:
 11584  003474                     	goto	i2l2937
 11585  003476  EF48  F01A         i2u314_40:
 11586  00347A                     	line	39
 11587                           	
 11588                           i2l2935:
 11589  00347C                     	comf	((c:___aldiv@quotient+3)),c
 11590  00347C  1E0E               	comf	((c:___aldiv@quotient+2)),c
 11591  00347E  1E0D               	comf	((c:___aldiv@quotient+1)),c
 11592  003480  1E0C               	negf	((c:___aldiv@quotient)),c
 11593  003482  6C0B               	movlw	0
 11594  003484  0E00               	addwfc	((c:___aldiv@quotient+1)),c
 11595  003486  220C               	addwfc	((c:___aldiv@quotient+2)),c
 11596  003488  220D               	addwfc	((c:___aldiv@quotient+3)),c
 11597  00348A  220E               	goto	i2l2937
 11598  00348C  EF48  F01A         	
 11599                           i2l275:
 11600  003490                     	line	40
 11601                           	
 11602                           i2l2937:
 11603  003490                     	movff	(c:___aldiv@quotient),(c:?___aldiv)
 11604  003492  C00B  F001         	movff	(c:___aldiv@quotient+1),(c:?___aldiv+1)
 11605  003496  C00C  F002         	movff	(c:___aldiv@quotient+2),(c:?___aldiv+2)
 11606  00349A  C00D  F003         	movff	(c:___aldiv@quotient+3),(c:?___aldiv+3)
 11607  00349E  C00E  F004         	goto	i2l276
 11608  0034A2  EF53  F01A         	
 11609                           i2l2939:
 11610  0034A6                     	line	41
 11611                           	
 11612                           i2l276:
 11613  0034A6                     	return	;funcret
 11614  0034A8  0012               	dw	0FFFFh; errata NOP
 11615  0034AA  FFFF               	opt stack 0
 11616                           GLOBAL	__end_of___aldiv
 11617                           	__end_of___aldiv:
 11618  0034AC                     	signat	___aldiv,8316
 11619                           psect	smallconst
 11620                           	db 0	; dummy byte at the end
 11621  00069F  00                 	global	__smallconst
 11622                           	global	__mediumconst
 11623                           	GLOBAL	__activetblptr
 11624                           __activetblptr	EQU	2
 11625  0000                     	psect	intsave_regs,class=BIGRAM,space=1,noexec
 11626                           	PSECT	rparam,class=COMRAM,space=1,noexec
 11627                           	GLOBAL	__Lrparam
 11628                           	FNCONF	rparam,??,?
 11629                           	GLOBAL	___rparam_used
 11630                           	___rparam_used EQU 1
 11631  0000                     	GLOBAL	___param_bank
 11632                           	___param_bank EQU 0
 11633  0000                     GLOBAL	__Lparam, __Hparam
 11634                           GLOBAL	__Lrparam, __Hrparam
 11635                           __Lparam	EQU	__Lrparam
 11636  0000                     __Hparam	EQU	__Hrparam
 11637  0000                            psect   temp,common,ovrld,class=COMRAM,space=1
 11638                           	global	btemp
 11639                           btemp:
 11640  00005F                     	ds	1
 11641  00005F                     	global	int$flags
 11642                           	int$flags	set btemp
 11643  0000                     	global	wtemp8
 11644                           	wtemp8 set btemp+1
 11645  0000                     	global	ttemp5
 11646                           	ttemp5 set btemp+1
 11647  0000                     	global	ttemp6
 11648                           	ttemp6 set btemp+4
 11649  0000                     	global	ttemp7
 11650                           	ttemp7 set btemp+8
 11651  0000                     	end
 11652  003B2A  FFFF               


Data Sizes:
    Strings     14
    Constant    144
    Data        0
    BSS         8
    Persistent  0
    Stack       0

Auto Spaces:
    Space          Size  Autos    Used
    COMRAM          126     90      94
    BANK0           128     57      61
    BANK1           256      0       0
    BANK2           256      0       0
    BANK3           256      0       0
    BANK4           256      0       0
    BANK5           256      0       0

Pointer List with Targets:

    printf@f	PTR const unsigned char  size(2) Largest target is 14
		 -> STR_1(CODE[14]), 

    printf@ap	PTR void [1] size(2) Largest target is 2
		 -> ?_printf(BANK0[2]), 


Critical Paths under _main in COMRAM

    _printf->___fladd
    _scale->___flmul
    ___awdiv->___awmod
    _fround->___flmul
    ___lwdiv->___lwmod
    ___flmul->___awdiv
    ___fltol->_scale
    ___flsub->___fladd
    ___fladd->_fround

Critical Paths under _Timer in COMRAM

    _Timer->_show_freq
    _show_freq->i2___xxtofl
    i2___xxtofl->___aldiv

Critical Paths under _main in BANK0

    _main->_printf
    _printf->___flsub
    ___flsub->___fladd

Critical Paths under _Timer in BANK0

    None.

Critical Paths under _main in BANK1

    None.

Critical Paths under _Timer in BANK1

    None.

Critical Paths under _main in BANK2

    None.

Critical Paths under _Timer in BANK2

    None.

Critical Paths under _main in BANK3

    None.

Critical Paths under _Timer in BANK3

    None.

Critical Paths under _main in BANK4

    None.

Critical Paths under _Timer in BANK4

    None.

Critical Paths under _main in BANK5

    None.

Critical Paths under _Timer in BANK5

    None.

Call Graph Tables:

 ---------------------------------------------------------------------------------
 (Depth) Function   	        Calls       Base Space   Used Autos Params    Refs
 ---------------------------------------------------------------------------------
 (0) _main                                                 0     0      0   32788
                       _enable_timer
                             _printf
 ---------------------------------------------------------------------------------
 (1) _printf                                              43    37      6   32788
                                             20 BANK0     37    31      6
                            ___awdiv
                            ___fladd
                             ___fleq
                             ___flge
                            ___flmul
                            ___flneg
                            ___flsub
                            ___fltol
                            ___lldiv
                            ___llmod
                             ___wmul
                           ___xxtofl
                         __div_to_l_
                        __tdiv_to_l_
                             _fround
                            _isdigit
                              _putch
                              _scale
 ---------------------------------------------------------------------------------
 (2) _scale                                                9     5      4    6735
                                             69 COMRAM     9     5      4
                            ___awdiv
                            ___awmod
                            ___flmul
 ---------------------------------------------------------------------------------
 (3) ___awmod                                              6     2      4    1208
                                             30 COMRAM     6     2      4
 ---------------------------------------------------------------------------------
 (3) ___awdiv                                              8     4      4    1364
                                             36 COMRAM     8     4      4
                            ___awmod (ARG)
 ---------------------------------------------------------------------------------
 (2) _putch                                                1     1      0      22
                                             30 COMRAM     1     1      0
 ---------------------------------------------------------------------------------
 (2) _isdigit                                              3     3      0      68
                                             30 COMRAM     3     3      0
 ---------------------------------------------------------------------------------
 (2) _fround                                              13     9      4    5198
                                             69 COMRAM    13     9      4
                            ___flmul
                            ___lwdiv
                            ___lwmod
 ---------------------------------------------------------------------------------
 (3) ___lwmod                                              5     1      4     615
                                             30 COMRAM     5     1      4
 ---------------------------------------------------------------------------------
 (3) ___lwdiv                                              7     3      4     618
                                             35 COMRAM     7     3      4
                            ___lwmod (ARG)
 ---------------------------------------------------------------------------------
 (3) ___flmul                                             25    17      8    3720
                                             44 COMRAM    25    17      8
                            ___awdiv (ARG)
                            ___awmod (ARG)
                            ___lwdiv (ARG)
                            ___lwmod (ARG)
 ---------------------------------------------------------------------------------
 (2) __tdiv_to_l_                                         17     9      8     455
                                             30 COMRAM    17     9      8
 ---------------------------------------------------------------------------------
 (2) __div_to_l_                                          14     6      8     455
                                             30 COMRAM    14     6      8
 ---------------------------------------------------------------------------------
 (2) ___xxtofl                                            14    10      4     448
                                             30 COMRAM    14    10      4
 ---------------------------------------------------------------------------------
 (2) ___wmul                                               6     2      4     615
                                             30 COMRAM     6     2      4
 ---------------------------------------------------------------------------------
 (2) ___llmod                                              9     1      8     615
                                             30 COMRAM     9     1      8
 ---------------------------------------------------------------------------------
 (2) ___lldiv                                             13     5      8     466
                                             30 COMRAM    13     5      8
 ---------------------------------------------------------------------------------
 (2) ___fltol                                             10     6      4     457
                                             78 COMRAM    10     6      4
                            ___flmul (ARG)
                              _scale (ARG)
 ---------------------------------------------------------------------------------
 (2) ___flsub                                              8     0      8    3827
                                             12 BANK0      8     0      8
                            ___fladd
                           ___xxtofl (ARG)
 ---------------------------------------------------------------------------------
 (3) ___fladd                                             20    12      8    3442
                                             82 COMRAM     8     0      8
                                              0 BANK0     12    12      0
                             _fround (ARG)
 ---------------------------------------------------------------------------------
 (2) ___flneg                                              4     0      4     121
                                             30 COMRAM     4     0      4
 ---------------------------------------------------------------------------------
 (2) ___flge                                              12     4      8     638
                                             30 COMRAM    12     4      8
 ---------------------------------------------------------------------------------
 (2) ___fleq                                              12     4      8     646
                                             30 COMRAM    12     4      8
 ---------------------------------------------------------------------------------
 (1) _enable_timer                                         0     0      0       0
 ---------------------------------------------------------------------------------
 Estimated maximum stack depth 3
 ---------------------------------------------------------------------------------
 (Depth) Function   	        Calls       Base Space   Used Autos Params    Refs
 ---------------------------------------------------------------------------------
 (4) _Timer                                                0     0      0     800
                          _show_freq
 ---------------------------------------------------------------------------------
 (5) _show_freq                                            2     2      0     800
                                             28 COMRAM     2     2      0
                            ___aldiv
                         i2___xxtofl
 ---------------------------------------------------------------------------------
 (6) i2___xxtofl                                          14    10      4     348
                                             14 COMRAM    14    10      4
                            ___aldiv (ARG)
 ---------------------------------------------------------------------------------
 (6) ___aldiv                                             14     6      8     452
                                              0 COMRAM    14     6      8
 ---------------------------------------------------------------------------------
 Estimated maximum stack depth 6
 ---------------------------------------------------------------------------------

 Call Graph Graphs:

 _main (ROOT)
   _enable_timer
   _printf
     ___awdiv
       ___awmod (ARG)
     ___fladd
       _fround (ARG)
         ___flmul
           ___awdiv (ARG)
             ___awmod (ARG)
           ___awmod (ARG)
           ___lwdiv (ARG)
             ___lwmod (ARG)
           ___lwmod (ARG)
         ___lwdiv
           ___lwmod (ARG)
         ___lwmod
     ___fleq
     ___flge
     ___flmul
       ___awdiv (ARG)
         ___awmod (ARG)
       ___awmod (ARG)
       ___lwdiv (ARG)
         ___lwmod (ARG)
       ___lwmod (ARG)
     ___flneg
     ___flsub
       ___fladd
         _fround (ARG)
           ___flmul
             ___awdiv (ARG)
               ___awmod (ARG)
             ___awmod (ARG)
             ___lwdiv (ARG)
               ___lwmod (ARG)
             ___lwmod (ARG)
           ___lwdiv
             ___lwmod (ARG)
           ___lwmod
       ___xxtofl (ARG)
     ___fltol
       ___flmul (ARG)
         ___awdiv (ARG)
           ___awmod (ARG)
         ___awmod (ARG)
         ___lwdiv (ARG)
           ___lwmod (ARG)
         ___lwmod (ARG)
       _scale (ARG)
         ___awdiv
           ___awmod (ARG)
         ___awmod
         ___flmul
           ___awdiv (ARG)
             ___awmod (ARG)
           ___awmod (ARG)
           ___lwdiv (ARG)
             ___lwmod (ARG)
           ___lwmod (ARG)
     ___lldiv
     ___llmod
     ___wmul
     ___xxtofl
     __div_to_l_
     __tdiv_to_l_
     _fround
       ___flmul
         ___awdiv (ARG)
           ___awmod (ARG)
         ___awmod (ARG)
         ___lwdiv (ARG)
           ___lwmod (ARG)
         ___lwmod (ARG)
       ___lwdiv
         ___lwmod (ARG)
       ___lwmod
     _isdigit
     _putch
     _scale
       ___awdiv
         ___awmod (ARG)
       ___awmod
       ___flmul
         ___awdiv (ARG)
           ___awmod (ARG)
         ___awmod (ARG)
         ___lwdiv (ARG)
           ___lwmod (ARG)
         ___lwmod (ARG)

 _Timer (ROOT)
   _show_freq
     ___aldiv
     i2___xxtofl
       ___aldiv (ARG)

 Address spaces:
Name               Size   Autos  Total    Cost      Usage
BIGRAM             5FF      0       0      17        0.0%
EEDATA             100      0       0       0        0.0%
BITBANK5           100      0       0      16        0.0%
BANK5              100      0       0      14        0.0%
BITBANK4           100      0       0      12        0.0%
BANK4              100      0       0      13        0.0%
BITBANK3           100      0       0      10        0.0%
BANK3              100      0       0      11        0.0%
BITBANK2           100      0       0       8        0.0%
BANK2              100      0       0       9        0.0%
BITBANK1           100      0       0       6        0.0%
BANK1              100      0       0       7        0.0%
BITBANK0            80      0       0       4        0.0%
BANK0               80     39      3D       5       47.7%
BITCOMRAM           7E      0       0       0        0.0%
COMRAM              7E     5A      5E       1       74.6%
BITSFR               0      0       0     200        0.0%
SFR                  0      0       0     200        0.0%
STACK                0      0       0       2        0.0%
NULL                 0      0       0       0        0.0%
ABS                  0      0      9B      15        0.0%
DATA                 0      0      9B       3        0.0%
CODE                 0      0       0       0        0.0%


Microchip Technology PIC18 Macro Assembler V2.00 build -1524193055 
Symbol Table                                                                                   Wed Nov 07 11:21:59 2018

                                             _f 00B9                                              l50 3C44  
                                            l51 3C5C                                              l43 3B4A  
                                            l52 3C62                                              l44 3B6E  
                                            l45 3B72                                              l46 3B72  
                                            l64 3C8A                                              l49 3C44  
                                            l91 22E8                                              l92 21E4  
                                            l85 26CC                                              l93 2534  
                                            l86 282C                                              l94 22AE  
                                            l87 27D2                                              l95 22AA  
                                            l88 27CE                                              l96 2434  
                                            l97 24FE                                              l98 24FA  
                                  ___awdiv@sign 002A                                              _t1 005D  
                                            _t2 005B                             ___wmul@multiplicand 0021  
                                   __CFG_OSC$HS 000000                                             l101 14EC  
                                           l110 07D2                                             l102 06B0  
                                           l111 0758                                             l103 06D2  
                                           l120 1520                                             l112 07CE  
                                           l104 06EA                                             l121 0892  
                                           l113 0878                                             l105 0700  
                                           l130 0AEA                                             l122 08D0  
                                           l114 084A                                             l106 06EE  
                                           l131 0AE6                                             l123 089A  
                                           l115 080A                                             l107 0720  
                                           l124 125C                                             l132 0B50  
                                           l116 0874                                             l108 071C  
                                           l133 0CF4                                             l141 0CDC  
                                           l125 0906                                             l117 088A  
                                           l109 0724                                             l230 3788  
                                           l150 0EC4                                             l142 0D72  
                                           l126 0968                                             l118 08A2  
                                           l231 379A                                             l151 0EB0  
                                           l143 0D96                                             l135 0BFE  
                                           l127 0AEE                                             l119 088E  
                                           l224 3788                                             l160 1018  
                                           l152 0EEA                                             l144 0E00  
                                           l136 0C44                                             l128 0A14  
                                           l225 3712                                             l161 1030  
                                           l153 0F5C                                             l145 0DE2  
                                           l137 0C54                                             l129 0AA4  
                                           l226 3700                                             l170 123C  
                                           l162 101C                                             l154 0F06  
                                           l146 0E3E                                             l227 372A  
                                           l171 1228                                             l163 1054  
                                           l155 0EF2                                             l147 0E6C  
                                           l139 0CA4                                             l228 372E  
                                           l420 3590                                             l180 1394  
                                           l172 1258                                             l164 107E  
                                           l156 0F2A                                             l148 0EEE  
                                           l229 3772                                             l421 352E  
                                           l181 13CE                                             l173 1296  
                                           l165 1088                                             l157 0F58  
                                           l149 0EAC                                             l510 32E6  
                                           l502 31FC                                             l422 3520  
                                           l190 1488                                             l182 13DC  
                                           l174 12C8                                             l166 10B0  
                                           l158 0FFA                                             l511 32D4  
                                           l503 3344                                             l423 3546  
                                           l431 35EE                                             l191 14B2  
                                           l183 146C                                             l175 1300  
                                           l167 1206                                             l159 0F60  
                                           l512 3300                                             l504 32A2  
                                           l424 354A                                             l440 36B8  
                                           l432 360E                                             l192 14E4  
                                           l184 141C                                             l176 12FC  
                                           l168 1116                                             l513 332E  
                                           l505 3284                                             l425 357A  
                                           l441 36C6                                             l433 3696  
                                           l193 151C                                             l185 1468  
                                           l177 1344                                             l169 1224  
                                           l506 3288                                             l450 2E8E  
                                           l426 358C                                             l418 34D4  
                                           l434 363C                                             l186 143A  
                                           l178 1398                                             l194 1520  
                                           l507 329E                                             l451 3036  
                                           l427 35B2                                             l419 34F8  
                                           l435 362E                                             l187 1464  
                                           l179 1386                                             l508 3304  
                                           l460 3024                                             l452 2EC2  
                                           l428 35C0                                             l436 3654  
                                           l188 14E8                                             l509 32D0  
                                           l197 3C36                                             l461 2FF4  
                                           l453 2F0A                                             l437 3658  
                                           l189 14B6                                             l462 300A  
                                           l454 2F4E                                             l710 39BA  
                                           l438 3680                                             l463 2FF8  
                                           l455 2F64                                             l711 395C  
                                           l439 3692                                             l472 3084  
                                           l480 3BBC                                             l640 38A6  
                                           l464 3024                                             l456 2FC6  
                                           l560 2E54                                             l712 394E  
                                           l720 3A4C                                             l473 30CC  
                                           l641 3894                                             l457 2FA8  
                                           l561 2CFA                                             l713 3974  
                                           l721 39F6                                             l474 311E  
                                           l642 38BE                                             l458 2FAC  
                                           l570 2E12                                             l562 2D36  
                                           l714 3978                                             l722 39E8  
                                           l467 37E6                                             l475 316C  
                                           l643 38C2                                             l459 2FC2  
                                           l571 2E28                                             l563 2D6E  
                                           l715 39A8                                             l723 3A0E  
                                           l468 382E                                             l476 31C2  
                                           l740 15F2                                             l644 38FA  
                                           l572 2E16                                             l564 2D82  
                                           l716 39BA                                             l724 3A12  
                                           l469 386A                                             l741 163C  
                                           l645 3910                                             l573 2E42  
                                           l565 2DE4                                             l717 39C4  
                                           l725 3A3A                                             l750 1766  
                                           l742 1630                                             l646 3922  
                                           l566 2DC6                                             l830 1C40  
                                           l726 3A4C                                             l479 3BA6  
                                           l751 1770                                             l743 1652  
                                           l735 154E                                             l639 3910  
                                           l567 2DCA                                             l559 2CB8  
                                           l831 1C86                                             l727 3A56  
                                           l760 185A                                             l752 178A  
                                           l744 16C6                                             l736 1598  
                                           l568 2DE0                                             l840 1EAE  
                                           l832 1C7E                                             l761 1A00  
                                           l753 17B4                                             l745 1684  
                                           l737 158C                                             l569 2E42  
                                           l841 1EDC                                             l833 1C98  
                                           l770 19C4                                             l762 191C  
                                           l754 1870                                             l746 1742  
                                           l738 15AE                                             l850 2024  
                                           l842 1F4E                                             l834 1CE0  
                                           l826 1BBE                                             l771 19E0  
                                           l763 1918                                             l755 17F4  
                                           l747 17B4                                             l739 15D2  
                                           l851 205E                                             l843 1F2E  
                                           l827 1C04                                             l780 1B3A  
                                           l772 19FC                                             l764 192E  
                                           l756 1B92                                             l748 1798  
                                           l852 2052                                             l844 1F4E  
                                           l836 1CC6                                             l828 1BFC  
                                           l773 1A5A                                             l765 1976  
                                           l757 186C                                             l749 1746  
                                           l845 1F4A                                             l837 207C  
                                           l829 1C1A                                             l782 1B08  
                                           l774 1A3A                                             l766 19E4  
                                           l758 1836                                             l846 1FB8  
                                           l838 1EC4                                             l783 1B36  
                                           l775 1A5A                                             l767 197A  
                                           l759 1840                                             l847 1FB4  
                                           l839 1E8E                                             l784 1B54  
                                           l776 1A56                                             l768 199E  
                                           l880 2930                                             l848 1FEC  
                                           l785 1B5C                                             l777 1ADA  
                                           l769 19BA                                             l881 294E  
                                           l849 2062                                             l786 1B7C  
                                           l778 1AD6                                             l890 2A38  
                                           l882 2934                                             l874 2892  
                                           l779 1AD2                                             l883 2986  
                                           l875 28A8                                             l884 299C  
                                           l876 28DC                                             l789 3B24  
                                           l885 298A                                             l877 2A4E  
                                           l878 28F8                                             l894 3BFA  
                                           l887 29C8                                             l879 28E6  
                                           l895 3C06                                             l888 29C8  
                                           l889 29E2                                    __CFG_BOR$OFF 000000  
                                  __CFG_BORV$20 000000                                    ___awmod@sign 0024  
                                    i2___xxtofl 2A54                                             wreg 000FE8  
                                  ___flmul@aexp 003E                                    ___flmul@bexp 003F  
                                  ___flmul@sign 0039                                    ___flmul@temp 0044  
                                  ___flmul@prod 0040                                    __CFG_LVP$OFF 000000  
                                  ___fltol@exp1 0058                                    __CFG_WDT$OFF 000000  
                                          l3001 322C                                            l3011 326C  
                                          l3003 322E                                            l3021 32B8  
                                          l3013 3280                                            l3005 323E  
                                          l2223 385E                                            l3031 331A  
                                          l3023 32CC                                            l3015 3288  
                                          l3007 3242                                            l2225 3866  
                                          l3033 332E                                            l3025 32D4  
                                          l3017 3294                                            l3009 3254  
                                          l3041 3894                                            l2227 31B6  
                                          l3035 3344                                            l3027 32E6  
                                          l3019 32A2                                            l3051 3906  
                                          l3043 38A6                                            l2229 31BE  
                                          l3029 3304                                            l3045 38C2  
                                          l3037 3872                                            l3061 28C4  
                                          l3053 2836                                            l2501 1DBA  
                                          l3047 38E6                                            l3039 388C  
                                          l3071 2934                                            l3063 28D8  
                                          l3055 284A                                            l2511 1E62  
                                          l2503 1DD6                                            l3145 3C88  
                                          l3049 38FA                                            l3081 29B0  
                                          l3073 2938                                            l3065 28DC  
                                          l3057 285C                                            l2521 1EC4  
                                          l2513 1E70                                            l2505 1DE2  
                                          l2441 1BD4                                            l2433 1B9A  
                                          l2601 35A6                                            l3091 2A20  
                                          l3083 29DC                                            l3075 2944  
                                          l3067 28E6                                            l3059 28A8  
                                          l2531 1F42                                            l2523 1EDC  
                                          l2515 1E8E                                            l2507 1DFE  
                                          l2451 1C22                                            l2443 1BE8  
                                          l2435 1BA6                                            l2603 35B2  
                                          l2611 35DE                                            l3501 1696  
                                          l3093 2A32                                            l3085 29E2  
                                          l3077 298A                                            l3069 28F8  
                                          l2533 1F64                                            l2541 1FB8  
                                          l2525 1EE2                                            l2517 1E9A  
                                          l2509 1E28                                            l2461 1C6A  
                                          l2453 1C28                                            l2445 1BFC  
                                          l2437 1BB8                                            l2701 282C  
                                          l2605 35C0                                            l2621 3626  
                                          l2613 35E6                                            l3511 16AA  
                                          l3503 169A                                            l3095 2A38  
                                          l3087 29E8                                            l3079 299C  
                                          l2551 203A                                            l2543 1FD8  
                                          l2535 1F70                                            l2527 1EF4  
                                          l2519 1EAC                                            l2471 1CDC  
                                          l2463 1C7E                                            l2455 1C3A  
                                          l2447 1C04                                            l2439 1BBE  
                                          l2631 3680                                            l2623 362E  
                                          l2615 35EE                                            l2607 35C8  
                                          l2711 21E0                                            l2703 2086  
                                          l3601 19DA                                            l3521 16BE  
                                          l3513 16AE                                            l3505 169E  
                                          l3097 2A4E                                            l3089 2A0C  
                                          l2801 2DFA                                            l2561 207C  
                                          l2553 204C                                            l2545 1FEC  
                                          l2537 1F82                                            l2529 1F26  
                                          l2481 1D1A                                            l2473 1CE0  
                                          l2465 1C86                                            l2457 1C40  
                                          l2449 1C1A                                            l2641 36C6  
                                          l2633 3688                                            l2625 363C  
                                          l2617 3602                                            l2609 35CC  
                                          l2721 22E4                                            l2713 21E4  
                                          l2705 2098                                            l3611 1A32  
                                          l3603 19E4                                            l3531 173A  
                                          l3515 16B2                                            l3507 16A2  
                                          l3523 16C6                                            l3451 154E  
                                          l2811 2E76                                            l2803 2E0E  
                                          l2555 2052                                            l2547 200C  
                                          l2539 1FAC                                            l2491 1D64  
                                          l2483 1D32                                            l2475 1CEE  
                                          l2467 1CAE                                            l2459 1C56  
                                          l2651 395C                                            l2643 3928  
                                          l2571 34D4                                            l2563 34AE  
                                          l2627 3658                                            l2635 3696  
                                          l2619 360E                                            l2731 2434  
                                          l2715 21FE                                            l2707 20B2  
                                          l2723 22E8                                            l3621 1ACC  
                                          l3613 1A4E                                            l3605 1A00  
                                          l3541 178A                                            l3533 175A  
                                          l3525 16CC                                            l3517 16B6  
                                          l3509 16A6                                            l3453 1564  
                                          l3461 1598                                            l3445 1528  
                                          l2821 2EC2                                            l2813 2E8A  
                                          l2805 2E16                                            l2549 202A  
                                          l2557 2062                                            l2493 1D74  
                                          l2485 1D3E                                            l2477 1CF8  
                                          l2469 1CC6                                            l2661 39A8  
                                          l2653 3978                                            l2645 3930  
                                          l2741 3BC6                                            l2581 3518  
                                          l2573 34E8                                            l2565 34B2  
                                          l2637 36AC                                            l2629 3674  
                                          l2733 244E                                            l2725 2302  
                                          l2717 22A6                                            l2709 21DC  
                                          l3701 08D0                                            l3631 1B3A  
                                          l3615 1A70                                            l3623 1ADA  
                                          l3607 1A06                                            l3551 17F4  
                                          l3543 1796                                            l3535 1766  
                                          l3527 1708                                            l3519 16BA  
                                          l3471 15DA                                            l3463 15AE  
                                          l3455 1578                                            l3447 1536  
                                          l2831 2EFC                                            l2823 2EC6  
                                          l2815 2E8E                                            l2807 2E28  
                                          l2559 2068                                            l2495 1D80  
                                          l2487 1D4A                                            l2479 1D0E  
                                          l2663 39B0                                            l2655 3980  
                                          l2647 3946                                            l2671 39F6  
                                          l2751 3C06                                            l2743 3BCA  
                                          l2591 356C                                            l2583 3520  
                                          l2575 34F0                                            l2567 34C4  
                                          l2639 36B8                                            l2735 24F6  
                                          l2727 242C                                            l2719 22AE  
                                          l3711 0928                                            l3703 08E8  
                                          l3641 1B76                                            l3633 1B4E  
                                          l3625 1AF0                                            l3617 1A7C  
                                          l3609 1A18                                            l3561 1840  
                                          l3553 1806                                            l3545 17C8  
                                          l3537 1770                                            l3529 172A  
                                          l3481 1630                                            l3473 15EC  
                                          l3465 15B6                                            l3457 158C  
                                          l3449 1548                                            l2841 2F48  
                                          l2833 2F02                                            l2825 2ED6  
                                          l2817 2EAA                                            l2809 2E5C  
                                          l2761 2CE2                                            l2753 2C78  
                                          l2497 1D90                                            l2489 1D58  
                                          l2657 399A                                            l2649 394E  
                                          l2673 3A12                                            l2665 39CA  
                                          l2745 3BDE                                            l2681 3C40  
                                          l2593 3574                                            l2585 352E  
                                          l2577 34F8                                            l2569 34CC  
                                          l2737 24FE                                            l2729 2430  
                                          l3801 0EA2                                            l3721 09A8  
                                          l3713 093A                                            l3705 08FA  
                                          l3643 1B7C                                            l3635 1B54  
                                          l3627 1B08                                            l3619 1A8E  
                                          l3571 189C                                            l3563 1854  
                                          l3555 1818                                            l3547 17DC  
                                          l3539 1784                                            l3491 167C  
                                          l3483 1634                                            l3475 15F2  
                                          l3467 15CC                                            l3459 1590  
                                          l3651 3B24                                            l2851 2F90  
                                          l2843 2F4E                                            l2835 2F0A  
                                          l2827 2EE8                                            l2819 2EBE  
                                          l2771 2D18                                            l2763 2CF6  
                                          l2755 2CA0                                            l2499 1DAA  
                                          l2659 39A2                                            l2675 3A2E  
                                          l2667 39E0                                            l2691 26C8  
                                          l2747 3BF2                                            l2683 3C5C  
                                          l2595 357A                                            l2587 354A  
                                          l2579 3502                                            l2739 2534  
                                          l3811 0EFA                                            l3803 0EB0  
                                          l3731 0A0A                                            l3723 09B8  
                                          l3715 095E                                            l3707 0906  
                                          l3645 1B92                                            l3637 1B5C  
                                          l3629 1B2E                                            l3581 194A  
                                          l3573 18F2                                            l3565 185A  
                                          l3557 182A                                            l3549 17F0  
                                          l3493 1684                                            l3477 1608  
                                          l3485 163C                                            l3469 15D2  
                                          l2861 2FDC                                            l2853 2FA4  
                                          l2845 2F5A                                            l2837 2F16  
                                          l2829 2EF8                                            l2781 2D60  
                                          l2773 2D28                                            l2765 2CFA  
                                          l2757 2CB4                                            l2677 3A3A  
                                          l2669 39E8                                            l2693 26CC  
                                          l2685 253E                                            l2749 3BFA  
                                          l2597 3582                                            l2589 3552  
                                          l3901 141C                                            l3821 0FB8  
                                          l3805 0EB8                                            l3813 0F06  
                                          l3741 0AA4                                            l3733 0A14  
                                          l3725 09BE                                            l3717 0968  
                                          l3709 0920                                            l3661 06EE  
                                          l3653 06A2                                            l2951 37E6  
                                          l3639 1B64                                            l3591 1998  
                                          l3583 195E                                            l3575 18F4  
                                          l3567 1866                                            l3559 1836  
                                          l3495 168A                                            l3487 1652  
                                          l3479 161C                                            l3647 3ADA  
                                          l2871 3C2A                                            l2863 2FF0  
                                          l2855 2FAC                                            l2847 2F64  
                                          l2839 2F38                                            l2791 2DAE  
                                          l2783 2D6C                                            l2775 2D2C  
                                          l2767 2CFE                                            l2759 2CB8  
                                          l2679 3A42                                            l2695 26E2  
                                          l2687 2552                                            l2599 3590  
                                          l3911 1490                                            l3903 143A  
                                          l3831 1030                                            l3823 0FEC  
                                          l3815 0F2A                                            l3807 0EC4  
                                          l3751 0B74                                            l3743 0ADC  
                                          l3735 0A2E                                            l3727 09DA  
                                          l3719 0972                                            l3671 0758  
                                          l3663 06FC                                            l3655 06B0  
                                          l2961 386A                                            l2953 381A  
                                          l3593 199E                                            l3585 1972  
                                          l3577 1908                                            l3569 1870  
                                          l3497 168E                                            l3489 166A  
                                          l3649 3AEC                                            l2881 3700  
                                          l2873 3C36                                            l2865 2FF8  
                                          l2857 2FB8                                            l2849 2F78  
                                          l2793 2DC2                                            l2785 2D78  
                                          l2777 2D32                                            l2769 2D0C  
                                          l2697 27CA                                            l2689 26C4  
                                          l3913 14B6                                            l3905 1442  
                                          l3841 10A6                                            l3833 1054  
                                          l3817 0F4E                                            l3809 0EF2  
                                          l3825 0FFA                                            l3761 0C44  
                                          l3753 0BAA                                            l3737 0A62  
                                          l3729 09F6                                            l3745 0AEE  
                                          l3681 07F6                                            l3673 0776  
                                          l3665 0700                                            l3657 06C8  
                                          l3921 3B30                                            l2955 382E  
                                          l2947 37A0                                            l2971 30CC  
                                          l2963 303E                                            l3595 19B2  
                                          l3587 197A                                            l3579 191C  
                                          l3499 1692                                            l2891 376C  
                                          l2883 3712                                            l2875 36CE  
                                          l2867 300A                                            l2859 2FC6  
                                          l2795 2DCA                                            l2787 2D82  
                                          l2779 2D42                                            l2699 27D2  
                                          l3915 14DA                                            l3907 146C  
                                          l3851 11A2                                            l3843 10B0  
                                          l3835 1076                                            l3827 101C  
                                          l3819 0F60                                            l3763 0C54  
                                          l3755 0BD8                                            l3771 0CF4  
                                          l3747 0B12                                            l3739 0A98  
                                          l3683 07FE                                            l3691 0878  
                                          l3675 07A2                                            l3667 0724  
                                          l3659 06D2                                            l3931 3B40  
                                          l3923 3B34                                            l2957 3858  
                                          l2949 37D2                                            l2981 31B6  
                                          l2973 30E0                                            l2965 3070  
                                          l3597 19BA                                            l3589 1986  
                                          l2893 3772                                            l2885 372E  
                                          l2877 36DE                                            l2869 3C0E  
                                          l2797 2DD6                                            l2789 2D96  
                                          l3909 1488                                            l3853 1206  
                                          l3845 10CA                                            l3837 1088  
                                          l3829 1024                                            l3781 0D96  
                                          l3773 0D64                                            l3765 0C6C  
                                          l3757 0BFE                                            l3749 0B50  
                                          l3861 125C                                            l3693 0884  
                                          l3685 080A                                            l3677 07A6  
                                          l3669 074A                                            l3917 14EC  
                                          l3933 3B42                                            l3925 3B3A  
                                          l2959 385E                                            l2983 31C2  
                                          l2975 311E                                            l2967 3084  
                                          l2991 3BBC                                            l3599 19C4  
                                          l2895 377E                                            l2887 373A  
                                          l2879 36F8                                            l2799 2DE4  
                                          l3871 12C8                                            l3863 1274  
                                          l3855 1228                                            l3847 1116  
                                          l3839 1092                                            l3791 0E34  
                                          l3783 0DDE                                            l3775 0D72  
                                          l3767 0CA4                                            l3759 0C36  
                                          l3695 0892                                            l3687 0842  
                                          l3679 07D2                                            l3935 3B4A  
                                          l3927 3B3C                                            l3919 3B2A  
                                          l2977 3132                                            l2969 30B8  
                                          l2985 3B78                                            l2993 31CA  
                                          l2889 375C                                            l3881 1344  
                                          l3873 12F2                                            l3865 128E  
                                          l3857 1230                                            l3849 116E  
                                          l3793 0E3E                                            l3785 0DE2  
                                          l3777 0D78                                            l3769 0CDC  
                                          l3697 089E                                            l3689 084A  
                                          l3929 3B3E                                            l2979 31B0  
                                          l2987 3B92                                            l2995 31E4  
                                          l3891 13C2                                            l3883 1358  
                                          l3875 1300                                            l3867 1296  
                                          l3859 123C                                            l3795 0E62  
                                          l3787 0DE6                                            l3779 0D92  
                                          l3699 08A2                                            l2989 3BA6  
                                          l2997 31F8                                            l3893 13CE  
                                          l3885 137A                                            l3877 1318  
                                          l3869 12C0                                            l3797 0E6C  
                                          l3789 0E00                                            l2999 31FC  
                                          l3895 13DC                                            l3887 1386  
                                          l3879 133A                                            l3799 0E80  
                                          l3897 13F0                                            l3889 1398  
                                          l3899 1412                                            STR_1 0691  
                                          u3000 2EA8                                            u3001 2EA2  
                                          u3010 2F36                                            u3011 2F30  
                                          u3020 2F76                                            u3021 2F70  
                                          u3030 2F8E                                            u3031 2F88  
                                          u3200 30DE                                            u3040 2FDA  
                                          u3201 30D8                                            u3041 2FD4  
                                          u3210 3130                                            u3050 301E  
                                          u3211 312A                                            u3051 3018  
                                          u3220 31AE                                            u4100 15CA  
                                          u3300 3318                                            u3060 36F6  
                                          u2500 1CC0                                            u3221 31A8  
                                          u4101 15C4                                            u3301 3312  
                                          u3061 36F0                                            u2501 1CBA  
                                          u3150 37D0                                            u3230 3B90  
                                          u4110 15EA                                            u3070 3724  
                                          u3310 388A                                            u2510 1E4A  
                                          u2430 1BB6                                            u3151 37CA  
                                          u3231 3B8A                                            u4111 15E4  
                                          u3071 371E                                            u3311 3884  
                                          u2431 1BB0                                            u3160 3818  
                                          u4200 1782                                            u4120 1606  
                                          u3240 31E2                                            u3080 375A  
                                          u3320 38B8                                            u3400 29C2  
                                          u2600 200A                                            u2520 1EAA  
                                          u2440 1BD2                                            u3161 3812  
                                          u4201 177C                                            u4121 1600  
                                          u3241 31DC                                            u3081 3754  
                                          u3321 38B2                                            u3401 29BC  
                                          u2601 2004                                            u2521 1EA4  
                                          u2441 1BCC                                            u3170 3856  
                                          u4210 17AE                                            u4130 161A  
                                          u3250 3220                                            u3330 38E4  
                                          u3410 29DA                                            u2610 204A  
                                          u2530 1ED6                                            u2450 1BE6  
                                          u3171 3850                                            u4211 17A8  
                                          u4131 1614                                            u3331 38DE  
                                          u3411 29D4                                            u2611 2044  
                                          u2531 1ED0                                            u2515 1E3E  
                                          u2451 1BE0                                            u3180 306E  
                                          u4300 195C                                            u4220 17C6  
                                          u4140 1668                                            u3260 3252  
                                          u3420 2A1E                                            u3340 2848  
                                          u2540 1EF2                                            u2460 1C38  
                                          u2620 34C2                                            u2700 3624  
                                          u3181 3068                                            u4301 1956  
                                          u4221 17C0                                            u4141 1662  
                                          u3261 324C                                            u3421 2A18  
                                          u3341 2842                                            u2541 1EEC  
                                          u2461 1C32                                            u2621 34BC  
                                          u2701 361E                                            u3190 30B6  
                                          u4310 1996                                            u4230 17DA  
                                          u4150 167A                                            u4070 1546  
                                          u3270 326A                                            u3430 2A30  
                                          u3350 285A                                            u2550 1F24  
                                          u2470 1C54                                            u2630 34E6  
                                          u2710 364E                                            u3191 30B0  
                                          u4311 1990                                            u4231 17D4  
                                          u4151 1674                                            u4071 1540  
                                          u3271 3264                                            u3255 3214  
                                          u3431 2A2A                                            u3351 2854  
                                          u2551 1F1E                                            u2471 1C4E  
                                          u2631 34E0                                            u2711 3648  
                                          u4400 1ACA                                            u4320 19B0  
                                          u4240 1816                                            u4160 1706  
                                          u4080 1562                                            u3280 32B6  
                                          u3360 28C2                                            u2560 1F40  
                                          u2480 1C68                                            u2800 3C56  
                                          u2640 3516                                            u2720 3672  
                                          u4401 1AC4                                            u4321 19AA  
                                          u4241 1810                                            u4161 1700  
                                          u4081 155C                                            u3281 32B0  
                                          u3361 28BC                                            u2561 1F3A  
                                          u2481 1C62                                            u2801 3C50  
                                          u2641 3510                                            u2721 366C  
                                          u4410 1AEE                                            u4330 19D8  
                                          u4250 1828                                            u4170 1722  
                                          u4090 1576                                            u3290 32FA  
                                          u3370 292A                                            u2570 1F62  
                                          u2490 1CAC                                            u2810 2550  
                                          u2650 3540                                            u2730 36AA  
                                          u4411 1AE8                                            u4331 19D2  
                                          u4251 1822                                            u4171 171A  
                                          u4091 1570                                            u3291 32F4  
                                          u3371 2924                                            u2571 1F5C  
                                          u2491 1CA6                                            u2811 254A  
                                          u2651 353A                                            u2731 36A4  
                                  printf@tmpval 00A8                                            u4420 1B02  
                                          u4340 19F6                                            u4260 1852  
                                          u4180 1726                                            u3380 2980  
                                          u2580 1F80                                            u2740 3944  
                                          u2820 26E0                                            u2660 356A  
                                          u4500 086E                                            u4421 1AFC  
                                          u4341 19F0                                            u4261 184C  
                                          u3381 297A                                            u2901 2C88  
                                          u2581 1F7A                                            u2741 393E  
                                          u2821 26DA                                            u2661 3564  
                                          u4501 0868                                            u4430 1B2C  
                                          u4350 1A16                                            u4270 189A  
                                          u4190 1758                                            u3390 29AE  
                                          u2910 2C9E                                            u2590 1FD6  
                                          u2750 396E                                            u2670 35A4  
                                          u2830 2096                                            u4510 08E6  
                                          u4431 1B26                                            u4351 1A10  
                                          u4271 1894                                            u4191 1752  
                                          u3391 29A8                                            u2911 2C98  
                                          u2591 1FD0                                            u2751 3968  
                                          u2671 359E                                            u2831 2090  
                                          u4511 08E0                                            u4440 1B4C  
                                          u4360 1A30                                            u4280 1906  
                                          u2760 3998                                            u2680 35DC  
                                          u2840 20B0                                            u4600 0BA8  
                                          u4520 08F8                                            u4441 1B46  
                                          u4361 1A2A                                            u4281 1900  
                                          u2921 2CCA                                            u2761 3992  
                                          u2681 35D6                                            u2841 20AA  
                                          u4601 0BA2                                            u4521 08F2  
                                          u4450 1B74                                            u4370 1A4C  
                                          u4290 1948                                            u2930 2CE0  
                                          u2770 39DE                                            u2690 3600  
                                          u2850 21FC                                            u4610 0BD6  
                                          u4530 0938                                            u4451 1B6E  
                                          u4371 1A46                                            u4291 1942  
                                          u2931 2CDA                                            u2771 39D8  
                                          u2691 35FA                                            u2851 21F6  
                                          u4611 0BD0                                            u4531 0932  
                                          u4380 1A6E                                            u2940 2D5E  
                                          u2780 3A08                                            u2860 2300  
                                          u4700 0EA0                                            u4620 0BF8  
                                          u4540 09A6                                            u4460 06C6  
                                          u4381 1A68                                            u2941 2D58  
                                          u2781 3A02                                            u2861 22FA  
                                          u4701 0E9A                                            u4621 0BF2  
                                          u4541 09A0                                            u4461 06C0  
                                          u4390 1A8C                                            u2950 2D94  
                                          u2790 3A2C                                            u2870 244C  
                                          u4710 0EE4                                            u4630 0C34  
                                          u4550 0A08                                            u4470 0748  
                                          u4391 1A86                                            u2951 2D8E  
                                          u2791 3A26                                            u2871 2446  
                                          u4711 0EDE                                            u4631 0C2E  
                                          u4551 0A02                                            u4471 0742  
                                          u2960 2DAC                                            u2880 3BDC  
                                          u4800 1272                                            u4720 0F24  
                                          u4640 0D8C                                            u4560 0A96  
                                          u4480 07C8                                            u2961 2DA6  
                                          u2881 3BD6                                            u4801 126C  
                                          u4721 0F1E                                            u4641 0D86  
                                          u4561 0A90                                            u4481 07C2  
                                          u2970 2DF8                                            u2890 3BF0  
                                          u4810 128C                                            u4730 0F4C  
                                          u4650 0DD8                                            u4570 0ADA  
                                          u4490 07F4                                            u2971 2DF2  
                                          u2891 3BEA                                            u4811 1286  
                                          u4731 0F46                                            u4651 0DD2  
                                          u4571 0AD4                                            u4491 07EE  
                                          u2980 2E3C                                            u4900 1410  
                                          u4820 12BE                                            u4740 1012  
                                          u4660 0DFA                                            u4580 0B10  
                                          u2981 2E36                                            u4901 140A  
                                          u4821 12B8                                            u4741 100C  
                                          u4661 0DF4                                            u4581 0B0A  
                                          u2990 2E74                                            u4910 1434  
                                          u4830 12F0                                            u4750 104E  
                                          u4670 0E32                                            u4590 0B72  
                                          u2991 2E6E                                            u4911 142E  
                                          u4831 12EA                                            u4751 1048  
                                          u4671 0E2C                                            u4591 0B6C  
                                          u4920 145E                                            u4840 1316  
                                          u4760 1074                                            u4680 0E60  
                                          u4921 1458                                            u4841 1310  
                                          u4761 106E                                            u4681 0E5A  
                                          u4930 1482                                            u4850 1338  
                                          u4770 10A4                                            u4690 0E7E  
                                          u4931 147C                                            u4851 1332  
                                          u4771 109E                                            u4691 0E78  
                                          u4940 14AC                                            u4860 1356  
                                          u4780 121E                                            i2l61 3AD4  
                                          u4941 14A6                                            u4861 1350  
                                          u4781 1218                                            u4950 14D8  
                                          u4870 1378                                            u4790 1252  
                                          u4951 14D2                                            u4871 1372  
                                          u4791 124C                                            u4960 1516  
                                          u4880 13C0                                            i2l57 003A  
                                          u4961 1510                                            u4881 13BA  
                                          i2l58 003A                                            u4890 13EE  
                                          u4891 13E8                                            _main 3B2A  
                                          fsr2h 000FDA                                            fsr2l 000FD9  
                                          btemp 005F                                            prodh 000FF4  
                                          prodl 000FF3                                            start 0042  
                                  ___param_bank 000000                                   __CFG_OSCS$OFF 000000  
                                 ___fltol@sign1 0057                                 __end_of___aldiv 34AC  
                               __end_of___fladd 1B98                                           ?_main 0001  
                               __end_of___awdiv 35C6                                 __end_of___flneg 3BC2  
                               __end_of___awmod 36CC                                 __end_of___flmul 2082  
                               __end_of___flsub 3B2A                                 __end_of___fltol 334A  
                               __end_of___lldiv 379E                                 ___awdiv@divisor 0027  
                               __end_of___llmod 3926                                           _T3CON 000FB1  
                               __end_of___lwdiv 39C8                                 __end_of___lwmod 3A5A  
                                         i2l270 33DA                                           i2l271 3404  
                                         i2l272 3408                                           i2l273 344C  
                                         i2l274 3462                                           i2l266 337A  
                                         i2l275 3490                                           i2l267 33A6  
                                         i2l276 34A6                                           i2l268 3466  
                                         i2l269 33EC                                           i2l880 2B52  
                                         i2l881 2B70                                           i2l890 2C5A  
                                         i2l882 2B56                                           i2l874 2AB4  
                                         i2l883 2BA8                                           i2l875 2ACA  
                                         i2l884 2BBE                                           i2l876 2AFE  
                               ___awdiv@counter 0029                                           i2l885 2BAC  
                                         i2l877 2C70                                           i2l878 2B1A  
                                         i2l887 2BEA                                           i2l879 2B08  
                                         i2l888 2BEA                                           i2l889 2C04  
                                         _TXREG 000FAD                                   __CFG_PWRT$OFF 000000  
                                 __CFG_STVR$OFF 000000                                           _Timer 0008  
                               __end_of_dpowers 0691                                           _scale 2082  
                               __end_of_isdigit 3C0C                                           _putch 3C3C  
                                         tablat 000FF5                                           ttemp5 0060  
                                         ttemp6 0063                                           ttemp7 0067  
                                         status 000FD8                                           wtemp8 0060  
                               __initialization 3C66                                    __end_of_main 3B76  
                                        ??_main 005B                                   __activetblptr 000002  
                          __end_of_enable_timer 3C8E                            __size_of__tdiv_to_l_ 01E4  
                                   ?i2___xxtofl 000F                                          ?_Timer 0001  
                               __CFG_CCP2MUX$ON 000000                                ___llmod@dividend 001F  
                                        ?_scale 0046                                          _CCPR1H 000FBF  
                                        _CCPR1L 000FBE                                ___awdiv@dividend 0025  
                                        ?_putch 0001                                          i2l3101 2A6C  
                                        i2l3111 2AFE                                          i2l3103 2A7E  
                                        i2l3121 2B66                                          i2l3113 2B08  
                                        i2l3105 2ACA                                          i2l3131 2C04  
                                        i2l3123 2BAC                                          i2l3115 2B1A  
                                        i2l3107 2AE6                                          i2l3141 2C5A  
                                        i2l3133 2C0A                                          i2l3125 2BBE  
                                        i2l3117 2B56                                          i2l3109 2AFA  
                                        i2l3143 2C70                                          i2l3135 2C2E  
                                        i2l3127 2BD2                                          i2l3119 2B5A  
                                        i2l3137 2C42                                          i2l3129 2BFE  
                                        i2l3139 2C54                                          i2l3413 3A5C  
                                        i2l3415 3A6E                                          i2l3417 3ACC  
                                        i2l3441 0030                                          i2l3099 2A58  
                                        i2l3443 0034                                          i2l2901 3362  
                                        i2l3437 000C                                          i2l2911 33A6  
                                        i2l2903 3372                                          i2l3439 001E  
                                        i2l2921 3408                                          i2l2913 33B8  
                                        i2l2905 337A                                          i2l2931 3458  
                                        i2l2923 3414                                          i2l2915 33D2  
                                        i2l2907 338E                                          i2l2925 3436  
                                        i2l2917 33DA                                          i2l2933 3466  
                                        i2l2909 339E                                          i2l2935 347C  
                                        i2l2927 3446                                          i2l2919 33EC  
                                        i2l2937 3490                                          i2l2929 344C  
                                        i2l2939 34A6                                          i2l2897 334C  
                                        i2l2899 3350                                  __CFG_WDTPS$128 000000  
                              __end_of___xxtofl 2A54                                __end_of__powers_ 0635  
                                        ___flge 303C                                          ___fleq 379E  
                                     ??___aldiv 0009                                       ??___fladd 0080  
                                        ___wmul 3C0C                                       ??___awdiv 0029  
                                     ??___flneg 0023                                       ??___awmod 0023  
                                     ??___flmul 0035                                       ??___flsub 005B  
                                     ??___fltol 0053                                       ??___lldiv 0027  
                                     ??___llmod 0027                                       ??___lwdiv 0028  
                                     ??___lwmod 0023                                          _fround 253A  
                              ___awdiv@quotient 002B                                 ___awmod@divisor 0021  
                               ___awmod@counter 0023                                          _printf 06A0  
                                     ??_isdigit 001F                                    __mediumconst 0000  
                                        tblptrh 000FF7                                          tblptrl 000FF6  
                                        tblptru 000FF8                                      ___flge@ff1 001F  
                                    ___flge@ff2 0023                                    ___xxtofl@arg 0029  
                                  ___xxtofl@exp 0028                                    ___xxtofl@val 001F  
                                    ___fleq@ff1 001F                                      ___fleq@ff2 0023  
                                    __accesstop 0080                         __end_of__initialization 3C78  
                                    ___flneg@f1 001F                                   ___rparam_used 000001  
                                    ___fltol@f1 004F                             __size_ofi2___xxtofl 0222  
                                __pcstackCOMRAM 0001                                   __end_of_Timer 0042  
                                 __end_of_scale 253A                                   __end_of_putch 3C66  
                                    __div_to_l_ 2E5A                                         ??_Timer 001F  
                               __div_to_l_@exp1 002C                                 __div_to_l_@cntr 002B  
                                       ??_scale 004A                                 __div_to_l_@quot 0027  
                                       ??_putch 001F                                      __pbssBANK0 00B9  
                                 __div_to_l_@f1 001F                                   __div_to_l_@f2 0023  
                                       ?___flge 001F                                         ?___fleq 001F  
                                       ?___wmul 001F                           __size_of_enable_timer 0008  
                                       _CCP1CON 000FBD                                         ?_fround 0046  
                                       ?_printf 0094                                       ?___xxtofl 001F  
                            __size_of_show_freq 007E                                    _enable_timer 3C86  
                             __end_of__npowers_ 0669                                         __Hparam 0000  
                                    _scale$1185 004A                                         __Lparam 0000  
                                       ___aldiv 334A                                 __size_of___flge 018C  
                               __size_of___fleq 00D2                                         ___fladd 1526  
                                       ___awdiv 34AC                                         ___flneg 3B76  
                                       ___awmod 35C6                                         ___flmul 1B98  
                                       ___flsub 3AD8                                         ___fltol 31C8  
                                       ___lldiv 36CC                                 __size_of___wmul 0030  
                                       ___llmod 3870                                         ___lwdiv 3926  
                                       ___lwmod 39C8                                    __psmallconst 0600  
                                       __pcinit 3C66                                 __size_of_fround 02F8  
                                       __ramtop 0600                                         __ptext0 3B2A  
                                       __ptext1 06A0                                         __ptext2 2082  
                                       __ptext3 35C6                                         __ptext4 34AC  
                                       __ptext5 3C3C                                         __ptext6 3BC2  
                                       __ptext7 253A                                         __ptext8 39C8  
                                       __ptext9 3926                                 __size_of_printf 0E86  
                                   ?__div_to_l_ 001F                                         _dpowers 0669  
                                       _isdigit 3BC2                                    ??i2___xxtofl 0013  
                                    ??___xxtofl 0023                                       _T3CONbits 000FB1  
                              ___awmod@dividend 001F                                ___aldiv@dividend 0001  
                          end_of_initialization 3C78                                   __Lmediumconst 0000  
                                i2___xxtofl@arg 0019                                  i2___xxtofl@exp 0018  
                                i2___xxtofl@val 000F                                 ___lldiv@divisor 0023  
                               ___lldiv@counter 002B                               __end_of_show_freq 3AD8  
                                     _RCSTAbits 000FAB                                         printf@c 00B8  
                                       printf@f 0094                              __end_ofi2___xxtofl 2C76  
                              ___aldiv@quotient 000B                                         postinc2 000FDE  
                                __tdiv_to_l_@f1 001F                                  __tdiv_to_l_@f2 0023  
                                 ??__tdiv_to_l_ 0027                                     ___fladd@grs 008B  
                                 ___xxtofl@sign 0027                                       _TRISCbits 000F94  
                                   ___flmul@grs 003A                                     printf@width 00B0  
                                     _TXSTAbits 000FAC                             __size_of__div_to_l_ 01E2  
                                __end_of___flge 31C8                                  __end_of___fleq 3870  
                                __end_of___wmul 3C3C                                  __end_of_fround 2832  
                                __end_of_printf 1526                             start_initialization 3C66  
                           __end_of__tdiv_to_l_ 2E5A                                 ___llmod@divisor 0023  
                               ___llmod@counter 0027                                        ??___flge 0027  
                                      ??___fleq 0027                                        ??___wmul 0023  
                                      ??_fround 004A                                        ??_printf 009A  
                                     ___fladd@a 0057                                       ___fladd@b 0053  
                                    fround@prec 0052                                       ___flmul@a 0031  
                                     ___flmul@b 002D                                     __pbssCOMRAM 005B  
                                     ___flsub@a 0090                                       ___flsub@b 008C  
                                 __pcstackBANK0 0080                               __size_of___xxtofl 0222  
                                  _isdigit$1002 0020                                ___lwdiv@dividend 0024  
                                     __pintcode 0008                                        ?___aldiv 0001  
                                      ?___fladd 0053                                        ?___awdiv 0025  
                                      ?___flneg 001F                                        ?___awmod 001F  
                                      ?___flmul 002D                                        ?___flsub 008C  
                                      ?___fltol 004F                                        ?___lldiv 001F  
                                      ?___llmod 001F                                       __npowers_ 0635  
                                      ?___lwdiv 0024                                        ?___lwmod 001F  
                                   __tdiv_to_l_ 2C76                                    ??__div_to_l_ 0027  
                                   __smallconst 0600                                        ?_isdigit 0001  
                                __size_of_Timer 003A                                ___lwdiv@quotient 0028  
                                __size_of_scale 04B8                                  __size_of_putch 002A  
                               ___aldiv@divisor 0005                                 ___aldiv@counter 0009  
                                ___wmul@product 0023                                        _IPR1bits 000F9F  
                                      _PIE1bits 000F9D                                        i2u310_40 338C  
                                      i2u310_41 3386                                        i2u311_40 33D0  
                                      i2u311_41 33CA                                        i2u312_40 33FE  
                                      i2u312_41 33F8                                        i2u313_40 3434  
                                      i2u313_41 342E                                        i2u314_40 347A  
                                      i2u314_41 3474                                        i2u309_40 3360  
                                      i2u405_40 001C                                        i2u309_41 335A  
                                      i2u405_41 0016                                        i2u350_40 2BE4  
                                      i2u406_40 002E                                        i2u350_41 2BDE  
                                      i2u406_41 0028                                        i2u351_40 2BFC  
                                      i2u351_41 2BF6                                        i2u352_40 2C40  
                                      i2u344_40 2A6A                                        i2u352_41 2C3A  
                                      i2u344_41 2A64                                        i2u353_40 2C52  
                                      i2u345_40 2A7C                                        i2u353_41 2C4C  
                                      i2u345_41 2A76                                        _PIR1bits 000F9E  
                            __end_of__div_to_l_ 303C                                        i2u346_40 2AE4  
                                      i2u346_41 2ADE                                        i2u347_40 2B4C  
                                      i2u347_41 2B46                                        i2u348_40 2BA2  
                                      i2u348_41 2B9C                                        i2u349_40 2BD0  
                                      i2u349_41 2BCA                                       _show_freq 3A5A  
                             ___wmul@multiplier 001F                                      printf@flag 00AE  
                                    printf@eexp 00AC                                      printf@fval 00B2  
                                    printf@prec 00B6                                        __Hrparam 0000  
                                      __Lrparam 0000                                __size_of___aldiv 0162  
                                    ?_show_freq 0001                                __size_of___fladd 0672  
                              __size_of___awdiv 011A                                __size_of___flneg 004C  
                              __size_of___awmod 0106                                __size_of___flmul 04EA  
                              __size_of___flsub 0052                                __size_of___fltol 0182  
                              __size_of___lldiv 00D2                                __size_of___llmod 00B6  
                              __size_of___lwdiv 00A2                                __size_of___lwmod 0092  
                                   _fround$1183 004E                                     _fround$1184 004A  
                                      ___xxtofl 2832                                __size_of_isdigit 004A  
                               ___lwdiv@divisor 0026                                 ___lwdiv@counter 002A  
                                      __ptext10 1B98                                        __ptext11 2C76  
                                      __ptext20 3B76                                        __ptext12 2E5A  
                                      __ptext21 303C                                        __ptext13 2832  
                                      __ptext22 379E                                        __ptext14 3C0C  
                                      __ptext23 3C86                                        __ptext15 3870  
                                      __ptext16 36CC                                        __ptext25 3A5A  
                                      __ptext17 31C8                                        __ptext26 2A54  
                                      __ptext18 3AD8                                        __ptext27 334A  
                                      __ptext19 1526                                        __powers_ 0601  
                                 __size_of_main 004C                                        int$flags 005F  
                                     printf@val 00A4                                       putch@data 001F  
                                    _INTCONbits 000FF2                                        isdigit@c 0021  
                                      scale@scl 004E                                        intlevel2 3C8E  
                              __tdiv_to_l_@exp1 002F                                __tdiv_to_l_@cntr 002E  
                              __tdiv_to_l_@quot 002A                                 i2___xxtofl@sign 0017  
                              ___lwmod@dividend 001F                                ___lldiv@dividend 001F  
                                 ?_enable_timer 0001                                        printf@ap 00A2  
                                   ??_show_freq 001D                                    ?__tdiv_to_l_ 001F  
                                   _printf$1186 009E                                ___lldiv@quotient 0027  
                               ___lwmod@divisor 0021                                 ___lwmod@counter 0023  
                                  ___aldiv@sign 000A                                   ___fladd@signs 0088  
                                  ___fladd@aexp 0089                                    ___fladd@bexp 008A  
                                ??_enable_timer 001F  
