

Microchip Technology PIC18 LITE Macro Assembler V2.00 build -1524193055 
                                                                                               Wed Nov 07 11:57:04 2018

Microchip Technology Omniscient Code Generator v2.00 (Free mode) build 20180527130849
     1  0000                     
     2                           ; Version 2.00
     3                           ; Generated 27/05/2018 GMT
     4                           
     5                           ; 
     6                           ; Copyright © 2018, Microchip Technology Inc. and its subsidiaries ("Microchip")
     7                           ; All rights reserved.
     8                           ; 
     9                           ; This software is developed by Microchip Technology Inc. and its subsidiaries ("Microch
                                 ip").
    10                           ; 
    11                           ; Redistribution and use in source and binary forms, with or without modification, are
    12                           ; permitted provided that the following conditions are met:
    13                           ; 
    14                           ;     1. Redistributions of source code must retain the above copyright notice, this lis
                                 t of
    15                           ;        conditions and the following disclaimer.
    16                           ; 
    17                           ;     2. Redistributions in binary form must reproduce the above copyright notice, this 
                                 list
    18                           ;        of conditions and the following disclaimer in the documentation and/or other
    19                           ;        materials provided with the distribution.
    20                           ; 
    21                           ;     3. Microchip's name may not be used to endorse or promote products derived from th
                                 is
    22                           ;        software without specific prior written permission.
    23                           ; 
    24                           ; THIS SOFTWARE IS PROVIDED BY MICROCHIP "AS IS" AND ANY EXPRESS OR IMPLIED WARRANTIES,

    25                           ; INCLUDING, BUT NOT LIMITED TO, THE IMPLIED WARRANTIES OF MERCHANTABILITY AND FITNESS F
                                 OR
    26                           ; PURPOSE ARE DISCLAIMED.  IN NO EVENT SHALL MICROCHIP BE LIABLE FOR ANY DIRECT, INDIREC
                                 T,
    27                           ; INCIDENTAL, SPECIAL, EXEMPLARY, OR CONSEQUENTIAL DAMAGES (INCLUDING BUT NOT LIMITED TO
                                 
    28                           ; PROCUREMENT OF SUBSTITUTE GOODS OR SERVICES; LOSS OF USE, DATA OR PROFITS; OR BUSINESS
                                 
    29                           ; INTERRUPTION) HOWSOEVER CAUSED AND ON ANY THEORY OF LIABILITY, WHETHER IN CONTRACT, ST
                                 RICT
    30                           ; LIABILITY, OR TORT (INCLUDING NEGLIGENCE OR OTHERWISE) ARISING IN ANY WAY OUT OF THE U
                                 SE OF
    31                           ; THIS SOFTWARE, EVEN IF ADVISED OF THE POSSIBILITY OF SUCH DAMAGE.
    32                           ; 
    33                           
    34                           
    35                           ; 
    36                           ; Code-generator required, PIC18F452 Definitions
    37                           ; 
    38  0000                     fsr0 equ 0FE9h
    39  0000                     fsr0h equ 0FEAh
    40  0000                     fsr0l equ 0FE9h
    41  0000                     fsr1 equ 0FE1h
    42  0000                     fsr1h equ 0FE2h
    43  0000                     fsr1l equ 0FE1h
    44  0000                     fsr2 equ 0FD9h
    45  0000                     fsr2h equ 0FDAh
    46  0000                     fsr2l equ 0FD9h
    47  0000                     indf0 equ 0FEFh
    48  0000                     indf1 equ 0FE7h
    49  0000                     indf2 equ 0FDFh
    50  0000                     intcon equ 0FF2h
    51  0000                     nvmcon equ 00h
    52  0000                     pcl equ 0FF9h
    53  0000                     pclath equ 0FFAh
    54  0000                     pclatu equ 0FFBh
    55  0000                     plusw0 equ 0FEBh
    56  0000                     plusw1 equ 0FE3h
    57  0000                     plusw2 equ 0FDBh
    58  0000                     postdec0 equ 0FEDh
    59  0000                     postdec1 equ 0FE5h
    60  0000                     postdec2 equ 0FDDh
    61  0000                     postinc0 equ 0FEEh
    62  0000                     postinc1 equ 0FE6h
    63  0000                     postinc2 equ 0FDEh
    64  0000                     preinc0 equ 0FECh
    65  0000                     preinc1 equ 0FE4h
    66  0000                     preinc2 equ 0FDCh
    67  0000                     prod equ 0FF3h
    68  0000                     prodh equ 0FF4h
    69  0000                     prodl equ 0FF3h
    70  0000                     status equ 0FD8h
    71  0000                     tablat equ 0FF5h
    72  0000                     tblptr equ 0FF6h
    73  0000                     tblptrh equ 0FF7h
    74  0000                     tblptrl equ 0FF6h
    75  0000                     tblptru equ 0FF8h
    76  0000                     tosl equ 0FFDh
    77  0000                     wreg equ 0FE8h
    78  0000                     
     2                           opt pagewidth 120
     3  0000                     byte0	macro	val
     4                           	(getbyte(val,0))
     5                           endm
     6  0000                     byte1	macro	val
     7                           	(getbyte(val,1))
     8                           endm
     9  0000                     byte2	macro	val
    10                           	(getbyte(val,2))
    11                           endm
    12  0000                     byte3	macro	val
    13                           	(getbyte(val,3))
    14                           endm
    15  0000                     byte4	macro	val
    16                           	(getbyte(val,4))
    17                           endm
    18  0000                     byte5	macro	val
    19                           	(getbyte(val,5))
    20                           endm
    21  0000                     byte6	macro	val
    22                           	(getbyte(val,6))
    23                           endm
    24  0000                     byte7	macro	val
    25                           	(getbyte(val,7))
    26                           endm
    27  0000                     getword	macro	val,pos
    28                           	(((val) >> (8 * pos)) and 0xffff)
    29                           endm
    30  0000                     word0	macro	val
    31                           	(getword(val,0))
    32                           endm
    33  0000                     word1	macro	val
    34                           	(getword(val,2))
    35                           endm
    36  0000                     word2	macro	val
    37                           	(getword(val,4))
    38                           endm
    39  0000                     word3	macro	val
    40                           	(getword(val,6))
    41                           endm
    42  0000                     gettword	macro	val,pos
    43                           	(((val) >> (8 * pos)) and 0xffffff)
    44                           endm
    45  0000                     tword0	macro	val
    46                           	(gettword(val,0))
    47                           endm
    48  0000                     tword1	macro	val
    49                           	(gettword(val,3))
    50                           endm
    51  0000                     tword2	macro	val
    52                           	(gettword(val,6))
    53                           endm
    54  0000                     getdword	macro	val,pos
    55                           	(((val) >> (8 * pos)) and 0xffffffff)
    56                           endm
    57  0000                     dword0	macro	val
    58                           	(getdword(val,0))
    59                           endm
    60  0000                     dword1	macro	val
    61                           	(getdword(val,4))
    62                           endm
    63  0000                     clrc   macro
    64                           	bcf	status,0
    65                           endm
    66  0000                     setc   macro
    67                           	bsf	status,0
    68                           endm
    69  0000                     clrz   macro
    70                           	bcf	status,2
    71                           endm
    72  0000                     setz   macro
    73                           	bsf	status,2
    74                           endm
    75  0000                     skipnz macro
    76                           	btfsc	status,2
    77                           endm
    78  0000                     skipz  macro
    79                           	btfss	status,2
    80                           endm
    81  0000                     skipnc macro
    82                           	btfsc	status,0
    83                           endm
    84  0000                     skipc  macro
    85                           	btfss	status,0
    86                           endm
    87  0000                     pushw macro
    88                           	movwf postinc1
    89                           endm
    90  0000                     pushf macro arg1
    91                           	movff arg1, postinc1
    92                           endm
    93  0000                     popw macro
    94                           	movf postdec1,f
    95                           	movf indf1,w
    96                           endm
    97  0000                     popf macro arg1
    98                           	movf postdec1,f
    99                           	movff indf1,arg1
   100                           endm
   101  0000                     popfc macro arg1
   102                           	movff plusw1,arg1
   103                           	decfsz fsr1,f
   104                           endm
   105  0000                     	global	__ramtop
   106                           	global	__accesstop
   107                           # 54 "C:\Program Files (x86)\Microchip\xc8\v2.00\pic\include\pic18f452.h"
   108                           PORTA equ 0F80h ;# 
   109  0000                     # 199 "C:\Program Files (x86)\Microchip\xc8\v2.00\pic\include\pic18f452.h"
   110                           PORTB equ 0F81h ;# 
   111  0000                     # 324 "C:\Program Files (x86)\Microchip\xc8\v2.00\pic\include\pic18f452.h"
   112                           PORTC equ 0F82h ;# 
   113  0000                     # 491 "C:\Program Files (x86)\Microchip\xc8\v2.00\pic\include\pic18f452.h"
   114                           PORTD equ 0F83h ;# 
   115  0000                     # 612 "C:\Program Files (x86)\Microchip\xc8\v2.00\pic\include\pic18f452.h"
   116                           PORTE equ 0F84h ;# 
   117  0000                     # 724 "C:\Program Files (x86)\Microchip\xc8\v2.00\pic\include\pic18f452.h"
   118                           LATA equ 0F89h ;# 
   119  0000                     # 824 "C:\Program Files (x86)\Microchip\xc8\v2.00\pic\include\pic18f452.h"
   120                           LATB equ 0F8Ah ;# 
   121  0000                     # 936 "C:\Program Files (x86)\Microchip\xc8\v2.00\pic\include\pic18f452.h"
   122                           LATC equ 0F8Bh ;# 
   123  0000                     # 1048 "C:\Program Files (x86)\Microchip\xc8\v2.00\pic\include\pic18f452.h"
   124                           LATD equ 0F8Ch ;# 
   125  0000                     # 1160 "C:\Program Files (x86)\Microchip\xc8\v2.00\pic\include\pic18f452.h"
   126                           LATE equ 0F8Dh ;# 
   127  0000                     # 1212 "C:\Program Files (x86)\Microchip\xc8\v2.00\pic\include\pic18f452.h"
   128                           TRISA equ 0F92h ;# 
   129  0000                     # 1217 "C:\Program Files (x86)\Microchip\xc8\v2.00\pic\include\pic18f452.h"
   130                           DDRA equ 0F92h ;# 
   131  0000                     # 1410 "C:\Program Files (x86)\Microchip\xc8\v2.00\pic\include\pic18f452.h"
   132                           TRISB equ 0F93h ;# 
   133  0000                     # 1415 "C:\Program Files (x86)\Microchip\xc8\v2.00\pic\include\pic18f452.h"
   134                           DDRB equ 0F93h ;# 
   135  0000                     # 1650 "C:\Program Files (x86)\Microchip\xc8\v2.00\pic\include\pic18f452.h"
   136                           TRISC equ 0F94h ;# 
   137  0000                     # 1655 "C:\Program Files (x86)\Microchip\xc8\v2.00\pic\include\pic18f452.h"
   138                           DDRC equ 0F94h ;# 
   139  0000                     # 1890 "C:\Program Files (x86)\Microchip\xc8\v2.00\pic\include\pic18f452.h"
   140                           TRISD equ 0F95h ;# 
   141  0000                     # 1895 "C:\Program Files (x86)\Microchip\xc8\v2.00\pic\include\pic18f452.h"
   142                           DDRD equ 0F95h ;# 
   143  0000                     # 2112 "C:\Program Files (x86)\Microchip\xc8\v2.00\pic\include\pic18f452.h"
   144                           TRISE equ 0F96h ;# 
   145  0000                     # 2117 "C:\Program Files (x86)\Microchip\xc8\v2.00\pic\include\pic18f452.h"
   146                           DDRE equ 0F96h ;# 
   147  0000                     # 2264 "C:\Program Files (x86)\Microchip\xc8\v2.00\pic\include\pic18f452.h"
   148                           PIE1 equ 0F9Dh ;# 
   149  0000                     # 2341 "C:\Program Files (x86)\Microchip\xc8\v2.00\pic\include\pic18f452.h"
   150                           PIR1 equ 0F9Eh ;# 
   151  0000                     # 2418 "C:\Program Files (x86)\Microchip\xc8\v2.00\pic\include\pic18f452.h"
   152                           IPR1 equ 0F9Fh ;# 
   153  0000                     # 2495 "C:\Program Files (x86)\Microchip\xc8\v2.00\pic\include\pic18f452.h"
   154                           PIE2 equ 0FA0h ;# 
   155  0000                     # 2539 "C:\Program Files (x86)\Microchip\xc8\v2.00\pic\include\pic18f452.h"
   156                           PIR2 equ 0FA1h ;# 
   157  0000                     # 2583 "C:\Program Files (x86)\Microchip\xc8\v2.00\pic\include\pic18f452.h"
   158                           IPR2 equ 0FA2h ;# 
   159  0000                     # 2627 "C:\Program Files (x86)\Microchip\xc8\v2.00\pic\include\pic18f452.h"
   160                           EECON1 equ 0FA6h ;# 
   161  0000                     # 2693 "C:\Program Files (x86)\Microchip\xc8\v2.00\pic\include\pic18f452.h"
   162                           EECON2 equ 0FA7h ;# 
   163  0000                     # 2700 "C:\Program Files (x86)\Microchip\xc8\v2.00\pic\include\pic18f452.h"
   164                           EEDATA equ 0FA8h ;# 
   165  0000                     # 2707 "C:\Program Files (x86)\Microchip\xc8\v2.00\pic\include\pic18f452.h"
   166                           EEADR equ 0FA9h ;# 
   167  0000                     # 2714 "C:\Program Files (x86)\Microchip\xc8\v2.00\pic\include\pic18f452.h"
   168                           RCSTA equ 0FABh ;# 
   169  0000                     # 2719 "C:\Program Files (x86)\Microchip\xc8\v2.00\pic\include\pic18f452.h"
   170                           RCSTA1 equ 0FABh ;# 
   171  0000                     # 2938 "C:\Program Files (x86)\Microchip\xc8\v2.00\pic\include\pic18f452.h"
   172                           TXSTA equ 0FACh ;# 
   173  0000                     # 2943 "C:\Program Files (x86)\Microchip\xc8\v2.00\pic\include\pic18f452.h"
   174                           TXSTA1 equ 0FACh ;# 
   175  0000                     # 3206 "C:\Program Files (x86)\Microchip\xc8\v2.00\pic\include\pic18f452.h"
   176                           TXREG equ 0FADh ;# 
   177  0000                     # 3211 "C:\Program Files (x86)\Microchip\xc8\v2.00\pic\include\pic18f452.h"
   178                           TXREG1 equ 0FADh ;# 
   179  0000                     # 3218 "C:\Program Files (x86)\Microchip\xc8\v2.00\pic\include\pic18f452.h"
   180                           RCREG equ 0FAEh ;# 
   181  0000                     # 3223 "C:\Program Files (x86)\Microchip\xc8\v2.00\pic\include\pic18f452.h"
   182                           RCREG1 equ 0FAEh ;# 
   183  0000                     # 3230 "C:\Program Files (x86)\Microchip\xc8\v2.00\pic\include\pic18f452.h"
   184                           SPBRG equ 0FAFh ;# 
   185  0000                     # 3235 "C:\Program Files (x86)\Microchip\xc8\v2.00\pic\include\pic18f452.h"
   186                           SPBRG1 equ 0FAFh ;# 
   187  0000                     # 3242 "C:\Program Files (x86)\Microchip\xc8\v2.00\pic\include\pic18f452.h"
   188                           T3CON equ 0FB1h ;# 
   189  0000                     # 3363 "C:\Program Files (x86)\Microchip\xc8\v2.00\pic\include\pic18f452.h"
   190                           TMR3 equ 0FB2h ;# 
   191  0000                     # 3370 "C:\Program Files (x86)\Microchip\xc8\v2.00\pic\include\pic18f452.h"
   192                           TMR3L equ 0FB2h ;# 
   193  0000                     # 3377 "C:\Program Files (x86)\Microchip\xc8\v2.00\pic\include\pic18f452.h"
   194                           TMR3H equ 0FB3h ;# 
   195  0000                     # 3384 "C:\Program Files (x86)\Microchip\xc8\v2.00\pic\include\pic18f452.h"
   196                           CCP2CON equ 0FBAh ;# 
   197  0000                     # 3472 "C:\Program Files (x86)\Microchip\xc8\v2.00\pic\include\pic18f452.h"
   198                           CCPR2 equ 0FBBh ;# 
   199  0000                     # 3479 "C:\Program Files (x86)\Microchip\xc8\v2.00\pic\include\pic18f452.h"
   200                           CCPR2L equ 0FBBh ;# 
   201  0000                     # 3486 "C:\Program Files (x86)\Microchip\xc8\v2.00\pic\include\pic18f452.h"
   202                           CCPR2H equ 0FBCh ;# 
   203  0000                     # 3493 "C:\Program Files (x86)\Microchip\xc8\v2.00\pic\include\pic18f452.h"
   204                           CCP1CON equ 0FBDh ;# 
   205  0000                     # 3572 "C:\Program Files (x86)\Microchip\xc8\v2.00\pic\include\pic18f452.h"
   206                           CCPR1 equ 0FBEh ;# 
   207  0000                     # 3579 "C:\Program Files (x86)\Microchip\xc8\v2.00\pic\include\pic18f452.h"
   208                           CCPR1L equ 0FBEh ;# 
   209  0000                     # 3586 "C:\Program Files (x86)\Microchip\xc8\v2.00\pic\include\pic18f452.h"
   210                           CCPR1H equ 0FBFh ;# 
   211  0000                     # 3593 "C:\Program Files (x86)\Microchip\xc8\v2.00\pic\include\pic18f452.h"
   212                           ADCON1 equ 0FC1h ;# 
   213  0000                     # 3661 "C:\Program Files (x86)\Microchip\xc8\v2.00\pic\include\pic18f452.h"
   214                           ADCON0 equ 0FC2h ;# 
   215  0000                     # 3802 "C:\Program Files (x86)\Microchip\xc8\v2.00\pic\include\pic18f452.h"
   216                           ADRES equ 0FC3h ;# 
   217  0000                     # 3809 "C:\Program Files (x86)\Microchip\xc8\v2.00\pic\include\pic18f452.h"
   218                           ADRESL equ 0FC3h ;# 
   219  0000                     # 3816 "C:\Program Files (x86)\Microchip\xc8\v2.00\pic\include\pic18f452.h"
   220                           ADRESH equ 0FC4h ;# 
   221  0000                     # 3823 "C:\Program Files (x86)\Microchip\xc8\v2.00\pic\include\pic18f452.h"
   222                           SSPCON2 equ 0FC5h ;# 
   223  0000                     # 3885 "C:\Program Files (x86)\Microchip\xc8\v2.00\pic\include\pic18f452.h"
   224                           SSPCON1 equ 0FC6h ;# 
   225  0000                     # 3955 "C:\Program Files (x86)\Microchip\xc8\v2.00\pic\include\pic18f452.h"
   226                           SSPSTAT equ 0FC7h ;# 
   227  0000                     # 4212 "C:\Program Files (x86)\Microchip\xc8\v2.00\pic\include\pic18f452.h"
   228                           SSPADD equ 0FC8h ;# 
   229  0000                     # 4219 "C:\Program Files (x86)\Microchip\xc8\v2.00\pic\include\pic18f452.h"
   230                           SSPBUF equ 0FC9h ;# 
   231  0000                     # 4226 "C:\Program Files (x86)\Microchip\xc8\v2.00\pic\include\pic18f452.h"
   232                           T2CON equ 0FCAh ;# 
   233  0000                     # 4297 "C:\Program Files (x86)\Microchip\xc8\v2.00\pic\include\pic18f452.h"
   234                           PR2 equ 0FCBh ;# 
   235  0000                     # 4302 "C:\Program Files (x86)\Microchip\xc8\v2.00\pic\include\pic18f452.h"
   236                           MEMCON equ 0FCBh ;# 
   237  0000                     # 4407 "C:\Program Files (x86)\Microchip\xc8\v2.00\pic\include\pic18f452.h"
   238                           TMR2 equ 0FCCh ;# 
   239  0000                     # 4414 "C:\Program Files (x86)\Microchip\xc8\v2.00\pic\include\pic18f452.h"
   240                           T1CON equ 0FCDh ;# 
   241  0000                     # 4521 "C:\Program Files (x86)\Microchip\xc8\v2.00\pic\include\pic18f452.h"
   242                           TMR1 equ 0FCEh ;# 
   243  0000                     # 4528 "C:\Program Files (x86)\Microchip\xc8\v2.00\pic\include\pic18f452.h"
   244                           TMR1L equ 0FCEh ;# 
   245  0000                     # 4535 "C:\Program Files (x86)\Microchip\xc8\v2.00\pic\include\pic18f452.h"
   246                           TMR1H equ 0FCFh ;# 
   247  0000                     # 4542 "C:\Program Files (x86)\Microchip\xc8\v2.00\pic\include\pic18f452.h"
   248                           RCON equ 0FD0h ;# 
   249  0000                     # 4685 "C:\Program Files (x86)\Microchip\xc8\v2.00\pic\include\pic18f452.h"
   250                           WDTCON equ 0FD1h ;# 
   251  0000                     # 4713 "C:\Program Files (x86)\Microchip\xc8\v2.00\pic\include\pic18f452.h"
   252                           LVDCON equ 0FD2h ;# 
   253  0000                     # 4771 "C:\Program Files (x86)\Microchip\xc8\v2.00\pic\include\pic18f452.h"
   254                           OSCCON equ 0FD3h ;# 
   255  0000                     # 4791 "C:\Program Files (x86)\Microchip\xc8\v2.00\pic\include\pic18f452.h"
   256                           T0CON equ 0FD5h ;# 
   257  0000                     # 4861 "C:\Program Files (x86)\Microchip\xc8\v2.00\pic\include\pic18f452.h"
   258                           TMR0 equ 0FD6h ;# 
   259  0000                     # 4868 "C:\Program Files (x86)\Microchip\xc8\v2.00\pic\include\pic18f452.h"
   260                           TMR0L equ 0FD6h ;# 
   261  0000                     # 4875 "C:\Program Files (x86)\Microchip\xc8\v2.00\pic\include\pic18f452.h"
   262                           TMR0H equ 0FD7h ;# 
   263  0000                     # 4882 "C:\Program Files (x86)\Microchip\xc8\v2.00\pic\include\pic18f452.h"
   264                           STATUS equ 0FD8h ;# 
   265  0000                     # 4953 "C:\Program Files (x86)\Microchip\xc8\v2.00\pic\include\pic18f452.h"
   266                           FSR2 equ 0FD9h ;# 
   267  0000                     # 4960 "C:\Program Files (x86)\Microchip\xc8\v2.00\pic\include\pic18f452.h"
   268                           FSR2L equ 0FD9h ;# 
   269  0000                     # 4967 "C:\Program Files (x86)\Microchip\xc8\v2.00\pic\include\pic18f452.h"
   270                           FSR2H equ 0FDAh ;# 
   271  0000                     # 4974 "C:\Program Files (x86)\Microchip\xc8\v2.00\pic\include\pic18f452.h"
   272                           PLUSW2 equ 0FDBh ;# 
   273  0000                     # 4981 "C:\Program Files (x86)\Microchip\xc8\v2.00\pic\include\pic18f452.h"
   274                           PREINC2 equ 0FDCh ;# 
   275  0000                     # 4988 "C:\Program Files (x86)\Microchip\xc8\v2.00\pic\include\pic18f452.h"
   276                           POSTDEC2 equ 0FDDh ;# 
   277  0000                     # 4995 "C:\Program Files (x86)\Microchip\xc8\v2.00\pic\include\pic18f452.h"
   278                           POSTINC2 equ 0FDEh ;# 
   279  0000                     # 5002 "C:\Program Files (x86)\Microchip\xc8\v2.00\pic\include\pic18f452.h"
   280                           INDF2 equ 0FDFh ;# 
   281  0000                     # 5009 "C:\Program Files (x86)\Microchip\xc8\v2.00\pic\include\pic18f452.h"
   282                           BSR equ 0FE0h ;# 
   283  0000                     # 5016 "C:\Program Files (x86)\Microchip\xc8\v2.00\pic\include\pic18f452.h"
   284                           FSR1 equ 0FE1h ;# 
   285  0000                     # 5023 "C:\Program Files (x86)\Microchip\xc8\v2.00\pic\include\pic18f452.h"
   286                           FSR1L equ 0FE1h ;# 
   287  0000                     # 5030 "C:\Program Files (x86)\Microchip\xc8\v2.00\pic\include\pic18f452.h"
   288                           FSR1H equ 0FE2h ;# 
   289  0000                     # 5037 "C:\Program Files (x86)\Microchip\xc8\v2.00\pic\include\pic18f452.h"
   290                           PLUSW1 equ 0FE3h ;# 
   291  0000                     # 5044 "C:\Program Files (x86)\Microchip\xc8\v2.00\pic\include\pic18f452.h"
   292                           PREINC1 equ 0FE4h ;# 
   293  0000                     # 5051 "C:\Program Files (x86)\Microchip\xc8\v2.00\pic\include\pic18f452.h"
   294                           POSTDEC1 equ 0FE5h ;# 
   295  0000                     # 5058 "C:\Program Files (x86)\Microchip\xc8\v2.00\pic\include\pic18f452.h"
   296                           POSTINC1 equ 0FE6h ;# 
   297  0000                     # 5065 "C:\Program Files (x86)\Microchip\xc8\v2.00\pic\include\pic18f452.h"
   298                           INDF1 equ 0FE7h ;# 
   299  0000                     # 5072 "C:\Program Files (x86)\Microchip\xc8\v2.00\pic\include\pic18f452.h"
   300                           WREG equ 0FE8h ;# 
   301  0000                     # 5084 "C:\Program Files (x86)\Microchip\xc8\v2.00\pic\include\pic18f452.h"
   302                           FSR0 equ 0FE9h ;# 
   303  0000                     # 5091 "C:\Program Files (x86)\Microchip\xc8\v2.00\pic\include\pic18f452.h"
   304                           FSR0L equ 0FE9h ;# 
   305  0000                     # 5098 "C:\Program Files (x86)\Microchip\xc8\v2.00\pic\include\pic18f452.h"
   306                           FSR0H equ 0FEAh ;# 
   307  0000                     # 5105 "C:\Program Files (x86)\Microchip\xc8\v2.00\pic\include\pic18f452.h"
   308                           PLUSW0 equ 0FEBh ;# 
   309  0000                     # 5112 "C:\Program Files (x86)\Microchip\xc8\v2.00\pic\include\pic18f452.h"
   310                           PREINC0 equ 0FECh ;# 
   311  0000                     # 5119 "C:\Program Files (x86)\Microchip\xc8\v2.00\pic\include\pic18f452.h"
   312                           POSTDEC0 equ 0FEDh ;# 
   313  0000                     # 5126 "C:\Program Files (x86)\Microchip\xc8\v2.00\pic\include\pic18f452.h"
   314                           POSTINC0 equ 0FEEh ;# 
   315  0000                     # 5133 "C:\Program Files (x86)\Microchip\xc8\v2.00\pic\include\pic18f452.h"
   316                           INDF0 equ 0FEFh ;# 
   317  0000                     # 5140 "C:\Program Files (x86)\Microchip\xc8\v2.00\pic\include\pic18f452.h"
   318                           INTCON3 equ 0FF0h ;# 
   319  0000                     # 5232 "C:\Program Files (x86)\Microchip\xc8\v2.00\pic\include\pic18f452.h"
   320                           INTCON2 equ 0FF1h ;# 
   321  0000                     # 5309 "C:\Program Files (x86)\Microchip\xc8\v2.00\pic\include\pic18f452.h"
   322                           INTCON equ 0FF2h ;# 
   323  0000                     # 5314 "C:\Program Files (x86)\Microchip\xc8\v2.00\pic\include\pic18f452.h"
   324                           INTCON1 equ 0FF2h ;# 
   325  0000                     # 5541 "C:\Program Files (x86)\Microchip\xc8\v2.00\pic\include\pic18f452.h"
   326                           PROD equ 0FF3h ;# 
   327  0000                     # 5548 "C:\Program Files (x86)\Microchip\xc8\v2.00\pic\include\pic18f452.h"
   328                           PRODL equ 0FF3h ;# 
   329  0000                     # 5555 "C:\Program Files (x86)\Microchip\xc8\v2.00\pic\include\pic18f452.h"
   330                           PRODH equ 0FF4h ;# 
   331  0000                     # 5562 "C:\Program Files (x86)\Microchip\xc8\v2.00\pic\include\pic18f452.h"
   332                           TABLAT equ 0FF5h ;# 
   333  0000                     # 5571 "C:\Program Files (x86)\Microchip\xc8\v2.00\pic\include\pic18f452.h"
   334                           TBLPTR equ 0FF6h ;# 
   335  0000                     # 5578 "C:\Program Files (x86)\Microchip\xc8\v2.00\pic\include\pic18f452.h"
   336                           TBLPTRL equ 0FF6h ;# 
   337  0000                     # 5585 "C:\Program Files (x86)\Microchip\xc8\v2.00\pic\include\pic18f452.h"
   338                           TBLPTRH equ 0FF7h ;# 
   339  0000                     # 5592 "C:\Program Files (x86)\Microchip\xc8\v2.00\pic\include\pic18f452.h"
   340                           TBLPTRU equ 0FF8h ;# 
   341  0000                     # 5601 "C:\Program Files (x86)\Microchip\xc8\v2.00\pic\include\pic18f452.h"
   342                           PCLAT equ 0FF9h ;# 
   343  0000                     # 5608 "C:\Program Files (x86)\Microchip\xc8\v2.00\pic\include\pic18f452.h"
   344                           PC equ 0FF9h ;# 
   345  0000                     # 5615 "C:\Program Files (x86)\Microchip\xc8\v2.00\pic\include\pic18f452.h"
   346                           PCL equ 0FF9h ;# 
   347  0000                     # 5622 "C:\Program Files (x86)\Microchip\xc8\v2.00\pic\include\pic18f452.h"
   348                           PCLATH equ 0FFAh ;# 
   349  0000                     # 5629 "C:\Program Files (x86)\Microchip\xc8\v2.00\pic\include\pic18f452.h"
   350                           PCLATU equ 0FFBh ;# 
   351  0000                     # 5636 "C:\Program Files (x86)\Microchip\xc8\v2.00\pic\include\pic18f452.h"
   352                           STKPTR equ 0FFCh ;# 
   353  0000                     # 5742 "C:\Program Files (x86)\Microchip\xc8\v2.00\pic\include\pic18f452.h"
   354                           TOS equ 0FFDh ;# 
   355  0000                     # 5749 "C:\Program Files (x86)\Microchip\xc8\v2.00\pic\include\pic18f452.h"
   356                           TOSL equ 0FFDh ;# 
   357  0000                     # 5756 "C:\Program Files (x86)\Microchip\xc8\v2.00\pic\include\pic18f452.h"
   358                           TOSH equ 0FFEh ;# 
   359  0000                     # 5763 "C:\Program Files (x86)\Microchip\xc8\v2.00\pic\include\pic18f452.h"
   360                           TOSU equ 0FFFh ;# 
   361  0000                     	FNCALL	_main,_Initialize_PIC
   362                           	FNCALL	_main,_Print_To_LCD
   363                           	FNCALL	_main,___awdiv
   364                           	FNCALL	_main,___awmod
   365                           	FNCALL	_main,_initialize_timer
   366                           	FNCALL	_Initialize_PIC,_Initialize_LCD
   367                           	FNROOT	_main
   368                           	FNCALL	_Timer,_timer_display
   369                           	FNCALL	_timer_display,_increment_time
   370                           	FNCALL	_timer_display,i1_initialize_timer
   371                           	FNCALL	_increment_time,i1_Print_To_LCD
   372                           	FNCALL	_increment_time,i1___awdiv
   373                           	FNCALL	_increment_time,i1___awmod
   374                           	FNCALL	intlevel1,_Timer
   375                           	global	intlevel1
   376                           	FNROOT	intlevel1
   377                           	FNCALL	_My_ISR_High,_high_prio
   378                           	FNCALL	_high_prio,i2_Print_To_LCD
   379                           	FNCALL	_high_prio,i2___awdiv
   380                           	FNCALL	_high_prio,i2___awmod
   381                           	FNCALL	_high_prio,i2_initialize_timer
   382                           	FNCALL	intlevel2,_My_ISR_High
   383                           	global	intlevel2
   384                           	FNROOT	intlevel2
   385                           	global	_Str_1
   386                           psect	idataCOMRAM,class=CODE,space=0,delta=1,noexec
   387                           global __pidataCOMRAM
   388                           __pidataCOMRAM:
   389  0013FC                     	file	"lab6.c"
   390                           	line	46
   391                           
   392                           ;initializer for _Str_2
   393                           	db	low(0C0h)
   394  0013FC  C0                 	db	low(068h)
   395  0013FD  68                 	db	low(020h)
   396  0013FE  20                 	db	low(020h)
   397  0013FF  20                 	db	low(020h)
   398  001400  20                 	db	low(020h)
   399  001401  20                 	db	low(020h)
   400  001402  20                 	db	low(020h)
   401  001403  20                 	db	low(020h)
   402  001404  20                 	db	low(0)
   403  001405  00                 	line	45
   404                           
   405                           ;initializer for _Str_1
   406                           	db	low(080h)
   407  001406  80                 	db	low(020h)
   408  001407  20                 	db	low(020h)
   409  001408  20                 	db	low(020h)
   410  001409  20                 	db	low(020h)
   411  00140A  20                 	db	low(020h)
   412  00140B  20                 	db	low(020h)
   413  00140C  20                 	db	low(020h)
   414  00140D  20                 	db	low(020h)
   415  00140E  20                 	db	low(0)
   416  00140F  00                 	global	_Clear2
   417                           psect	smallconst,class=SMALLCONST,space=0,reloc=2,noexec
   418                           global __psmallconst
   419                           __psmallconst:
   420  000600                     	db	0
   421  000600  00                 	file	"lab6.c"
   422                           	line	49
   423                           _Clear2:
   424  000601                     	db	low(0C0h)
   425  000601  C0                 	db	low(020h)
   426  000602  20                 	db	low(020h)
   427  000603  20                 	db	low(020h)
   428  000604  20                 	db	low(020h)
   429  000605  20                 	db	low(020h)
   430  000606  20                 	db	low(020h)
   431  000607  20                 	db	low(020h)
   432  000608  20                 	db	low(020h)
   433  000609  20                 	db	low(0)
   434  00060A  00                 	global __end_of_Clear2
   435                           __end_of_Clear2:
   436  00060B                     	global	_Clear1
   437                           psect	smallconst
   438                           	file	"lab6.c"
   439                           	line	48
   440                           _Clear1:
   441  00060B                     	db	low(080h)
   442  00060B  80                 	db	low(020h)
   443  00060C  20                 	db	low(020h)
   444  00060D  20                 	db	low(020h)
   445  00060E  20                 	db	low(020h)
   446  00060F  20                 	db	low(020h)
   447  000610  20                 	db	low(020h)
   448  000611  20                 	db	low(020h)
   449  000612  20                 	db	low(020h)
   450  000613  20                 	db	low(0)
   451  000614  00                 	global __end_of_Clear1
   452                           __end_of_Clear1:
   453  000615                     	global	_LCDstr
   454                           psect	smallconst
   455                           	file	"lab6.c"
   456                           	line	41
   457                           _LCDstr:
   458  000615                     	db	low(033h)
   459  000615  33                 	db	low(032h)
   460  000616  32                 	db	low(028h)
   461  000617  28                 	db	low(01h)
   462  000618  01                 	db	low(0Ch)
   463  000619  0C                 	db	low(06h)
   464  00061A  06                 	db	low(0)
   465  00061B  00                 	db	low(0)
   466  00061C  00                 	global __end_of_LCDstr
   467                           __end_of_LCDstr:
   468  00061D                     	global	_Clear2
   469                           	global	_Clear1
   470                           	global	_LCDstr
   471                           	global	_s
   472                           	global	_m
   473                           	global	_h
   474                           	global	_TMR0L
   475                           _TMR0L	set	0xFD6
   476  0000                     	global	_TMR0H
   477                           _TMR0H	set	0xFD7
   478  0000                     	global	_PORTD
   479                           _PORTD	set	0xF83
   480  0000                     	global	_PORTEbits
   481                           _PORTEbits	set	0xF84
   482  0000                     	global	_PORTA
   483                           _PORTA	set	0xF80
   484  0000                     	global	_TRISE
   485                           _TRISE	set	0xF96
   486  0000                     	global	_TRISD
   487                           _TRISD	set	0xF95
   488  0000                     	global	_TRISC
   489                           _TRISC	set	0xF94
   490  0000                     	global	_ADCON1
   491                           _ADCON1	set	0xFC1
   492  0000                     	global	_PORTBbits
   493                           _PORTBbits	set	0xF81
   494  0000                     	global	_T0CONbits
   495                           _T0CONbits	set	0xFD5
   496  0000                     	global	_PORTAbits
   497                           _PORTAbits	set	0xF80
   498  0000                     	global	_RCONbits
   499                           _RCONbits	set	0xFD0
   500  0000                     	global	_INTCON3
   501                           _INTCON3	set	0xFF0
   502  0000                     	global	_INTCON2
   503                           _INTCON2	set	0xFF1
   504  0000                     	global	_INTCONbits
   505                           _INTCONbits	set	0xFF2
   506  0000                     	global	_TRISA
   507                           _TRISA	set	0xF92
   508  0000                     	global	_TRISB
   509                           _TRISB	set	0xF93
   510  0000                     ; #config settings
   511                           global __CFG_OSC$HS
   512                           __CFG_OSC$HS equ 0x0
   513  0000                     global __CFG_OSCS$OFF
   514                           __CFG_OSCS$OFF equ 0x0
   515  0000                     global __CFG_PWRT$OFF
   516                           __CFG_PWRT$OFF equ 0x0
   517  0000                     global __CFG_BOR$OFF
   518                           __CFG_BOR$OFF equ 0x0
   519  0000                     global __CFG_WDT$OFF
   520                           __CFG_WDT$OFF equ 0x0
   521  0000                     global __CFG_CCP2MUX$ON
   522                           __CFG_CCP2MUX$ON equ 0x0
   523  0000                     global __CFG_STVR$ON
   524                           __CFG_STVR$ON equ 0x0
   525  0000                     global __CFG_LVP$OFF
   526                           __CFG_LVP$OFF equ 0x0
   527  0000                     	file	"C:\Users\Nathan\AppData\Local\Temp\ses0."
   528                           	line	#
   529                           psect	cinit,class=CODE,delta=1,reloc=2
   530                           global __pcinit
   531                           __pcinit:
   532  00139C                     global start_initialization
   533                           start_initialization:
   534  00139C                     
   535                           global __initialization
   536                           __initialization:
   537  00139C                     psect	bssCOMRAM,class=COMRAM,space=1,noexec
   538                           global __pbssCOMRAM
   539                           __pbssCOMRAM:
   540  00003E                     	global	_s
   541                           _s:
   542  00003E                            ds      1
   543  00003E                     	global	_m
   544                           _m:
   545  00003F                            ds      1
   546  00003F                     	global	_h
   547                           _h:
   548  000040                            ds      1
   549  000040                     psect	dataCOMRAM,class=COMRAM,space=1,noexec
   550                           global __pdataCOMRAM
   551                           __pdataCOMRAM:
   552  00002A                     	file	"lab6.c"
   553                           	line	46
   554                           	global	_Str_2
   555                           	global	_Str_2
   556                           _Str_2:
   557  00002A                            ds      10
   558  00002A                     psect	dataCOMRAM
   559                           	file	"lab6.c"
   560                           	line	45
   561                           	global	_Str_1
   562                           _Str_1:
   563  000034                            ds      10
   564  000034                     	file	"C:\Users\Nathan\AppData\Local\Temp\ses0."
   565                           	line	#
   566                           psect	cinit
   567                           ; Initialize objects allocated to COMRAM (20 bytes)
   568                           	global __pidataCOMRAM
   569                           	; load TBLPTR registers with __pidataCOMRAM
   570                           	movlw	low (__pidataCOMRAM)
   571  00139C  0EFC               	movwf	tblptrl
   572  00139E  6EF6               	movlw	high(__pidataCOMRAM)
   573  0013A0  0E13               	movwf	tblptrh
   574  0013A2  6EF7               	movlw	low highword(__pidataCOMRAM)
   575  0013A4  0E00               	movwf	tblptru
   576  0013A6  6EF8               	lfsr	0,__pdataCOMRAM
   577  0013A8  EE00  F02A         	lfsr	1,20
   578  0013AC  EE10 F014          	copy_data0:
   579  0013B0                     	tblrd	*+
   580  0013B0  0009               	movff	tablat, postinc0
   581  0013B2  CFF5 FFEE          	movf	postdec1,w
   582  0013B6  50E5               	movf	fsr1l,w
   583  0013B8  50E1               	bnz	copy_data0
   584  0013BA  E1FA               	line	#
   585                           ; Clear objects allocated to COMRAM (3 bytes)
   586                           	global __pbssCOMRAM
   587                           clrf	(__pbssCOMRAM+2)&0xffh,c
   588  0013BC  6A40               clrf	(__pbssCOMRAM+1)&0xffh,c
   589  0013BE  6A3F               clrf	(__pbssCOMRAM+0)&0xffh,c
   590  0013C0  6A3E               psect cinit,class=CODE,delta=1
   591                           global end_of_initialization,__end_of__initialization
   592                           
   593                           ;End of C runtime variable initialization code
   594                           
   595                           end_of_initialization:
   596  0013C2                     __end_of__initialization:
   597  0013C2                     	bcf int$flags,0,c ;clear compiler interrupt flag (level 1)
   598  0013C2  9041               	bcf int$flags,1,c ;clear compiler interrupt flag (level 2)
   599  0013C4  9241               	GLOBAL	__Lmediumconst
   600                           	movlw	low highword(__Lmediumconst)
   601  0013C6  0E00               	movwf	tblptru
   602  0013C8  6EF8               movlb 0
   603  0013CA  0100               goto _main	;jump to C main() function
   604  0013CC  EFC0  F006         psect	cstackCOMRAM,class=COMRAM,space=1,noexec
   605                           global __pcstackCOMRAM
   606                           __pcstackCOMRAM:
   607  000001                     ?_Initialize_PIC:	; 1 bytes @ 0x0
   608  000001                     ?_initialize_timer:	; 1 bytes @ 0x0
   609  000001                     ?_high_prio:	; 1 bytes @ 0x0
   610  000001                     ?_timer_display:	; 1 bytes @ 0x0
   611  000001                     ?_increment_time:	; 1 bytes @ 0x0
   612  000001                     ?_Initialize_LCD:	; 1 bytes @ 0x0
   613  000001                     ?_main:	; 1 bytes @ 0x0
   614  000001                     ?_My_ISR_High:	; 1 bytes @ 0x0
   615  000001                     ?_Timer:	; 1 bytes @ 0x0
   616  000001                     ?i2_Print_To_LCD:	; 1 bytes @ 0x0
   617  000001                     ?i1_initialize_timer:	; 1 bytes @ 0x0
   618  000001                     ?i2_initialize_timer:	; 1 bytes @ 0x0
   619  000001                     ??i2_initialize_timer:	; 1 bytes @ 0x0
   620  000001                     	global	?i2___awdiv
   621                           ?i2___awdiv:	; 2 bytes @ 0x0
   622  000001                     	global	?i2___awmod
   623                           ?i2___awmod:	; 2 bytes @ 0x0
   624  000001                     	global	i2Print_To_LCD@tempPtr
   625                           i2Print_To_LCD@tempPtr:	; 2 bytes @ 0x0
   626  000001                     	global	i2___awdiv@dividend
   627                           i2___awdiv@dividend:	; 2 bytes @ 0x0
   628  000001                     	global	i2___awmod@dividend
   629                           i2___awmod@dividend:	; 2 bytes @ 0x0
   630  000001                     	ds   2
   631  000001                     ??i2_Print_To_LCD:	; 1 bytes @ 0x2
   632  000003                     	global	i2initialize_timer@x
   633                           i2initialize_timer@x:	; 2 bytes @ 0x2
   634  000003                     	global	i2___awdiv@divisor
   635                           i2___awdiv@divisor:	; 2 bytes @ 0x2
   636  000003                     	global	i2___awmod@divisor
   637                           i2___awmod@divisor:	; 2 bytes @ 0x2
   638  000003                     	ds   1
   639  000003                     	global	i2Print_To_LCD@currentChar
   640                           i2Print_To_LCD@currentChar:	; 1 bytes @ 0x3
   641  000004                     	ds   1
   642  000004                     ??i2___awdiv:	; 1 bytes @ 0x4
   643  000005                     ??i2___awmod:	; 1 bytes @ 0x4
   644  000005                     	global	i2initialize_timer@high
   645                           i2initialize_timer@high:	; 1 bytes @ 0x4
   646  000005                     	global	i2___awdiv@counter
   647                           i2___awdiv@counter:	; 1 bytes @ 0x4
   648  000005                     	global	i2___awmod@counter
   649                           i2___awmod@counter:	; 1 bytes @ 0x4
   650  000005                     	ds   1
   651  000005                     	global	i2initialize_timer@low
   652                           i2initialize_timer@low:	; 1 bytes @ 0x5
   653  000006                     	global	i2___awdiv@sign
   654                           i2___awdiv@sign:	; 1 bytes @ 0x5
   655  000006                     	global	i2___awmod@sign
   656                           i2___awmod@sign:	; 1 bytes @ 0x5
   657  000006                     	ds   1
   658  000006                     	global	i2initialize_timer@pre
   659                           i2initialize_timer@pre:	; 2 bytes @ 0x6
   660  000007                     	global	i2___awdiv@quotient
   661                           i2___awdiv@quotient:	; 2 bytes @ 0x6
   662  000007                     	ds   2
   663  000007                     ??_high_prio:	; 1 bytes @ 0x8
   664  000009                     	ds   1
   665  000009                     ??_My_ISR_High:	; 1 bytes @ 0x9
   666  00000A                     	ds   6
   667  00000A                     ?i1_Print_To_LCD:	; 1 bytes @ 0xF
   668  000010                     ??i1_initialize_timer:	; 1 bytes @ 0xF
   669  000010                     	global	?i1___awdiv
   670                           ?i1___awdiv:	; 2 bytes @ 0xF
   671  000010                     	global	?i1___awmod
   672                           ?i1___awmod:	; 2 bytes @ 0xF
   673  000010                     	global	i1Print_To_LCD@tempPtr
   674                           i1Print_To_LCD@tempPtr:	; 2 bytes @ 0xF
   675  000010                     	global	i1___awdiv@dividend
   676                           i1___awdiv@dividend:	; 2 bytes @ 0xF
   677  000010                     	global	i1___awmod@dividend
   678                           i1___awmod@dividend:	; 2 bytes @ 0xF
   679  000010                     	ds   2
   680  000010                     ??i1_Print_To_LCD:	; 1 bytes @ 0x11
   681  000012                     	global	i1initialize_timer@x
   682                           i1initialize_timer@x:	; 2 bytes @ 0x11
   683  000012                     	global	i1___awdiv@divisor
   684                           i1___awdiv@divisor:	; 2 bytes @ 0x11
   685  000012                     	global	i1___awmod@divisor
   686                           i1___awmod@divisor:	; 2 bytes @ 0x11
   687  000012                     	ds   1
   688  000012                     	global	i1Print_To_LCD@currentChar
   689                           i1Print_To_LCD@currentChar:	; 1 bytes @ 0x12
   690  000013                     	ds   1
   691  000013                     ??i1___awdiv:	; 1 bytes @ 0x13
   692  000014                     ??i1___awmod:	; 1 bytes @ 0x13
   693  000014                     	global	i1initialize_timer@high
   694                           i1initialize_timer@high:	; 1 bytes @ 0x13
   695  000014                     	global	i1___awdiv@counter
   696                           i1___awdiv@counter:	; 1 bytes @ 0x13
   697  000014                     	global	i1___awmod@counter
   698                           i1___awmod@counter:	; 1 bytes @ 0x13
   699  000014                     	ds   1
   700  000014                     	global	i1initialize_timer@low
   701                           i1initialize_timer@low:	; 1 bytes @ 0x14
   702  000015                     	global	i1___awdiv@sign
   703                           i1___awdiv@sign:	; 1 bytes @ 0x14
   704  000015                     	global	i1___awmod@sign
   705                           i1___awmod@sign:	; 1 bytes @ 0x14
   706  000015                     	ds   1
   707  000015                     	global	i1initialize_timer@pre
   708                           i1initialize_timer@pre:	; 2 bytes @ 0x15
   709  000016                     	global	i1___awdiv@quotient
   710                           i1___awdiv@quotient:	; 2 bytes @ 0x15
   711  000016                     	ds   2
   712  000016                     ??_timer_display:	; 1 bytes @ 0x17
   713  000018                     ??_increment_time:	; 1 bytes @ 0x17
   714  000018                     	ds   1
   715  000018                     ??_Timer:	; 1 bytes @ 0x18
   716  000019                     	ds   9
   717  000019                     ?_Print_To_LCD:	; 1 bytes @ 0x21
   718  000022                     ??_initialize_timer:	; 1 bytes @ 0x21
   719  000022                     ??_Initialize_LCD:	; 1 bytes @ 0x21
   720  000022                     	global	?___awdiv
   721                           ?___awdiv:	; 2 bytes @ 0x21
   722  000022                     	global	?___awmod
   723                           ?___awmod:	; 2 bytes @ 0x21
   724  000022                     	global	Print_To_LCD@tempPtr
   725                           Print_To_LCD@tempPtr:	; 2 bytes @ 0x21
   726  000022                     	global	___awdiv@dividend
   727                           ___awdiv@dividend:	; 2 bytes @ 0x21
   728  000022                     	global	___awmod@dividend
   729                           ___awmod@dividend:	; 2 bytes @ 0x21
   730  000022                     	ds   2
   731  000022                     ??_Print_To_LCD:	; 1 bytes @ 0x23
   732  000024                     	global	Initialize_LCD@tempPtr
   733                           Initialize_LCD@tempPtr:	; 2 bytes @ 0x23
   734  000024                     	global	initialize_timer@x
   735                           initialize_timer@x:	; 2 bytes @ 0x23
   736  000024                     	global	___awdiv@divisor
   737                           ___awdiv@divisor:	; 2 bytes @ 0x23
   738  000024                     	global	___awmod@divisor
   739                           ___awmod@divisor:	; 2 bytes @ 0x23
   740  000024                     	ds   1
   741  000024                     	global	Print_To_LCD@currentChar
   742                           Print_To_LCD@currentChar:	; 1 bytes @ 0x24
   743  000025                     	ds   1
   744  000025                     ??___awdiv:	; 1 bytes @ 0x25
   745  000026                     ??___awmod:	; 1 bytes @ 0x25
   746  000026                     	global	Initialize_LCD@currentChar
   747                           Initialize_LCD@currentChar:	; 1 bytes @ 0x25
   748  000026                     	global	initialize_timer@high
   749                           initialize_timer@high:	; 1 bytes @ 0x25
   750  000026                     	global	___awdiv@counter
   751                           ___awdiv@counter:	; 1 bytes @ 0x25
   752  000026                     	global	___awmod@counter
   753                           ___awmod@counter:	; 1 bytes @ 0x25
   754  000026                     	ds   1
   755  000026                     ??_Initialize_PIC:	; 1 bytes @ 0x26
   756  000027                     	global	initialize_timer@low
   757                           initialize_timer@low:	; 1 bytes @ 0x26
   758  000027                     	global	___awdiv@sign
   759                           ___awdiv@sign:	; 1 bytes @ 0x26
   760  000027                     	global	___awmod@sign
   761                           ___awmod@sign:	; 1 bytes @ 0x26
   762  000027                     	ds   1
   763  000027                     	global	initialize_timer@pre
   764                           initialize_timer@pre:	; 2 bytes @ 0x27
   765  000028                     	global	___awdiv@quotient
   766                           ___awdiv@quotient:	; 2 bytes @ 0x27
   767  000028                     	ds   2
   768  000028                     ??_main:	; 1 bytes @ 0x29
   769  00002A                     ;!
   770                           ;!Data Sizes:
   771                           ;!    Strings     0
   772                           ;!    Constant    28
   773                           ;!    Data        20
   774                           ;!    BSS         3
   775                           ;!    Persistent  0
   776                           ;!    Stack       0
   777                           ;!
   778                           ;!Auto Spaces:
   779                           ;!    Space          Size  Autos    Used
   780                           ;!    COMRAM          126     41      64
   781                           ;!    BANK0           128      0       0
   782                           ;!    BANK1           256      0       0
   783                           ;!    BANK2           256      0       0
   784                           ;!    BANK3           256      0       0
   785                           ;!    BANK4           256      0       0
   786                           ;!    BANK5           256      0       0
   787                           
   788                           ;!
   789                           ;!Pointer List with Targets:
   790                           ;!
   791                           ;!    Print_To_LCD@tempPtr	PTR const unsigned char  size(2) Largest target is 10
   792                           ;!		 -> Str_1(COMRAM[10]), Clear2(CODE[10]), Clear1(CODE[10]), 
   793                           ;!
   794                           ;!    Initialize_LCD@tempPtr	PTR unsigned char  size(2) Largest target is 8
   795                           ;!		 -> LCDstr(CODE[8]), 
   796                           ;!
   797                           
   798                           
   799                           ;!
   800                           ;!Critical Paths under _main in COMRAM
   801                           ;!
   802                           ;!    _main->___awdiv
   803                           ;!    _main->_initialize_timer
   804                           ;!    _Initialize_PIC->_Initialize_LCD
   805                           ;!
   806                           ;!Critical Paths under _Timer in COMRAM
   807                           ;!
   808                           ;!    _Timer->_timer_display
   809                           ;!    _timer_display->i1_initialize_timer
   810                           ;!    _increment_time->i1___awdiv
   811                           ;!
   812                           ;!Critical Paths under _My_ISR_High in COMRAM
   813                           ;!
   814                           ;!    _My_ISR_High->_high_prio
   815                           ;!    _high_prio->i2___awdiv
   816                           ;!    _high_prio->i2_initialize_timer
   817                           ;!
   818                           ;!Critical Paths under _main in BANK0
   819                           ;!
   820                           ;!    None.
   821                           ;!
   822                           ;!Critical Paths under _Timer in BANK0
   823                           ;!
   824                           ;!    None.
   825                           ;!
   826                           ;!Critical Paths under _My_ISR_High in BANK0
   827                           ;!
   828                           ;!    None.
   829                           ;!
   830                           ;!Critical Paths under _main in BANK1
   831                           ;!
   832                           ;!    None.
   833                           ;!
   834                           ;!Critical Paths under _Timer in BANK1
   835                           ;!
   836                           ;!    None.
   837                           ;!
   838                           ;!Critical Paths under _My_ISR_High in BANK1
   839                           ;!
   840                           ;!    None.
   841                           ;!
   842                           ;!Critical Paths under _main in BANK2
   843                           ;!
   844                           ;!    None.
   845                           ;!
   846                           ;!Critical Paths under _Timer in BANK2
   847                           ;!
   848                           ;!    None.
   849                           ;!
   850                           ;!Critical Paths under _My_ISR_High in BANK2
   851                           ;!
   852                           ;!    None.
   853                           ;!
   854                           ;!Critical Paths under _main in BANK3
   855                           ;!
   856                           ;!    None.
   857                           ;!
   858                           ;!Critical Paths under _Timer in BANK3
   859                           ;!
   860                           ;!    None.
   861                           ;!
   862                           ;!Critical Paths under _My_ISR_High in BANK3
   863                           ;!
   864                           ;!    None.
   865                           ;!
   866                           ;!Critical Paths under _main in BANK4
   867                           ;!
   868                           ;!    None.
   869                           ;!
   870                           ;!Critical Paths under _Timer in BANK4
   871                           ;!
   872                           ;!    None.
   873                           ;!
   874                           ;!Critical Paths under _My_ISR_High in BANK4
   875                           ;!
   876                           ;!    None.
   877                           ;!
   878                           ;!Critical Paths under _main in BANK5
   879                           ;!
   880                           ;!    None.
   881                           ;!
   882                           ;!Critical Paths under _Timer in BANK5
   883                           ;!
   884                           ;!    None.
   885                           ;!
   886                           ;!Critical Paths under _My_ISR_High in BANK5
   887                           ;!
   888                           ;!    None.
   889                           
   890 ;;
   891 ;;Main: autosize = 0, tempsize = 0, incstack = 0, save=0
   892 ;;
   893                           
   894                           ;!
   895                           ;!Call Graph Tables:
   896                           ;!
   897                           ;! ---------------------------------------------------------------------------------
   898                           ;! (Depth) Function   	        Calls       Base Space   Used Autos Params    Refs
   899                           ;! ---------------------------------------------------------------------------------
   900                           ;! (0) _main                                                 0     0      0    3333
   901                           ;!                     _Initialize_PIC
   902                           ;!                       _Print_To_LCD
   903                           ;!                            ___awdiv
   904                           ;!                            ___awmod
   905                           ;!                   _initialize_timer
   906                           ;! ---------------------------------------------------------------------------------
   907                           ;! (1) _initialize_timer                                     8     8      0     114
   908                           ;!                                             33 COMRAM     8     8      0
   909                           ;! ---------------------------------------------------------------------------------
   910                           ;! (1) ___awmod                                              6     2      4    1352
   911                           ;!                                             33 COMRAM     6     2      4
   912                           ;! ---------------------------------------------------------------------------------
   913                           ;! (1) ___awdiv                                              8     4      4    1356
   914                           ;!                                             33 COMRAM     8     4      4
   915                           ;! ---------------------------------------------------------------------------------
   916                           ;! (1) _Print_To_LCD                                         4     2      2     419
   917                           ;!                                             33 COMRAM     4     2      2
   918                           ;! ---------------------------------------------------------------------------------
   919                           ;! (1) _Initialize_PIC                                       0     0      0      92
   920                           ;!                     _Initialize_LCD
   921                           ;! ---------------------------------------------------------------------------------
   922                           ;! (2) _Initialize_LCD                                       5     5      0      92
   923                           ;!                                             33 COMRAM     5     5      0
   924                           ;! ---------------------------------------------------------------------------------
   925                           ;! Estimated maximum stack depth 2
   926                           ;! ---------------------------------------------------------------------------------
   927                           ;! (Depth) Function   	        Calls       Base Space   Used Autos Params    Refs
   928                           ;! ---------------------------------------------------------------------------------
   929                           ;! (3) _Timer                                                9     9      0    1100
   930                           ;!                                             24 COMRAM     9     9      0
   931                           ;!                      _timer_display
   932                           ;! ---------------------------------------------------------------------------------
   933                           ;! (4) _timer_display                                        1     1      0    1100
   934                           ;!                                             23 COMRAM     1     1      0
   935                           ;!                     _increment_time
   936                           ;!                 i1_initialize_timer
   937                           ;! ---------------------------------------------------------------------------------
   938                           ;! (5) i1_initialize_timer                                   8     8      0      75
   939                           ;!                                             15 COMRAM     8     8      0
   940                           ;! ---------------------------------------------------------------------------------
   941                           ;! (5) _increment_time                                       0     0      0    1025
   942                           ;!                     i1_Print_To_LCD
   943                           ;!                          i1___awdiv
   944                           ;!                          i1___awmod
   945                           ;! ---------------------------------------------------------------------------------
   946                           ;! (6) i1___awmod                                            6     2      4     452
   947                           ;!                                             15 COMRAM     6     2      4
   948                           ;! ---------------------------------------------------------------------------------
   949                           ;! (6) i1___awdiv                                            8     4      4     456
   950                           ;!                                             15 COMRAM     8     4      4
   951                           ;! ---------------------------------------------------------------------------------
   952                           ;! (6) i1_Print_To_LCD                                       4     2      2     117
   953                           ;!                                             15 COMRAM     4     2      2
   954                           ;! ---------------------------------------------------------------------------------
   955                           ;! Estimated maximum stack depth 6
   956                           ;! ---------------------------------------------------------------------------------
   957                           ;! (Depth) Function   	        Calls       Base Space   Used Autos Params    Refs
   958                           ;! ---------------------------------------------------------------------------------
   959                           ;! (7) _My_ISR_High                                          6     6      0    1139
   960                           ;!                                              9 COMRAM     6     6      0
   961                           ;!                          _high_prio
   962                           ;! ---------------------------------------------------------------------------------
   963                           ;! (8) _high_prio                                            1     1      0    1139
   964                           ;!                                              8 COMRAM     1     1      0
   965                           ;!                     i2_Print_To_LCD
   966                           ;!                          i2___awdiv
   967                           ;!                          i2___awmod
   968                           ;!                 i2_initialize_timer
   969                           ;! ---------------------------------------------------------------------------------
   970                           ;! (9) i2_initialize_timer                                   8     8      0     114
   971                           ;!                                              0 COMRAM     8     8      0
   972                           ;! ---------------------------------------------------------------------------------
   973                           ;! (9) i2___awmod                                            6     2      4     452
   974                           ;!                                              0 COMRAM     6     2      4
   975                           ;! ---------------------------------------------------------------------------------
   976                           ;! (9) i2___awdiv                                            8     4      4     456
   977                           ;!                                              0 COMRAM     8     4      4
   978                           ;! ---------------------------------------------------------------------------------
   979                           ;! (9) i2_Print_To_LCD                                       4     2      2     117
   980                           ;!                                              0 COMRAM     4     2      2
   981                           ;! ---------------------------------------------------------------------------------
   982                           ;! Estimated maximum stack depth 9
   983                           ;! ---------------------------------------------------------------------------------
   984                           ;!
   985                           ;! Call Graph Graphs:
   986                           ;!
   987                           ;! _main (ROOT)
   988                           ;!   _Initialize_PIC
   989                           ;!     _Initialize_LCD
   990                           ;!   _Print_To_LCD
   991                           ;!   ___awdiv
   992                           ;!   ___awmod
   993                           ;!   _initialize_timer
   994                           ;!
   995                           ;! _Timer (ROOT)
   996                           ;!   _timer_display
   997                           ;!     _increment_time
   998                           ;!       i1_Print_To_LCD
   999                           ;!       i1___awdiv
  1000                           ;!       i1___awmod
  1001                           ;!     i1_initialize_timer
  1002                           ;!
  1003                           ;! _My_ISR_High (ROOT)
  1004                           ;!   _high_prio
  1005                           ;!     i2_Print_To_LCD
  1006                           ;!     i2___awdiv
  1007                           ;!     i2___awmod
  1008                           ;!     i2_initialize_timer
  1009                           ;!
  1010                           
  1011                           ;! Address spaces:
  1012                           
  1013                           ;!Name               Size   Autos  Total    Cost      Usage
  1014                           ;!BIGRAM             5FF      0       0      17        0.0%
  1015                           ;!EEDATA             100      0       0       0        0.0%
  1016                           ;!BITBANK5           100      0       0      16        0.0%
  1017                           ;!BANK5              100      0       0      14        0.0%
  1018                           ;!BITBANK4           100      0       0      12        0.0%
  1019                           ;!BANK4              100      0       0      13        0.0%
  1020                           ;!BITBANK3           100      0       0      10        0.0%
  1021                           ;!BANK3              100      0       0      11        0.0%
  1022                           ;!BITBANK2           100      0       0       8        0.0%
  1023                           ;!BANK2              100      0       0       9        0.0%
  1024                           ;!BITBANK1           100      0       0       6        0.0%
  1025                           ;!BANK1              100      0       0       7        0.0%
  1026                           ;!BITBANK0            80      0       0       4        0.0%
  1027                           ;!BANK0               80      0       0       5        0.0%
  1028                           ;!BITCOMRAM           7E      0       0       0        0.0%
  1029                           ;!COMRAM              7E     29      40       1       50.8%
  1030                           ;!BITSFR               0      0       0     200        0.0%
  1031                           ;!SFR                  0      0       0     200        0.0%
  1032                           ;!STACK                0      0       0       2        0.0%
  1033                           ;!NULL                 0      0       0       0        0.0%
  1034                           ;!ABS                  0      0      40      15        0.0%
  1035                           ;!DATA                 0      0      40       3        0.0%
  1036                           ;!CODE                 0      0       0       0        0.0%
  1037                           
  1038                           	global	_main
  1039                           
  1040 ;; *************** function _main *****************
  1041 ;; Defined at:
  1042 ;;		line 70 in file "lab6.c"
  1043 ;; Parameters:    Size  Location     Type
  1044 ;;		None
  1045 ;; Auto vars:     Size  Location     Type
  1046 ;;		None
  1047 ;; Return value:  Size  Location     Type
  1048 ;;                  1    wreg      void 
  1049 ;; Registers used:
  1050 ;;		wreg, fsr0l, fsr0h, status,2, status,0, tblptrl, tblptrh, tblptru, cstack
  1051 ;; Tracked objects:
  1052 ;;		On entry : 0/0
  1053 ;;		On exit  : 0/0
  1054 ;;		Unchanged: 0/0
  1055 ;; Data sizes:     COMRAM   BANK0   BANK1   BANK2   BANK3   BANK4   BANK5
  1056 ;;      Params:         0       0       0       0       0       0       0
  1057 ;;      Locals:         0       0       0       0       0       0       0
  1058 ;;      Temps:          0       0       0       0       0       0       0
  1059 ;;      Totals:         0       0       0       0       0       0       0
  1060 ;;Total ram usage:        0 bytes
  1061 ;; Hardware stack levels required when called:    9
  1062 ;; This function calls:
  1063 ;;		_Initialize_PIC
  1064 ;;		_Print_To_LCD
  1065 ;;		___awdiv
  1066 ;;		___awmod
  1067 ;;		_initialize_timer
  1068 ;; This function is called by:
  1069 ;;		Startup code after reset
  1070 ;; This function uses a non-reentrant model
  1071 ;;
  1072                           psect	text0,class=CODE,space=0,reloc=2,group=0
  1073                           	file	"lab6.c"
  1074                           	line	70
  1075                           global __ptext0
  1076                           __ptext0:
  1077  000D80                     psect	text0
  1078                           	file	"lab6.c"
  1079                           	line	70
  1080                           	global	__size_of_main
  1081                           	__size_of_main	equ	__end_of_main-_main
  1082  0000                     	
  1083                           _main:
  1084  000D80                     ;incstack = 0
  1085                           	opt	stack 22
  1086                           	line	72
  1087                           	
  1088                           l1846:
  1089  000D80                     ;lab6.c: 72: Initialize_PIC();
  1090                           	call	_Initialize_PIC	;wreg free
  1091  000D82  ECE8  F009         	line	73
  1092                           	
  1093                           l1848:
  1094  000D86                     ;lab6.c: 73: Print_To_LCD(Clear1);
  1095                           		movlw	low(_Clear1)
  1096  000D86  0E0B               	movwf	((c:Print_To_LCD@tempPtr)),c
  1097  000D88  6E22               	movlw	high(_Clear1)
  1098  000D8A  0E06               	movwf	((c:Print_To_LCD@tempPtr+1)),c
  1099  000D8C  6E23               
  1100                           	call	_Print_To_LCD	;wreg free
  1101  000D8E  EC09  F008         	line	74
  1102                           	
  1103                           l1850:
  1104  000D92                     ;lab6.c: 74: Print_To_LCD(Clear2);
  1105                           		movlw	low(_Clear2)
  1106  000D92  0E01               	movwf	((c:Print_To_LCD@tempPtr)),c
  1107  000D94  6E22               	movlw	high(_Clear2)
  1108  000D96  0E06               	movwf	((c:Print_To_LCD@tempPtr+1)),c
  1109  000D98  6E23               
  1110                           	call	_Print_To_LCD	;wreg free
  1111  000D9A  EC09  F008         	line	77
  1112                           	
  1113                           l1852:
  1114  000D9E                     ;lab6.c: 77: TRISB = 0b00001111;
  1115                           	movlw	low(0Fh)
  1116  000D9E  0E0F               	movwf	((c:3987)),c	;volatile
  1117  000DA0  6E93               	line	78
  1118                           	
  1119                           l1854:
  1120  000DA2                     ;lab6.c: 78: TRISA = 0b00010000;
  1121                           	movlw	low(010h)
  1122  000DA2  0E10               	movwf	((c:3986)),c	;volatile
  1123  000DA4  6E92               	line	81
  1124                           	
  1125                           l1856:
  1126  000DA6                     ;lab6.c: 81: initialize_timer();
  1127                           	call	_initialize_timer	;wreg free
  1128  000DA6  EC5F  F009         	line	84
  1129                           	
  1130                           l1858:
  1131  000DAA                     ;lab6.c: 84: INTCONbits.TMR0IE = 1;
  1132                           	bsf	((c:4082)),c,5	;volatile
  1133  000DAA  8AF2               	line	85
  1134                           	
  1135                           l1860:
  1136  000DAC                     ;lab6.c: 85: INTCONbits.INT0IE = 1;
  1137                           	bsf	((c:4082)),c,4	;volatile
  1138  000DAC  88F2               	line	86
  1139                           	
  1140                           l1862:
  1141  000DAE                     ;lab6.c: 86: INTCON2 = 0b11110000;
  1142                           	movlw	low(0F0h)
  1143  000DAE  0EF0               	movwf	((c:4081)),c	;volatile
  1144  000DB0  6EF1               	line	87
  1145                           	
  1146                           l1864:
  1147  000DB2                     ;lab6.c: 87: INTCON3 = 0b00001000;
  1148                           	movlw	low(08h)
  1149  000DB2  0E08               	movwf	((c:4080)),c	;volatile
  1150  000DB4  6EF0               	line	89
  1151                           	
  1152                           l1866:
  1153  000DB6                     ;lab6.c: 89: RCONbits.IPEN = 1;
  1154                           	bsf	((c:4048)),c,7	;volatile
  1155  000DB6  8ED0               	line	90
  1156                           	
  1157                           l1868:
  1158  000DB8                     ;lab6.c: 90: INTCONbits.PEIE = 1;
  1159                           	bsf	((c:4082)),c,6	;volatile
  1160  000DB8  8CF2               	line	91
  1161                           	
  1162                           l1870:
  1163  000DBA                     ;lab6.c: 91: INTCONbits.GIE = 1;
  1164                           	bsf	((c:4082)),c,7	;volatile
  1165  000DBA  8EF2               	line	94
  1166                           	
  1167                           l1872:
  1168  000DBC                     ;lab6.c: 94: h = 0, m = 0, s = 0;
  1169                           	movlw	low(0)
  1170  000DBC  0E00               	movwf	((c:_h)),c
  1171  000DBE  6E40               	
  1172                           l1874:
  1173  000DC0                     	movlw	low(0)
  1174  000DC0  0E00               	movwf	((c:_m)),c
  1175  000DC2  6E3F               	
  1176                           l1876:
  1177  000DC4                     	movlw	low(0)
  1178  000DC4  0E00               	movwf	((c:_s)),c
  1179  000DC6  6E3E               	line	95
  1180                           	
  1181                           l1878:
  1182  000DC8                     ;lab6.c: 95: Str_1[3] = ':';
  1183                           	movlw	low(03Ah)
  1184  000DC8  0E3A               	movwf	(0+((c:_Str_1)+03h)),c
  1185  000DCA  6E37               	line	96
  1186                           	
  1187                           l1880:
  1188  000DCC                     ;lab6.c: 96: Str_1[6] = ':';
  1189                           	movlw	low(03Ah)
  1190  000DCC  0E3A               	movwf	(0+((c:_Str_1)+06h)),c
  1191  000DCE  6E3A               	line	99
  1192                           	
  1193                           l1882:
  1194  000DD0                     ;lab6.c: 99: Str_1[1] = h/10 + '0';
  1195                           	movff	(c:_h),(c:___awdiv@dividend)
  1196  000DD0  C040  F022         	clrf	((c:___awdiv@dividend+1)),c
  1197  000DD4  6A23               	movlw	high(0Ah)
  1198  000DD6  0E00               	movwf	((c:___awdiv@divisor+1)),c
  1199  000DD8  6E25               	movlw	low(0Ah)
  1200  000DDA  0E0A               	movwf	((c:___awdiv@divisor)),c
  1201  000DDC  6E24               	call	___awdiv	;wreg free
  1202  000DDE  EC0F  F003         	movf	(0+?___awdiv),c,w
  1203  000DE2  5022               	addlw	low(030h)
  1204  000DE4  0F30               	movwf	(0+((c:_Str_1)+01h)),c
  1205  000DE6  6E35               	line	100
  1206                           	
  1207                           l1884:
  1208  000DE8                     ;lab6.c: 100: Str_1[2] = h%10 + '0';
  1209                           	movff	(c:_h),(c:___awmod@dividend)
  1210  000DE8  C040  F022         	clrf	((c:___awmod@dividend+1)),c
  1211  000DEC  6A23               	movlw	high(0Ah)
  1212  000DEE  0E00               	movwf	((c:___awmod@divisor+1)),c
  1213  000DF0  6E25               	movlw	low(0Ah)
  1214  000DF2  0E0A               	movwf	((c:___awmod@divisor)),c
  1215  000DF4  6E24               	call	___awmod	;wreg free
  1216  000DF6  ECB6  F004         	movf	(0+?___awmod),c,w
  1217  000DFA  5022               	addlw	low(030h)
  1218  000DFC  0F30               	movwf	(0+((c:_Str_1)+02h)),c
  1219  000DFE  6E36               	line	101
  1220                           	
  1221                           l1886:
  1222  000E00                     ;lab6.c: 101: Str_1[4] = m/10 + '0';
  1223                           	movff	(c:_m),(c:___awdiv@dividend)
  1224  000E00  C03F  F022         	clrf	((c:___awdiv@dividend+1)),c
  1225  000E04  6A23               	movlw	high(0Ah)
  1226  000E06  0E00               	movwf	((c:___awdiv@divisor+1)),c
  1227  000E08  6E25               	movlw	low(0Ah)
  1228  000E0A  0E0A               	movwf	((c:___awdiv@divisor)),c
  1229  000E0C  6E24               	call	___awdiv	;wreg free
  1230  000E0E  EC0F  F003         	movf	(0+?___awdiv),c,w
  1231  000E12  5022               	addlw	low(030h)
  1232  000E14  0F30               	movwf	(0+((c:_Str_1)+04h)),c
  1233  000E16  6E38               	line	102
  1234                           	
  1235                           l1888:
  1236  000E18                     ;lab6.c: 102: Str_1[5] = m%10 + '0';
  1237                           	movff	(c:_m),(c:___awmod@dividend)
  1238  000E18  C03F  F022         	clrf	((c:___awmod@dividend+1)),c
  1239  000E1C  6A23               	movlw	high(0Ah)
  1240  000E1E  0E00               	movwf	((c:___awmod@divisor+1)),c
  1241  000E20  6E25               	movlw	low(0Ah)
  1242  000E22  0E0A               	movwf	((c:___awmod@divisor)),c
  1243  000E24  6E24               	call	___awmod	;wreg free
  1244  000E26  ECB6  F004         	movf	(0+?___awmod),c,w
  1245  000E2A  5022               	addlw	low(030h)
  1246  000E2C  0F30               	movwf	(0+((c:_Str_1)+05h)),c
  1247  000E2E  6E39               	line	103
  1248                           	
  1249                           l1890:
  1250  000E30                     ;lab6.c: 103: Str_1[7] = s/10 + '0';
  1251                           	movff	(c:_s),(c:___awdiv@dividend)
  1252  000E30  C03E  F022         	clrf	((c:___awdiv@dividend+1)),c
  1253  000E34  6A23               	movlw	high(0Ah)
  1254  000E36  0E00               	movwf	((c:___awdiv@divisor+1)),c
  1255  000E38  6E25               	movlw	low(0Ah)
  1256  000E3A  0E0A               	movwf	((c:___awdiv@divisor)),c
  1257  000E3C  6E24               	call	___awdiv	;wreg free
  1258  000E3E  EC0F  F003         	movf	(0+?___awdiv),c,w
  1259  000E42  5022               	addlw	low(030h)
  1260  000E44  0F30               	movwf	(0+((c:_Str_1)+07h)),c
  1261  000E46  6E3B               	line	104
  1262                           	
  1263                           l1892:
  1264  000E48                     ;lab6.c: 104: Str_1[8] = s%10 + '0';
  1265                           	movff	(c:_s),(c:___awmod@dividend)
  1266  000E48  C03E  F022         	clrf	((c:___awmod@dividend+1)),c
  1267  000E4C  6A23               	movlw	high(0Ah)
  1268  000E4E  0E00               	movwf	((c:___awmod@divisor+1)),c
  1269  000E50  6E25               	movlw	low(0Ah)
  1270  000E52  0E0A               	movwf	((c:___awmod@divisor)),c
  1271  000E54  6E24               	call	___awmod	;wreg free
  1272  000E56  ECB6  F004         	movf	(0+?___awmod),c,w
  1273  000E5A  5022               	addlw	low(030h)
  1274  000E5C  0F30               	movwf	(0+((c:_Str_1)+08h)),c
  1275  000E5E  6E3C               	line	106
  1276                           	
  1277                           l1894:
  1278  000E60                     ;lab6.c: 106: Print_To_LCD(Str_1);
  1279                           		movlw	low(_Str_1)
  1280  000E60  0E34               	movwf	((c:Print_To_LCD@tempPtr)),c
  1281  000E62  6E22               	movlw	high(_Str_1)
  1282  000E64  0E00               	movwf	((c:Print_To_LCD@tempPtr+1)),c
  1283  000E66  6E23               
  1284                           	call	_Print_To_LCD	;wreg free
  1285  000E68  EC09  F008         	line	109
  1286                           	
  1287                           l1896:
  1288  000E6C                     ;lab6.c: 109: PORTAbits.RA1 = 0;
  1289                           	bcf	((c:3968)),c,1	;volatile
  1290  000E6C  9280               	line	110
  1291                           	
  1292                           l1898:
  1293  000E6E                     ;lab6.c: 110: PORTAbits.RA2 = 1;
  1294                           	bsf	((c:3968)),c,2	;volatile
  1295  000E6E  8480               	line	111
  1296                           	
  1297                           l1900:
  1298  000E70                     ;lab6.c: 111: PORTAbits.RA3 = 0;
  1299                           	bcf	((c:3968)),c,3	;volatile
  1300  000E70  9680               	line	114
  1301                           	
  1302                           l1902:
  1303  000E72                     ;lab6.c: 114: T0CONbits.TMR0ON = 1;
  1304                           	bsf	((c:4053)),c,7	;volatile
  1305  000E72  8ED5               	line	116
  1306                           ;lab6.c: 116: while(1) {
  1307                           	
  1308                           l73:
  1309  000E74                     	line	118
  1310                           	
  1311                           l74:
  1312  000E76                     	line	116
  1313                           	goto	l73
  1314  000E76  EF3A  F007         	
  1315                           l75:
  1316  000E7A                     	line	119
  1317                           	
  1318                           l76:
  1319  000E7A                     	global	start
  1320                           	goto	start
  1321  000E7A  EF4D  F000         	opt stack 0
  1322                           GLOBAL	__end_of_main
  1323                           	__end_of_main:
  1324  000E7E                     	signat	_main,89
  1325                           	global	_initialize_timer
  1326                           
  1327 ;; *************** function _initialize_timer *****************
  1328 ;; Defined at:
  1329 ;;		line 327 in file "lab6.c"
  1330 ;; Parameters:    Size  Location     Type
  1331 ;;		None
  1332 ;; Auto vars:     Size  Location     Type
  1333 ;;  pre             2   39[COMRAM] unsigned int 
  1334 ;;  x               2   35[COMRAM] unsigned int 
  1335 ;;  low             1   38[COMRAM] unsigned char 
  1336 ;;  high            1   37[COMRAM] unsigned char 
  1337 ;; Return value:  Size  Location     Type
  1338 ;;                  1    wreg      void 
  1339 ;; Registers used:
  1340 ;;		wreg, status,2, status,0
  1341 ;; Tracked objects:
  1342 ;;		On entry : 0/0
  1343 ;;		On exit  : 0/0
  1344 ;;		Unchanged: 0/0
  1345 ;; Data sizes:     COMRAM   BANK0   BANK1   BANK2   BANK3   BANK4   BANK5
  1346 ;;      Params:         0       0       0       0       0       0       0
  1347 ;;      Locals:         6       0       0       0       0       0       0
  1348 ;;      Temps:          2       0       0       0       0       0       0
  1349 ;;      Totals:         8       0       0       0       0       0       0
  1350 ;;Total ram usage:        8 bytes
  1351 ;; Hardware stack levels used:    1
  1352 ;; Hardware stack levels required when called:    7
  1353 ;; This function calls:
  1354 ;;		Nothing
  1355 ;; This function is called by:
  1356 ;;		_main
  1357 ;; This function uses a non-reentrant model
  1358 ;;
  1359                           psect	text1,class=CODE,space=0,reloc=2,group=0
  1360                           	line	327
  1361                           global __ptext1
  1362                           __ptext1:
  1363  0012BE                     psect	text1
  1364                           	file	"lab6.c"
  1365                           	line	327
  1366                           	global	__size_of_initialize_timer
  1367                           	__size_of_initialize_timer	equ	__end_of_initialize_timer-_initialize_timer
  1368  0000                     	
  1369                           _initialize_timer:
  1370  0012BE                     ;incstack = 0
  1371                           	opt	stack 23
  1372                           	line	329
  1373                           	
  1374                           l1728:
  1375  0012C0                     ;lab6.c: 329: T0CONbits.T08BIT = 0;
  1376                           	bcf	((c:4053)),c,6	;volatile
  1377  0012C0  9CD5               	line	330
  1378                           ;lab6.c: 330: T0CONbits.T0CS = 0;
  1379                           	bcf	((c:4053)),c,5	;volatile
  1380  0012C2  9AD5               	line	331
  1381                           ;lab6.c: 331: T0CONbits.T0SE = 0;
  1382                           	bcf	((c:4053)),c,4	;volatile
  1383  0012C4  98D5               	line	332
  1384                           ;lab6.c: 332: T0CONbits.PSA = 0;
  1385                           	bcf	((c:4053)),c,3	;volatile
  1386  0012C6  96D5               	line	333
  1387                           	
  1388                           l1730:
  1389  0012C8                     ;lab6.c: 333: T0CONbits.T0PS = 0b101;
  1390                           	movf	((c:4053)),c,w	;volatile
  1391  0012C8  50D5               	andlw	not (((1<<3)-1)<<0)
  1392  0012CA  0BF8               	iorlw	(05h & ((1<<3)-1))<<0
  1393  0012CC  0905               	movwf	((c:4053)),c	;volatile
  1394  0012CE  6ED5               	line	336
  1395                           ;lab6.c: 336: unsigned int x = (unsigned int)(2.5e6/64);
  1396                           	movlw	high(09896h)
  1397  0012D0  0E98               	movwf	((c:initialize_timer@x+1)),c
  1398  0012D2  6E25               	movlw	low(09896h)
  1399  0012D4  0E96               	movwf	((c:initialize_timer@x)),c
  1400  0012D6  6E24               	line	337
  1401                           	
  1402                           l1732:
  1403  0012D8                     ;lab6.c: 337: unsigned int pre = 65535 - x;
  1404                           	movff	(c:initialize_timer@x),??_initialize_timer+0+0
  1405  0012D8  C024  F022         	movff	(c:initialize_timer@x+1),??_initialize_timer+0+0+1
  1406  0012DC  C025  F023         	comf	(??_initialize_timer+0+0),c
  1407  0012E0  1E22               	comf	(??_initialize_timer+0+1),c
  1408  0012E2  1E23               	infsnz	(??_initialize_timer+0+0),c
  1409  0012E4  4A22               	incf	(??_initialize_timer+0+1),c
  1410  0012E6  2A23               	movlw	low(0FFFFh)
  1411  0012E8  0EFF               	addwf	(??_initialize_timer+0+0),c,w
  1412  0012EA  2422               	movwf	((c:initialize_timer@pre)),c
  1413  0012EC  6E28               	movlw	high(0FFFFh)
  1414  0012EE  0EFF               	addwfc	(??_initialize_timer+0+1),c,w
  1415  0012F0  2023               	movwf	1+((c:initialize_timer@pre)),c
  1416  0012F2  6E29               	line	339
  1417                           	
  1418                           l1734:
  1419  0012F4                     ;lab6.c: 339: unsigned char high = (pre >> 8);
  1420                           	movf	((c:initialize_timer@pre+1)),c,w
  1421  0012F4  5029               	movwf	((c:initialize_timer@high)),c
  1422  0012F6  6E26               	line	340
  1423                           	
  1424                           l1736:
  1425  0012F8                     ;lab6.c: 340: unsigned char low = (pre << 8) >> 8;
  1426                           	movff	(c:initialize_timer@pre),(c:initialize_timer@low)
  1427  0012F8  C028  F027         	line	341
  1428                           	
  1429                           l1738:
  1430  0012FC                     ;lab6.c: 341: TMR0H = high;
  1431                           	movff	(c:initialize_timer@high),(c:4055)	;volatile
  1432  0012FC  C026  FFD7         	line	342
  1433                           	
  1434                           l1740:
  1435  001300                     ;lab6.c: 342: TMR0L = low;
  1436                           	movff	(c:initialize_timer@low),(c:4054)	;volatile
  1437  001300  C027  FFD6         	line	343
  1438                           	
  1439                           l128:
  1440  001304                     	return	;funcret
  1441  001304  0012               	dw	0FFFFh; errata NOP
  1442  001306  FFFF               	opt stack 0
  1443                           GLOBAL	__end_of_initialize_timer
  1444                           	__end_of_initialize_timer:
  1445  001308                     	signat	_initialize_timer,89
  1446                           	global	___awmod
  1447                           
  1448 ;; *************** function ___awmod *****************
  1449 ;; Defined at:
  1450 ;;		line 7 in file "C:\Program Files (x86)\Microchip\xc8\v2.00\pic\sources\c90\common\awmod.c"
  1451 ;; Parameters:    Size  Location     Type
  1452 ;;  dividend        2   33[COMRAM] int 
  1453 ;;  divisor         2   35[COMRAM] int 
  1454 ;; Auto vars:     Size  Location     Type
  1455 ;;  sign            1   38[COMRAM] unsigned char 
  1456 ;;  counter         1   37[COMRAM] unsigned char 
  1457 ;; Return value:  Size  Location     Type
  1458 ;;                  2   33[COMRAM] int 
  1459 ;; Registers used:
  1460 ;;		wreg, status,2, status,0
  1461 ;; Tracked objects:
  1462 ;;		On entry : 0/0
  1463 ;;		On exit  : 0/0
  1464 ;;		Unchanged: 0/0
  1465 ;; Data sizes:     COMRAM   BANK0   BANK1   BANK2   BANK3   BANK4   BANK5
  1466 ;;      Params:         4       0       0       0       0       0       0
  1467 ;;      Locals:         2       0       0       0       0       0       0
  1468 ;;      Temps:          0       0       0       0       0       0       0
  1469 ;;      Totals:         6       0       0       0       0       0       0
  1470 ;;Total ram usage:        6 bytes
  1471 ;; Hardware stack levels used:    1
  1472 ;; Hardware stack levels required when called:    7
  1473 ;; This function calls:
  1474 ;;		Nothing
  1475 ;; This function is called by:
  1476 ;;		_main
  1477 ;; This function uses a non-reentrant model
  1478 ;;
  1479                           psect	text2,class=CODE,space=0,reloc=2,group=1
  1480                           	file	"C:\Program Files (x86)\Microchip\xc8\v2.00\pic\sources\c90\common\awmod.c"
  1481                           	line	7
  1482                           global __ptext2
  1483                           __ptext2:
  1484  00096C                     psect	text2
  1485                           	file	"C:\Program Files (x86)\Microchip\xc8\v2.00\pic\sources\c90\common\awmod.c"
  1486                           	line	7
  1487                           	global	__size_of___awmod
  1488                           	__size_of___awmod	equ	__end_of___awmod-___awmod
  1489  0000                     	
  1490                           ___awmod:
  1491  00096C                     ;incstack = 0
  1492                           	opt	stack 23
  1493                           	line	12
  1494                           	
  1495                           l1810:
  1496  00096E                     	movlw	low(0)
  1497  00096E  0E00               	movwf	((c:___awmod@sign)),c
  1498  000970  6E27               	line	13
  1499                           	
  1500                           l1812:
  1501  000972                     	btfsc	((c:___awmod@dividend+1)),c,7
  1502  000972  BE23               	goto	u1050
  1503  000974  EFC1  F004         	goto	u1051
  1504  000978  EFBE  F004         
  1505                           u1051:
  1506  00097C                     	goto	l1818
  1507  00097E  EFCA  F004         u1050:
  1508  000982                     	line	14
  1509                           	
  1510                           l1814:
  1511  000984                     	negf	((c:___awmod@dividend)),c
  1512  000984  6C22               	comf	((c:___awmod@dividend+1)),c
  1513  000986  1E23               	btfsc	status,0
  1514  000988  B0D8               	incf	((c:___awmod@dividend+1)),c
  1515  00098A  2A23               	line	15
  1516                           	
  1517                           l1816:
  1518  00098C                     	movlw	low(01h)
  1519  00098C  0E01               	movwf	((c:___awmod@sign)),c
  1520  00098E  6E27               	goto	l1818
  1521  000990  EFCA  F004         	line	16
  1522                           	
  1523                           l365:
  1524  000994                     	line	17
  1525                           	
  1526                           l1818:
  1527  000994                     	btfsc	((c:___awmod@divisor+1)),c,7
  1528  000996  BE25               	goto	u1060
  1529  000998  EFD3  F004         	goto	u1061
  1530  00099C  EFD0  F004         
  1531                           u1061:
  1532  0009A0                     	goto	l1822
  1533  0009A2  EFDA  F004         u1060:
  1534  0009A6                     	line	18
  1535                           	
  1536                           l1820:
  1537  0009A8                     	negf	((c:___awmod@divisor)),c
  1538  0009A8  6C24               	comf	((c:___awmod@divisor+1)),c
  1539  0009AA  1E25               	btfsc	status,0
  1540  0009AC  B0D8               	incf	((c:___awmod@divisor+1)),c
  1541  0009AE  2A25               	goto	l1822
  1542  0009B0  EFDA  F004         	
  1543                           l366:
  1544  0009B4                     	line	19
  1545                           	
  1546                           l1822:
  1547  0009B4                     	movf	((c:___awmod@divisor)),c,w
  1548  0009B6  5024               iorwf	((c:___awmod@divisor+1)),c,w
  1549  0009B8  1025               	btfsc	status,2
  1550  0009BA  B4D8               	goto	u1071
  1551  0009BC  EFE2  F004         	goto	u1070
  1552  0009C0  EFE5  F004         
  1553                           u1071:
  1554  0009C4                     	goto	l1838
  1555  0009C6  EF1E  F005         u1070:
  1556  0009CA                     	line	20
  1557                           	
  1558                           l1824:
  1559  0009CC                     	movlw	low(01h)
  1560  0009CC  0E01               	movwf	((c:___awmod@counter)),c
  1561  0009CE  6E26               	line	21
  1562                           	goto	l1828
  1563  0009D0  EFF1  F004         	
  1564                           l369:
  1565  0009D4                     	line	22
  1566                           	
  1567                           l1826:
  1568  0009D4                     	bcf	status,0
  1569  0009D6  90D8               	rlcf	((c:___awmod@divisor)),c
  1570  0009D8  3624               	rlcf	((c:___awmod@divisor+1)),c
  1571  0009DA  3625               	line	23
  1572                           	incf	((c:___awmod@counter)),c
  1573  0009DC  2A26               	goto	l1828
  1574  0009DE  EFF1  F004         	line	24
  1575                           	
  1576                           l368:
  1577  0009E2                     	line	21
  1578                           	
  1579                           l1828:
  1580  0009E2                     	
  1581                           	btfss	((c:___awmod@divisor+1)),c,(15)&7
  1582  0009E4  AE25               	goto	u1081
  1583  0009E6  EFF7  F004         	goto	u1080
  1584  0009EA  EFFA  F004         u1081:
  1585  0009EE                     	goto	l1826
  1586  0009F0  EFEA  F004         u1080:
  1587  0009F4                     	goto	l1830
  1588  0009F6  EFFF  F004         	
  1589                           l370:
  1590  0009FA                     	goto	l1830
  1591  0009FA  EFFF  F004         	line	25
  1592                           	
  1593                           l371:
  1594  0009FE                     	line	26
  1595                           	
  1596                           l1830:
  1597  0009FE                     		movf	((c:___awmod@divisor)),c,w
  1598  000A00  5024               	subwf	((c:___awmod@dividend)),c,w
  1599  000A02  5C22               	movf	((c:___awmod@divisor+1)),c,w
  1600  000A04  5025               	subwfb	((c:___awmod@dividend+1)),c,w
  1601  000A06  5823               	btfss	status,0
  1602  000A08  A0D8               	goto	u1091
  1603  000A0A  EF09  F005         	goto	u1090
  1604  000A0E  EF0C  F005         
  1605                           u1091:
  1606  000A12                     	goto	l1834
  1607  000A14  EF13  F005         u1090:
  1608  000A18                     	line	27
  1609                           	
  1610                           l1832:
  1611  000A1A                     	movf	((c:___awmod@divisor)),c,w
  1612  000A1A  5024               	subwf	((c:___awmod@dividend)),c
  1613  000A1C  5E22               	movf	((c:___awmod@divisor+1)),c,w
  1614  000A1E  5025               	subwfb	((c:___awmod@dividend+1)),c
  1615  000A20  5A23               
  1616                           	goto	l1834
  1617  000A22  EF13  F005         	
  1618                           l372:
  1619  000A26                     	line	28
  1620                           	
  1621                           l1834:
  1622  000A26                     	bcf	status,0
  1623  000A28  90D8               	rrcf	((c:___awmod@divisor+1)),c
  1624  000A2A  3225               	rrcf	((c:___awmod@divisor)),c
  1625  000A2C  3224               	line	29
  1626                           	
  1627                           l1836:
  1628  000A2E                     	decfsz	((c:___awmod@counter)),c
  1629  000A2E  2E26               	
  1630                           	goto	l1830
  1631  000A30  EFFF  F004         	goto	l1838
  1632  000A34  EF1E  F005         	
  1633                           l373:
  1634  000A38                     	goto	l1838
  1635  000A38  EF1E  F005         	line	30
  1636                           	
  1637                           l367:
  1638  000A3C                     	line	31
  1639                           	
  1640                           l1838:
  1641  000A3C                     	movf	((c:___awmod@sign)),c,w
  1642  000A3E  5027               	btfsc	status,2
  1643  000A40  B4D8               	goto	u1101
  1644  000A42  EF25  F005         	goto	u1100
  1645  000A46  EF28  F005         u1101:
  1646  000A4A                     	goto	l1842
  1647  000A4C  EF2F  F005         u1100:
  1648  000A50                     	line	32
  1649                           	
  1650                           l1840:
  1651  000A52                     	negf	((c:___awmod@dividend)),c
  1652  000A52  6C22               	comf	((c:___awmod@dividend+1)),c
  1653  000A54  1E23               	btfsc	status,0
  1654  000A56  B0D8               	incf	((c:___awmod@dividend+1)),c
  1655  000A58  2A23               	goto	l1842
  1656  000A5A  EF2F  F005         	
  1657                           l374:
  1658  000A5E                     	line	33
  1659                           	
  1660                           l1842:
  1661  000A5E                     	movff	(c:___awmod@dividend),(c:?___awmod)
  1662  000A60  C022  F022         	movff	(c:___awmod@dividend+1),(c:?___awmod+1)
  1663  000A64  C023  F023         	goto	l375
  1664  000A68  EF36  F005         	
  1665                           l1844:
  1666  000A6C                     	line	34
  1667                           	
  1668                           l375:
  1669  000A6C                     	return	;funcret
  1670  000A6E  0012               	dw	0FFFFh; errata NOP
  1671  000A70  FFFF               	opt stack 0
  1672                           GLOBAL	__end_of___awmod
  1673                           	__end_of___awmod:
  1674  000A72                     	signat	___awmod,8314
  1675                           	global	___awdiv
  1676                           
  1677 ;; *************** function ___awdiv *****************
  1678 ;; Defined at:
  1679 ;;		line 7 in file "C:\Program Files (x86)\Microchip\xc8\v2.00\pic\sources\c90\common\awdiv.c"
  1680 ;; Parameters:    Size  Location     Type
  1681 ;;  dividend        2   33[COMRAM] int 
  1682 ;;  divisor         2   35[COMRAM] int 
  1683 ;; Auto vars:     Size  Location     Type
  1684 ;;  quotient        2   39[COMRAM] int 
  1685 ;;  sign            1   38[COMRAM] unsigned char 
  1686 ;;  counter         1   37[COMRAM] unsigned char 
  1687 ;; Return value:  Size  Location     Type
  1688 ;;                  2   33[COMRAM] int 
  1689 ;; Registers used:
  1690 ;;		wreg, status,2, status,0
  1691 ;; Tracked objects:
  1692 ;;		On entry : 0/0
  1693 ;;		On exit  : 0/0
  1694 ;;		Unchanged: 0/0
  1695 ;; Data sizes:     COMRAM   BANK0   BANK1   BANK2   BANK3   BANK4   BANK5
  1696 ;;      Params:         4       0       0       0       0       0       0
  1697 ;;      Locals:         4       0       0       0       0       0       0
  1698 ;;      Temps:          0       0       0       0       0       0       0
  1699 ;;      Totals:         8       0       0       0       0       0       0
  1700 ;;Total ram usage:        8 bytes
  1701 ;; Hardware stack levels used:    1
  1702 ;; Hardware stack levels required when called:    7
  1703 ;; This function calls:
  1704 ;;		Nothing
  1705 ;; This function is called by:
  1706 ;;		_main
  1707 ;; This function uses a non-reentrant model
  1708 ;;
  1709                           psect	text3,class=CODE,space=0,reloc=2,group=1
  1710                           	file	"C:\Program Files (x86)\Microchip\xc8\v2.00\pic\sources\c90\common\awdiv.c"
  1711                           	line	7
  1712                           global __ptext3
  1713                           __ptext3:
  1714  00061E                     psect	text3
  1715                           	file	"C:\Program Files (x86)\Microchip\xc8\v2.00\pic\sources\c90\common\awdiv.c"
  1716                           	line	7
  1717                           	global	__size_of___awdiv
  1718                           	__size_of___awdiv	equ	__end_of___awdiv-___awdiv
  1719  0000                     	
  1720                           ___awdiv:
  1721  00061E                     ;incstack = 0
  1722                           	opt	stack 23
  1723                           	line	13
  1724                           	
  1725                           l1766:
  1726  000620                     	movlw	low(0)
  1727  000620  0E00               	movwf	((c:___awdiv@sign)),c
  1728  000622  6E27               	line	14
  1729                           	
  1730                           l1768:
  1731  000624                     	btfsc	((c:___awdiv@divisor+1)),c,7
  1732  000624  BE25               	goto	u990
  1733  000626  EF1A  F003         	goto	u991
  1734  00062A  EF17  F003         
  1735                           u991:
  1736  00062E                     	goto	l1774
  1737  000630  EF23  F003         u990:
  1738  000634                     	line	15
  1739                           	
  1740                           l1770:
  1741  000636                     	negf	((c:___awdiv@divisor)),c
  1742  000636  6C24               	comf	((c:___awdiv@divisor+1)),c
  1743  000638  1E25               	btfsc	status,0
  1744  00063A  B0D8               	incf	((c:___awdiv@divisor+1)),c
  1745  00063C  2A25               	line	16
  1746                           	
  1747                           l1772:
  1748  00063E                     	movlw	low(01h)
  1749  00063E  0E01               	movwf	((c:___awdiv@sign)),c
  1750  000640  6E27               	goto	l1774
  1751  000642  EF23  F003         	line	17
  1752                           	
  1753                           l352:
  1754  000646                     	line	18
  1755                           	
  1756                           l1774:
  1757  000646                     	btfsc	((c:___awdiv@dividend+1)),c,7
  1758  000648  BE23               	goto	u1000
  1759  00064A  EF2C  F003         	goto	u1001
  1760  00064E  EF29  F003         
  1761                           u1001:
  1762  000652                     	goto	l1780
  1763  000654  EF35  F003         u1000:
  1764  000658                     	line	19
  1765                           	
  1766                           l1776:
  1767  00065A                     	negf	((c:___awdiv@dividend)),c
  1768  00065A  6C22               	comf	((c:___awdiv@dividend+1)),c
  1769  00065C  1E23               	btfsc	status,0
  1770  00065E  B0D8               	incf	((c:___awdiv@dividend+1)),c
  1771  000660  2A23               	line	20
  1772                           	
  1773                           l1778:
  1774  000662                     	movlw	(01h)&0ffh
  1775  000662  0E01               	xorwf	((c:___awdiv@sign)),c
  1776  000664  1A27               	goto	l1780
  1777  000666  EF35  F003         	line	21
  1778                           	
  1779                           l353:
  1780  00066A                     	line	22
  1781                           	
  1782                           l1780:
  1783  00066A                     	movlw	high(0)
  1784  00066C  0E00               	movwf	((c:___awdiv@quotient+1)),c
  1785  00066E  6E29               	movlw	low(0)
  1786  000670  0E00               	movwf	((c:___awdiv@quotient)),c
  1787  000672  6E28               	line	23
  1788                           	
  1789                           l1782:
  1790  000674                     	movf	((c:___awdiv@divisor)),c,w
  1791  000674  5024               iorwf	((c:___awdiv@divisor+1)),c,w
  1792  000676  1025               	btfsc	status,2
  1793  000678  B4D8               	goto	u1011
  1794  00067A  EF41  F003         	goto	u1010
  1795  00067E  EF44  F003         
  1796                           u1011:
  1797  000682                     	goto	l1802
  1798  000684  EF81  F003         u1010:
  1799  000688                     	line	24
  1800                           	
  1801                           l1784:
  1802  00068A                     	movlw	low(01h)
  1803  00068A  0E01               	movwf	((c:___awdiv@counter)),c
  1804  00068C  6E26               	line	25
  1805                           	goto	l1788
  1806  00068E  EF50  F003         	
  1807                           l356:
  1808  000692                     	line	26
  1809                           	
  1810                           l1786:
  1811  000692                     	bcf	status,0
  1812  000694  90D8               	rlcf	((c:___awdiv@divisor)),c
  1813  000696  3624               	rlcf	((c:___awdiv@divisor+1)),c
  1814  000698  3625               	line	27
  1815                           	incf	((c:___awdiv@counter)),c
  1816  00069A  2A26               	goto	l1788
  1817  00069C  EF50  F003         	line	28
  1818                           	
  1819                           l355:
  1820  0006A0                     	line	25
  1821                           	
  1822                           l1788:
  1823  0006A0                     	
  1824                           	btfss	((c:___awdiv@divisor+1)),c,(15)&7
  1825  0006A2  AE25               	goto	u1021
  1826  0006A4  EF56  F003         	goto	u1020
  1827  0006A8  EF59  F003         u1021:
  1828  0006AC                     	goto	l1786
  1829  0006AE  EF49  F003         u1020:
  1830  0006B2                     	goto	l1790
  1831  0006B4  EF5E  F003         	
  1832                           l357:
  1833  0006B8                     	goto	l1790
  1834  0006B8  EF5E  F003         	line	29
  1835                           	
  1836                           l358:
  1837  0006BC                     	line	30
  1838                           	
  1839                           l1790:
  1840  0006BC                     	bcf	status,0
  1841  0006BE  90D8               	rlcf	((c:___awdiv@quotient)),c
  1842  0006C0  3628               	rlcf	((c:___awdiv@quotient+1)),c
  1843  0006C2  3629               	line	31
  1844                           	
  1845                           l1792:
  1846  0006C4                     		movf	((c:___awdiv@divisor)),c,w
  1847  0006C4  5024               	subwf	((c:___awdiv@dividend)),c,w
  1848  0006C6  5C22               	movf	((c:___awdiv@divisor+1)),c,w
  1849  0006C8  5025               	subwfb	((c:___awdiv@dividend+1)),c,w
  1850  0006CA  5823               	btfss	status,0
  1851  0006CC  A0D8               	goto	u1031
  1852  0006CE  EF6B  F003         	goto	u1030
  1853  0006D2  EF6E  F003         
  1854                           u1031:
  1855  0006D6                     	goto	l1798
  1856  0006D8  EF76  F003         u1030:
  1857  0006DC                     	line	32
  1858                           	
  1859                           l1794:
  1860  0006DE                     	movf	((c:___awdiv@divisor)),c,w
  1861  0006DE  5024               	subwf	((c:___awdiv@dividend)),c
  1862  0006E0  5E22               	movf	((c:___awdiv@divisor+1)),c,w
  1863  0006E2  5025               	subwfb	((c:___awdiv@dividend+1)),c
  1864  0006E4  5A23               
  1865                           	line	33
  1866                           	
  1867                           l1796:
  1868  0006E6                     	bsf	(0+(0/8)+(c:___awdiv@quotient)),c,(0)&7
  1869  0006E6  8028               	goto	l1798
  1870  0006E8  EF76  F003         	line	34
  1871                           	
  1872                           l359:
  1873  0006EC                     	line	35
  1874                           	
  1875                           l1798:
  1876  0006EC                     	bcf	status,0
  1877  0006EE  90D8               	rrcf	((c:___awdiv@divisor+1)),c
  1878  0006F0  3225               	rrcf	((c:___awdiv@divisor)),c
  1879  0006F2  3224               	line	36
  1880                           	
  1881                           l1800:
  1882  0006F4                     	decfsz	((c:___awdiv@counter)),c
  1883  0006F4  2E26               	
  1884                           	goto	l1790
  1885  0006F6  EF5E  F003         	goto	l1802
  1886  0006FA  EF81  F003         	
  1887                           l360:
  1888  0006FE                     	goto	l1802
  1889  0006FE  EF81  F003         	line	37
  1890                           	
  1891                           l354:
  1892  000702                     	line	38
  1893                           	
  1894                           l1802:
  1895  000702                     	movf	((c:___awdiv@sign)),c,w
  1896  000704  5027               	btfsc	status,2
  1897  000706  B4D8               	goto	u1041
  1898  000708  EF88  F003         	goto	u1040
  1899  00070C  EF8B  F003         u1041:
  1900  000710                     	goto	l1806
  1901  000712  EF92  F003         u1040:
  1902  000716                     	line	39
  1903                           	
  1904                           l1804:
  1905  000718                     	negf	((c:___awdiv@quotient)),c
  1906  000718  6C28               	comf	((c:___awdiv@quotient+1)),c
  1907  00071A  1E29               	btfsc	status,0
  1908  00071C  B0D8               	incf	((c:___awdiv@quotient+1)),c
  1909  00071E  2A29               	goto	l1806
  1910  000720  EF92  F003         	
  1911                           l361:
  1912  000724                     	line	40
  1913                           	
  1914                           l1806:
  1915  000724                     	movff	(c:___awdiv@quotient),(c:?___awdiv)
  1916  000726  C028  F022         	movff	(c:___awdiv@quotient+1),(c:?___awdiv+1)
  1917  00072A  C029  F023         	goto	l362
  1918  00072E  EF99  F003         	
  1919                           l1808:
  1920  000732                     	line	41
  1921                           	
  1922                           l362:
  1923  000732                     	return	;funcret
  1924  000734  0012               	dw	0FFFFh; errata NOP
  1925  000736  FFFF               	opt stack 0
  1926                           GLOBAL	__end_of___awdiv
  1927                           	__end_of___awdiv:
  1928  000738                     	signat	___awdiv,8314
  1929                           	global	_Print_To_LCD
  1930                           
  1931 ;; *************** function _Print_To_LCD *****************
  1932 ;; Defined at:
  1933 ;;		line 286 in file "lab6.c"
  1934 ;; Parameters:    Size  Location     Type
  1935 ;;  tempPtr         2   33[COMRAM] PTR const unsigned char 
  1936 ;;		 -> Str_1(10), Clear2(10), Clear1(10), 
  1937 ;; Auto vars:     Size  Location     Type
  1938 ;;  currentChar     1   36[COMRAM] unsigned char 
  1939 ;; Return value:  Size  Location     Type
  1940 ;;                  1    wreg      void 
  1941 ;; Registers used:
  1942 ;;		wreg, fsr0l, fsr0h, status,2, status,0, tblptrl, tblptrh, tblptru
  1943 ;; Tracked objects:
  1944 ;;		On entry : 0/0
  1945 ;;		On exit  : 0/0
  1946 ;;		Unchanged: 0/0
  1947 ;; Data sizes:     COMRAM   BANK0   BANK1   BANK2   BANK3   BANK4   BANK5
  1948 ;;      Params:         2       0       0       0       0       0       0
  1949 ;;      Locals:         1       0       0       0       0       0       0
  1950 ;;      Temps:          1       0       0       0       0       0       0
  1951 ;;      Totals:         4       0       0       0       0       0       0
  1952 ;;Total ram usage:        4 bytes
  1953 ;; Hardware stack levels used:    1
  1954 ;; Hardware stack levels required when called:    7
  1955 ;; This function calls:
  1956 ;;		Nothing
  1957 ;; This function is called by:
  1958 ;;		_main
  1959 ;; This function uses a non-reentrant model
  1960 ;;
  1961                           psect	text4,class=CODE,space=0,reloc=2,group=0
  1962                           	file	"lab6.c"
  1963                           	line	286
  1964                           global __ptext4
  1965                           __ptext4:
  1966  001012                     psect	text4
  1967                           	file	"lab6.c"
  1968                           	line	286
  1969                           	global	__size_of_Print_To_LCD
  1970                           	__size_of_Print_To_LCD	equ	__end_of_Print_To_LCD-_Print_To_LCD
  1971  0000                     	
  1972                           _Print_To_LCD:
  1973  001012                     ;incstack = 0
  1974                           	opt	stack 23
  1975                           	line	289
  1976                           	
  1977                           l1704:
  1978  001014                     ;lab6.c: 288: char currentChar;;lab6.c: 289: PORTEbits.RE0 = 0;
  1979                           	bcf	((c:3972)),c,0	;volatile
  1980  001014  9084               	line	291
  1981                           ;lab6.c: 291: while (*tempPtr)
  1982                           	goto	l119
  1983  001016  EF36  F008         	
  1984                           l120:
  1985  00101A                     	line	293
  1986                           	
  1987                           l1706:
  1988  00101A                     ;lab6.c: 292: {;lab6.c: 293: currentChar = *tempPtr;
  1989                           	movff	(c:Print_To_LCD@tempPtr),tblptrl
  1990  00101C  C022  FFF6         	movff	(c:Print_To_LCD@tempPtr+1),tblptrh
  1991  001020  C023  FFF7         	clrf	tblptru
  1992  001024  6AF8               	
  1993                           	movlw	high __ramtop-1
  1994  001026  0E05               	cpfsgt	tblptrh
  1995  001028  64F7               	bra	u927
  1996  00102A  D004               	tblrd	*
  1997  00102C  0008               		dw	0FFFFh; errata NOP
  1998  00102E  FFFF               
  1999                           	movf	tablat,w
  2000  001030  50F5               	bra	u920
  2001  001032  D005               u927:
  2002  001034                     	movff	tblptrl,fsr0l
  2003  001034  CFF6 FFE9          	movff	tblptrh,fsr0h
  2004  001038  CFF7 FFEA          	movf	indf0,w
  2005  00103C  50EF               u920:
  2006  00103E                     	movwf	((c:Print_To_LCD@currentChar)),c
  2007  00103E  6E25               	line	294
  2008                           	
  2009                           l1708:
  2010  001040                     ;lab6.c: 294: PORTEbits.RE1 = 1;
  2011                           	bsf	((c:3972)),c,1	;volatile
  2012  001040  8284               	line	295
  2013                           	
  2014                           l1710:
  2015  001042                     ;lab6.c: 295: PORTD = currentChar;
  2016                           	movff	(c:Print_To_LCD@currentChar),(c:3971)	;volatile
  2017  001042  C025  FF83         	line	296
  2018                           	
  2019                           l1712:
  2020  001046                     ;lab6.c: 296: PORTEbits.RE1 = 0;
  2021                           	bcf	((c:3972)),c,1	;volatile
  2022  001046  9284               	line	297
  2023                           	
  2024                           l1714:
  2025  001048                     ;lab6.c: 297: currentChar <<= 4;
  2026                           	swapf	((c:Print_To_LCD@currentChar)),c
  2027  001048  3A25               	movlw	240
  2028  00104A  0EF0               	andwf	((c:Print_To_LCD@currentChar)),c
  2029  00104C  1625               
  2030                           	line	298
  2031                           	
  2032                           l1716:
  2033  00104E                     ;lab6.c: 298: PORTEbits.RE1 = 1;
  2034                           	bsf	((c:3972)),c,1	;volatile
  2035  00104E  8284               	line	299
  2036                           	
  2037                           l1718:
  2038  001050                     ;lab6.c: 299: PORTD = currentChar;
  2039                           	movff	(c:Print_To_LCD@currentChar),(c:3971)	;volatile
  2040  001050  C025  FF83         	line	300
  2041                           	
  2042                           l1720:
  2043  001054                     ;lab6.c: 300: PORTEbits.RE1 = 0;
  2044                           	bcf	((c:3972)),c,1	;volatile
  2045  001054  9284               	line	301
  2046                           	
  2047                           l1722:
  2048  001056                     ;lab6.c: 301: _delay((unsigned long)((10)*(10000000/4000.0)));
  2049                           	opt asmopt_push
  2050                           opt asmopt_off
  2051                           movlw	25
  2052  001056  0E19               movwf	(??_Print_To_LCD+0+0)&0ffh,c,f
  2053  001058  6E24               	movlw	93
  2054  00105A  0E5D               u1157:
  2055  00105C                     	dw	0FFFFh; errata NOP
  2056  00105C  FFFF               decfsz	wreg,f
  2057  00105E  2EE8               	bra	u1157
  2058  001060  D7FD               	decfsz	(??_Print_To_LCD+0+0)&0ffh,c,f
  2059  001062  2E24               	bra	u1157
  2060  001064  D7FB               opt asmopt_pop
  2061                           
  2062                           	line	302
  2063                           	
  2064                           l1724:
  2065  001066                     ;lab6.c: 302: PORTEbits.RE0 = 1;
  2066                           	bsf	((c:3972)),c,0	;volatile
  2067  001066  8084               	line	303
  2068                           	
  2069                           l1726:
  2070  001068                     ;lab6.c: 303: tempPtr++;
  2071                           	infsnz	((c:Print_To_LCD@tempPtr)),c
  2072  001068  4A22               	incf	((c:Print_To_LCD@tempPtr+1)),c
  2073  00106A  2A23               	line	304
  2074                           	
  2075                           l119:
  2076  00106C                     	line	291
  2077                           	movff	(c:Print_To_LCD@tempPtr),tblptrl
  2078  00106E  C022  FFF6         	movff	(c:Print_To_LCD@tempPtr+1),tblptrh
  2079  001072  C023  FFF7         	clrf	tblptru
  2080  001076  6AF8               	
  2081                           	movlw	high __ramtop-1
  2082  001078  0E05               	cpfsgt	tblptrh
  2083  00107A  64F7               	bra	u937
  2084  00107C  D004               	tblrd	*
  2085  00107E  0008               		dw	0FFFFh; errata NOP
  2086  001080  FFFF               
  2087                           	movf	tablat,w
  2088  001082  50F5               	bra	u930
  2089  001084  D005               u937:
  2090  001086                     	movff	tblptrl,fsr0l
  2091  001086  CFF6 FFE9          	movff	tblptrh,fsr0h
  2092  00108A  CFF7 FFEA          	movf	indf0,w
  2093  00108E  50EF               u930:
  2094  001090                     	iorlw	0
  2095  001090  0900               	btfss	status,2
  2096  001092  A4D8               	goto	u941
  2097  001094  EF4E  F008         	goto	u940
  2098  001098  EF51  F008         u941:
  2099  00109C                     	goto	l1706
  2100  00109E  EF0D  F008         u940:
  2101  0010A2                     	goto	l122
  2102  0010A4  EF54  F008         	
  2103                           l121:
  2104  0010A8                     	line	305
  2105                           	
  2106                           l122:
  2107  0010A8                     	return	;funcret
  2108  0010AA  0012               	dw	0FFFFh; errata NOP
  2109  0010AC  FFFF               	opt stack 0
  2110                           GLOBAL	__end_of_Print_To_LCD
  2111                           	__end_of_Print_To_LCD:
  2112  0010AE                     	signat	_Print_To_LCD,4217
  2113                           	global	_Initialize_PIC
  2114                           
  2115 ;; *************** function _Initialize_PIC *****************
  2116 ;; Defined at:
  2117 ;;		line 223 in file "lab6.c"
  2118 ;; Parameters:    Size  Location     Type
  2119 ;;		None
  2120 ;; Auto vars:     Size  Location     Type
  2121 ;;		None
  2122 ;; Return value:  Size  Location     Type
  2123 ;;                  1    wreg      void 
  2124 ;; Registers used:
  2125 ;;		wreg, status,2, status,0, tblptrl, tblptrh, tblptru, cstack
  2126 ;; Tracked objects:
  2127 ;;		On entry : 0/0
  2128 ;;		On exit  : 0/0
  2129 ;;		Unchanged: 0/0
  2130 ;; Data sizes:     COMRAM   BANK0   BANK1   BANK2   BANK3   BANK4   BANK5
  2131 ;;      Params:         0       0       0       0       0       0       0
  2132 ;;      Locals:         0       0       0       0       0       0       0
  2133 ;;      Temps:          0       0       0       0       0       0       0
  2134 ;;      Totals:         0       0       0       0       0       0       0
  2135 ;;Total ram usage:        0 bytes
  2136 ;; Hardware stack levels used:    1
  2137 ;; Hardware stack levels required when called:    8
  2138 ;; This function calls:
  2139 ;;		_Initialize_LCD
  2140 ;; This function is called by:
  2141 ;;		_main
  2142 ;; This function uses a non-reentrant model
  2143 ;;
  2144                           psect	text5,class=CODE,space=0,reloc=2,group=0
  2145                           	line	223
  2146                           global __ptext5
  2147                           __ptext5:
  2148  0013D0                     psect	text5
  2149                           	file	"lab6.c"
  2150                           	line	223
  2151                           	global	__size_of_Initialize_PIC
  2152                           	__size_of_Initialize_PIC	equ	__end_of_Initialize_PIC-_Initialize_PIC
  2153  0000                     	
  2154                           _Initialize_PIC:
  2155  0013D0                     ;incstack = 0
  2156                           	opt	stack 22
  2157                           	line	227
  2158                           	
  2159                           l1694:
  2160  0013D2                     ;lab6.c: 227: ADCON1 = 0b10001110;
  2161                           	movlw	low(08Eh)
  2162  0013D2  0E8E               	movwf	((c:4033)),c	;volatile
  2163  0013D4  6EC1               	line	228
  2164                           ;lab6.c: 228: TRISA = 0b11100001;
  2165                           	movlw	low(0E1h)
  2166  0013D6  0EE1               	movwf	((c:3986)),c	;volatile
  2167  0013D8  6E92               	line	229
  2168                           ;lab6.c: 229: TRISB = 0b11011100;
  2169                           	movlw	low(0DCh)
  2170  0013DA  0EDC               	movwf	((c:3987)),c	;volatile
  2171  0013DC  6E93               	line	230
  2172                           ;lab6.c: 230: TRISC = 0b11010000;
  2173                           	movlw	low(0D0h)
  2174  0013DE  0ED0               	movwf	((c:3988)),c	;volatile
  2175  0013E0  6E94               	line	231
  2176                           ;lab6.c: 231: TRISD = 0b00001111;
  2177                           	movlw	low(0Fh)
  2178  0013E2  0E0F               	movwf	((c:3989)),c	;volatile
  2179  0013E4  6E95               	line	232
  2180                           ;lab6.c: 232: TRISE = 0b00000000;
  2181                           	movlw	low(0)
  2182  0013E6  0E00               	movwf	((c:3990)),c	;volatile
  2183  0013E8  6E96               	line	233
  2184                           ;lab6.c: 233: PORTA = 0b00010000;
  2185                           	movlw	low(010h)
  2186  0013EA  0E10               	movwf	((c:3968)),c	;volatile
  2187  0013EC  6E80               	line	234
  2188                           	
  2189                           l1696:
  2190  0013EE                     ;lab6.c: 234: PORTAbits.RA3 = 0;
  2191                           	bcf	((c:3968)),c,3	;volatile
  2192  0013EE  9680               	line	235
  2193                           	
  2194                           l1698:
  2195  0013F0                     ;lab6.c: 235: PORTAbits.RA2 = 0;
  2196                           	bcf	((c:3968)),c,2	;volatile
  2197  0013F0  9480               	line	236
  2198                           	
  2199                           l1700:
  2200  0013F2                     ;lab6.c: 236: PORTAbits.RA1 = 0;
  2201                           	bcf	((c:3968)),c,1	;volatile
  2202  0013F2  9280               	line	237
  2203                           	
  2204                           l1702:
  2205  0013F4                     ;lab6.c: 237: Initialize_LCD();
  2206                           	call	_Initialize_LCD	;wreg free
  2207  0013F4  ECB5  F007         	line	238
  2208                           	
  2209                           l110:
  2210  0013F8                     	return	;funcret
  2211  0013F8  0012               	dw	0FFFFh; errata NOP
  2212  0013FA  FFFF               	opt stack 0
  2213                           GLOBAL	__end_of_Initialize_PIC
  2214                           	__end_of_Initialize_PIC:
  2215  0013FC                     	signat	_Initialize_PIC,89
  2216                           	global	_Initialize_LCD
  2217                           
  2218 ;; *************** function _Initialize_LCD *****************
  2219 ;; Defined at:
  2220 ;;		line 248 in file "lab6.c"
  2221 ;; Parameters:    Size  Location     Type
  2222 ;;		None
  2223 ;; Auto vars:     Size  Location     Type
  2224 ;;  tempPtr         2   35[COMRAM] PTR unsigned char 
  2225 ;;		 -> LCDstr(8), 
  2226 ;;  currentChar     1   37[COMRAM] unsigned char 
  2227 ;; Return value:  Size  Location     Type
  2228 ;;                  1    wreg      void 
  2229 ;; Registers used:
  2230 ;;		wreg, status,2, status,0, tblptrl, tblptrh, tblptru
  2231 ;; Tracked objects:
  2232 ;;		On entry : 0/0
  2233 ;;		On exit  : 0/0
  2234 ;;		Unchanged: 0/0
  2235 ;; Data sizes:     COMRAM   BANK0   BANK1   BANK2   BANK3   BANK4   BANK5
  2236 ;;      Params:         0       0       0       0       0       0       0
  2237 ;;      Locals:         3       0       0       0       0       0       0
  2238 ;;      Temps:          2       0       0       0       0       0       0
  2239 ;;      Totals:         5       0       0       0       0       0       0
  2240 ;;Total ram usage:        5 bytes
  2241 ;; Hardware stack levels used:    1
  2242 ;; Hardware stack levels required when called:    7
  2243 ;; This function calls:
  2244 ;;		Nothing
  2245 ;; This function is called by:
  2246 ;;		_Initialize_PIC
  2247 ;; This function uses a non-reentrant model
  2248 ;;
  2249                           psect	text6,class=CODE,space=0,reloc=2,group=0
  2250                           	line	248
  2251                           global __ptext6
  2252                           __ptext6:
  2253  000F6A                     psect	text6
  2254                           	file	"lab6.c"
  2255                           	line	248
  2256                           	global	__size_of_Initialize_LCD
  2257                           	__size_of_Initialize_LCD	equ	__end_of_Initialize_LCD-_Initialize_LCD
  2258  0000                     	
  2259                           _Initialize_LCD:
  2260  000F6A                     ;incstack = 0
  2261                           	opt	stack 22
  2262                           	line	253
  2263                           	
  2264                           l1546:
  2265  000F6C                     ;lab6.c: 250: char currentChar;;lab6.c: 251: char *tempPtr;;lab6.c: 253: _delay((unsigne
                                 d long)((100)*(10000000/4000.0)));
  2266                           	opt asmopt_push
  2267                           opt asmopt_off
  2268                           movlw  1
  2269  000F6C  0E01               movwf	(??_Initialize_LCD+0+0+1)&0ffh,c,f
  2270  000F6E  6E23               movlw	244
  2271  000F70  0EF4               movwf	(??_Initialize_LCD+0+0)&0ffh,c,f
  2272  000F72  6E22               	movlw	168
  2273  000F74  0EA8               u1167:
  2274  000F76                     	dw	0FFFFh; errata NOP
  2275  000F76  FFFF               decfsz	wreg,f
  2276  000F78  2EE8               	bra	u1167
  2277  000F7A  D7FD               	decfsz	(??_Initialize_LCD+0+0)&0ffh,c,f
  2278  000F7C  2E22               	bra	u1167
  2279  000F7E  D7FB               	decfsz	(??_Initialize_LCD+0+0+1)&0ffh,c,f
  2280  000F80  2E23               	bra	u1167
  2281  000F82  D7F9               	nop2
  2282  000F84  D000               opt asmopt_pop
  2283                           
  2284                           	line	255
  2285                           	
  2286                           l1548:
  2287  000F86                     ;lab6.c: 255: PORTEbits.RE0 = 0;
  2288                           	bcf	((c:3972)),c,0	;volatile
  2289  000F86  9084               	line	256
  2290                           	
  2291                           l1550:
  2292  000F88                     ;lab6.c: 256: tempPtr = LCDstr;
  2293                           		movlw	low(_LCDstr)
  2294  000F88  0E15               	movwf	((c:Initialize_LCD@tempPtr)),c
  2295  000F8A  6E24               	movlw	high(_LCDstr)
  2296  000F8C  0E06               	movwf	((c:Initialize_LCD@tempPtr+1)),c
  2297  000F8E  6E25               
  2298                           	line	258
  2299                           ;lab6.c: 258: while (*tempPtr)
  2300                           	goto	l1574
  2301  000F90  EFF2  F007         	
  2302                           l114:
  2303  000F94                     	line	260
  2304                           	
  2305                           l1552:
  2306  000F94                     ;lab6.c: 259: {;lab6.c: 260: currentChar = *tempPtr;
  2307                           	movff	(c:Initialize_LCD@tempPtr),tblptrl
  2308  000F96  C024  FFF6         	movff	(c:Initialize_LCD@tempPtr+1),tblptrh
  2309  000F9A  C025  FFF7         	if	0	;tblptru may be non-zero
  2310  000F9E                     	clrf	tblptru
  2312  000F9E                     	if	0	;tblptru may be non-zero
  2313  000F9E                     	global __mediumconst
  2314                           movlw	low highword(__mediumconst)
  2317  000F9E                     	tblrd	*
  2318  000F9E  0008               		dw	0FFFFh; errata NOP
  2319  000FA0  FFFF               
  2320                           	movff	tablat,(c:Initialize_LCD@currentChar)
  2321  000FA2  CFF5 F026          	line	261
  2322                           	
  2323                           l1554:
  2324  000FA6                     ;lab6.c: 261: PORTEbits.RE1 = 1;
  2325                           	bsf	((c:3972)),c,1	;volatile
  2326  000FA6  8284               	line	262
  2327                           	
  2328                           l1556:
  2329  000FA8                     ;lab6.c: 262: PORTD = currentChar;
  2330                           	movff	(c:Initialize_LCD@currentChar),(c:3971)	;volatile
  2331  000FA8  C026  FF83         	line	263
  2332                           	
  2333                           l1558:
  2334  000FAC                     ;lab6.c: 263: PORTEbits.RE1 = 0;
  2335                           	bcf	((c:3972)),c,1	;volatile
  2336  000FAC  9284               	line	264
  2337                           	
  2338                           l1560:
  2339  000FAE                     ;lab6.c: 264: _delay((unsigned long)((10)*(10000000/4000.0)));
  2340                           	opt asmopt_push
  2341                           opt asmopt_off
  2342                           movlw	25
  2343  000FAE  0E19               movwf	(??_Initialize_LCD+0+0)&0ffh,c,f
  2344  000FB0  6E22               	movlw	93
  2345  000FB2  0E5D               u1177:
  2346  000FB4                     	dw	0FFFFh; errata NOP
  2347  000FB4  FFFF               decfsz	wreg,f
  2348  000FB6  2EE8               	bra	u1177
  2349  000FB8  D7FD               	decfsz	(??_Initialize_LCD+0+0)&0ffh,c,f
  2350  000FBA  2E22               	bra	u1177
  2351  000FBC  D7FB               opt asmopt_pop
  2352                           
  2353                           	line	265
  2354                           	
  2355                           l1562:
  2356  000FBE                     ;lab6.c: 265: currentChar <<= 4;
  2357                           	swapf	((c:Initialize_LCD@currentChar)),c
  2358  000FBE  3A26               	movlw	240
  2359  000FC0  0EF0               	andwf	((c:Initialize_LCD@currentChar)),c
  2360  000FC2  1626               
  2361                           	line	266
  2362                           	
  2363                           l1564:
  2364  000FC4                     ;lab6.c: 266: PORTEbits.RE1 = 1;
  2365                           	bsf	((c:3972)),c,1	;volatile
  2366  000FC4  8284               	line	267
  2367                           	
  2368                           l1566:
  2369  000FC6                     ;lab6.c: 267: PORTD = currentChar;
  2370                           	movff	(c:Initialize_LCD@currentChar),(c:3971)	;volatile
  2371  000FC6  C026  FF83         	line	268
  2372                           	
  2373                           l1568:
  2374  000FCA                     ;lab6.c: 268: PORTEbits.RE1 = 0;
  2375                           	bcf	((c:3972)),c,1	;volatile
  2376  000FCA  9284               	line	269
  2377                           	
  2378                           l1570:
  2379  000FCC                     ;lab6.c: 269: _delay((unsigned long)((10)*(10000000/4000.0)));
  2380                           	opt asmopt_push
  2381                           opt asmopt_off
  2382                           movlw	25
  2383  000FCC  0E19               movwf	(??_Initialize_LCD+0+0)&0ffh,c,f
  2384  000FCE  6E22               	movlw	93
  2385  000FD0  0E5D               u1187:
  2386  000FD2                     	dw	0FFFFh; errata NOP
  2387  000FD2  FFFF               decfsz	wreg,f
  2388  000FD4  2EE8               	bra	u1187
  2389  000FD6  D7FD               	decfsz	(??_Initialize_LCD+0+0)&0ffh,c,f
  2390  000FD8  2E22               	bra	u1187
  2391  000FDA  D7FB               opt asmopt_pop
  2392                           
  2393                           	line	270
  2394                           	
  2395                           l1572:
  2396  000FDC                     ;lab6.c: 270: tempPtr++;
  2397                           	infsnz	((c:Initialize_LCD@tempPtr)),c
  2398  000FDC  4A24               	incf	((c:Initialize_LCD@tempPtr+1)),c
  2399  000FDE  2A25               	goto	l1574
  2400  000FE0  EFF2  F007         	line	271
  2401                           	
  2402                           l113:
  2403  000FE4                     	line	258
  2404                           	
  2405                           l1574:
  2406  000FE4                     	movff	(c:Initialize_LCD@tempPtr),tblptrl
  2407  000FE6  C024  FFF6         	movff	(c:Initialize_LCD@tempPtr+1),tblptrh
  2408  000FEA  C025  FFF7         	if	0	;tblptru may be non-zero
  2409  000FEE                     	clrf	tblptru
  2411  000FEE                     	if	0	;tblptru may be non-zero
  2412  000FEE                     	global __mediumconst
  2413                           movlw	low highword(__mediumconst)
  2416  000FEE                     	tblrd	*
  2417  000FEE  0008               		dw	0FFFFh; errata NOP
  2418  000FF0  FFFF               
  2419                           	movf	tablat,w
  2420  000FF2  50F5               	iorlw	0
  2421  000FF4  0900               	btfss	status,2
  2422  000FF6  A4D8               	goto	u761
  2423  000FF8  EF00  F008         	goto	u760
  2424  000FFC  EF03  F008         u761:
  2425  001000                     	goto	l1552
  2426  001002  EFCA  F007         u760:
  2427  001006                     	goto	l116
  2428  001008  EF06  F008         	
  2429                           l115:
  2430  00100C                     	line	272
  2431                           	
  2432                           l116:
  2433  00100C                     	return	;funcret
  2434  00100E  0012               	dw	0FFFFh; errata NOP
  2435  001010  FFFF               	opt stack 0
  2436                           GLOBAL	__end_of_Initialize_LCD
  2437                           	__end_of_Initialize_LCD:
  2438  001012                     	signat	_Initialize_LCD,89
  2439                           	global	_Timer
  2440                           
  2441 ;; *************** function _Timer *****************
  2442 ;; Defined at:
  2443 ;;		line 132 in file "lab6.c"
  2444 ;; Parameters:    Size  Location     Type
  2445 ;;		None
  2446 ;; Auto vars:     Size  Location     Type
  2447 ;;		None
  2448 ;; Return value:  Size  Location     Type
  2449 ;;                  1    wreg      void 
  2450 ;; Registers used:
  2451 ;;		wreg, fsr0l, fsr0h, status,2, status,0, tblptrl, tblptrh, tblptru, cstack
  2452 ;; Tracked objects:
  2453 ;;		On entry : 0/0
  2454 ;;		On exit  : 0/0
  2455 ;;		Unchanged: 0/0
  2456 ;; Data sizes:     COMRAM   BANK0   BANK1   BANK2   BANK3   BANK4   BANK5
  2457 ;;      Params:         0       0       0       0       0       0       0
  2458 ;;      Locals:         0       0       0       0       0       0       0
  2459 ;;      Temps:          9       0       0       0       0       0       0
  2460 ;;      Totals:         9       0       0       0       0       0       0
  2461 ;;Total ram usage:        9 bytes
  2462 ;; Hardware stack levels used:    1
  2463 ;; Hardware stack levels required when called:    6
  2464 ;; This function calls:
  2465 ;;		_timer_display
  2466 ;; This function is called by:
  2467 ;;		Interrupt level 1
  2468 ;; This function uses a non-reentrant model
  2469 ;;
  2470                           psect	intcodelo,class=CODE,space=0,reloc=2
  2471                           global __pintcodelo
  2472                           __pintcodelo:
  2473  000018                     psect	intcodelo
  2474                           	file	"lab6.c"
  2475                           	line	132
  2476                           	global	__size_of_Timer
  2477                           	__size_of_Timer	equ	__end_of_Timer-_Timer
  2478  0000                     	
  2479                           _Timer:
  2480  000018                     ;incstack = 0
  2481                           	opt	stack 22
  2482                           	bsf int$flags,0,c ;set compiler interrupt flag (level 1)
  2483  00001A  8041               	movff	status+0,??_Timer+0
  2484  00001C  CFD8 F019          	movff	wreg+0,??_Timer+1
  2485  000020  CFE8 F01A          	movff	bsr+0,??_Timer+2
  2486  000024  CFE0 F01B          	movff	fsr0l+0,??_Timer+3
  2487  000028  CFE9 F01C          	movff	fsr0h+0,??_Timer+4
  2488  00002C  CFEA F01D          	movff	tblptrl+0,??_Timer+5
  2489  000030  CFF6 F01E          	movff	tblptrh+0,??_Timer+6
  2490  000034  CFF7 F01F          	movff	tblptru+0,??_Timer+7
  2491  000038  CFF8 F020          	movff	tablat+0,??_Timer+8
  2492  00003C  CFF5 F021          	line	133
  2493                           	
  2494                           i1l1912:
  2495  000040                     ;lab6.c: 133: if( (INTCONbits.TMR0IE == 1) && (INTCONbits.TMR0IF == 1) ){
  2496                           	btfss	((c:4082)),c,5	;volatile
  2497  000040  AAF2               	goto	i1u113_21
  2498  000042  EF25  F000         	goto	i1u113_20
  2499  000046  EF28  F000         i1u113_21:
  2500  00004A                     	goto	i1l88
  2501  00004C  EF37  F000         i1u113_20:
  2502  000050                     	
  2503                           i1l1914:
  2504  000052                     	btfss	((c:4082)),c,2	;volatile
  2505  000052  A4F2               	goto	i1u114_21
  2506  000054  EF2E  F000         	goto	i1u114_20
  2507  000058  EF31  F000         i1u114_21:
  2508  00005C                     	goto	i1l88
  2509  00005E  EF37  F000         i1u114_20:
  2510  000062                     	line	134
  2511                           	
  2512                           i1l1916:
  2513  000064                     ;lab6.c: 134: timer_display();
  2514                           	call	_timer_display	;wreg free
  2515  000064  ECF3  F008         	line	135
  2516                           	
  2517                           i1l1918:
  2518  000068                     ;lab6.c: 135: INTCONbits.TMR0IF = 0;
  2519                           	bcf	((c:4082)),c,2	;volatile
  2520  000068  94F2               	goto	i1l88
  2521  00006A  EF37  F000         	line	136
  2522                           	
  2523                           i1l87:
  2524  00006E                     	line	137
  2525                           	
  2526                           i1l88:
  2527  00006E                     	movff	??_Timer+8,tablat+0
  2528  000070  C021  FFF5         	movff	??_Timer+7,tblptru+0
  2529  000074  C020  FFF8         	movff	??_Timer+6,tblptrh+0
  2530  000078  C01F  FFF7         	movff	??_Timer+5,tblptrl+0
  2531  00007C  C01E  FFF6         	movff	??_Timer+4,fsr0h+0
  2532  000080  C01D  FFEA         	movff	??_Timer+3,fsr0l+0
  2533  000084  C01C  FFE9         	movff	??_Timer+2,bsr+0
  2534  000088  C01B  FFE0         	movff	??_Timer+1,wreg+0
  2535  00008C  C01A  FFE8         	movff	??_Timer+0,status+0
  2536  000090  C019  FFD8         	bcf int$flags,0,c ;clear compiler interrupt flag (level 1)
  2537  000094  9041               	retfie
  2538  000096  0010               	dw	0FFFFh; errata NOP
  2539  000098  FFFF               	opt stack 0
  2540                           GLOBAL	__end_of_Timer
  2541                           	__end_of_Timer:
  2542  00009A                     	signat	_Timer,89
  2543                           	global	_timer_display
  2544                           
  2545 ;; *************** function _timer_display *****************
  2546 ;; Defined at:
  2547 ;;		line 171 in file "lab6.c"
  2548 ;; Parameters:    Size  Location     Type
  2549 ;;		None
  2550 ;; Auto vars:     Size  Location     Type
  2551 ;;		None
  2552 ;; Return value:  Size  Location     Type
  2553 ;;                  1    wreg      void 
  2554 ;; Registers used:
  2555 ;;		wreg, fsr0l, fsr0h, status,2, status,0, tblptrl, tblptrh, tblptru, cstack
  2556 ;; Tracked objects:
  2557 ;;		On entry : 0/0
  2558 ;;		On exit  : 0/0
  2559 ;;		Unchanged: 0/0
  2560 ;; Data sizes:     COMRAM   BANK0   BANK1   BANK2   BANK3   BANK4   BANK5
  2561 ;;      Params:         0       0       0       0       0       0       0
  2562 ;;      Locals:         0       0       0       0       0       0       0
  2563 ;;      Temps:          1       0       0       0       0       0       0
  2564 ;;      Totals:         1       0       0       0       0       0       0
  2565 ;;Total ram usage:        1 bytes
  2566 ;; Hardware stack levels used:    1
  2567 ;; Hardware stack levels required when called:    5
  2568 ;; This function calls:
  2569 ;;		_increment_time
  2570 ;;		i1_initialize_timer
  2571 ;; This function is called by:
  2572 ;;		_Timer
  2573 ;; This function uses a non-reentrant model
  2574 ;;
  2575                           psect	text8,class=CODE,space=0,reloc=2,group=0
  2576                           	line	171
  2577                           global __ptext8
  2578                           __ptext8:
  2579  0011E6                     psect	text8
  2580                           	file	"lab6.c"
  2581                           	line	171
  2582                           	global	__size_of_timer_display
  2583                           	__size_of_timer_display	equ	__end_of_timer_display-_timer_display
  2584  0000                     	
  2585                           _timer_display:
  2586  0011E6                     ;incstack = 0
  2587                           	opt	stack 22
  2588                           	line	173
  2589                           	
  2590                           i1l1752:
  2591  0011E8                     ;lab6.c: 173: while(PORTBbits.RB1 == 1){
  2592                           	goto	i1l1760
  2593  0011E8  EF18  F009         	
  2594                           i1l98:
  2595  0011EC                     	line	176
  2596                           ;lab6.c: 176: if(PORTBbits.RB3 == 1 && PORTBbits.RB2 == 1) {
  2597                           	btfss	((c:3969)),c,3	;volatile
  2598  0011EE  A681               	goto	i1u96_21
  2599  0011F0  EFFC  F008         	goto	i1u96_20
  2600  0011F4  EFFF  F008         i1u96_21:
  2601  0011F8                     	goto	i1l1760
  2602  0011FA  EF18  F009         i1u96_20:
  2603  0011FE                     	
  2604                           i1l1754:
  2605  001200                     	btfss	((c:3969)),c,2	;volatile
  2606  001200  A481               	goto	i1u97_21
  2607  001202  EF05  F009         	goto	i1u97_20
  2608  001206  EF08  F009         i1u97_21:
  2609  00120A                     	goto	i1l1760
  2610  00120C  EF18  F009         i1u97_20:
  2611  001210                     	line	177
  2612                           	
  2613                           i1l1756:
  2614  001212                     ;lab6.c: 177: increment_time();
  2615                           	call	_increment_time	;wreg free
  2616  001212  EC3F  F006         	line	178
  2617                           	
  2618                           i1l1758:
  2619  001216                     ;lab6.c: 178: _delay((unsigned long)((50)*(10000000/4000.0)));
  2620                           	opt asmopt_push
  2621                           opt asmopt_off
  2622                           movlw	122
  2623  001216  0E7A               movwf	(??_timer_display+0+0)&0ffh,c,f
  2624  001218  6E18               	movlw	212
  2625  00121A  0ED4               i1u119_27:
  2626  00121C                     	dw	0FFFFh; errata NOP
  2627  00121C  FFFF               decfsz	wreg,f
  2628  00121E  2EE8               	bra	i1u119_27
  2629  001220  D7FD               	decfsz	(??_timer_display+0+0)&0ffh,c,f
  2630  001222  2E18               	bra	i1u119_27
  2631  001224  D7FB               	nop2
  2632  001226  D000               opt asmopt_pop
  2633                           
  2634                           	goto	i1l1760
  2635  001228  EF18  F009         	line	179
  2636                           	
  2637                           i1l99:
  2638  00122C                     	goto	i1l1760
  2639  00122C  EF18  F009         	line	180
  2640                           	
  2641                           i1l97:
  2642  001230                     	line	173
  2643                           	
  2644                           i1l1760:
  2645  001230                     	btfsc	((c:3969)),c,1	;volatile
  2646  001232  B281               	goto	i1u98_21
  2647  001234  EF1E  F009         	goto	i1u98_20
  2648  001238  EF21  F009         i1u98_21:
  2649  00123C                     	goto	i1l98
  2650  00123E  EFF6  F008         i1u98_20:
  2651  001242                     	goto	i1l1762
  2652  001244  EF24  F009         	
  2653                           i1l100:
  2654  001248                     	line	183
  2655                           	
  2656                           i1l1762:
  2657  001248                     ;lab6.c: 179: };lab6.c: 180: };lab6.c: 183: increment_time();
  2658                           	call	_increment_time	;wreg free
  2659  00124A  EC3F  F006         	line	185
  2660                           	
  2661                           i1l1764:
  2662  00124E                     ;lab6.c: 185: initialize_timer();
  2663                           	call	i1_initialize_timer	;wreg free
  2664  00124E  EC84  F009         	line	186
  2665                           	
  2666                           i1l101:
  2667  001252                     	return	;funcret
  2668  001252  0012               	dw	0FFFFh; errata NOP
  2669  001254  FFFF               	opt stack 0
  2670                           GLOBAL	__end_of_timer_display
  2671                           	__end_of_timer_display:
  2672  001256                     	signat	_timer_display,89
  2673                           	global	i1_initialize_timer
  2674                           
  2675 ;; *************** function i1_initialize_timer *****************
  2676 ;; Defined at:
  2677 ;;		line 327 in file "lab6.c"
  2678 ;; Parameters:    Size  Location     Type
  2679 ;;		None
  2680 ;; Auto vars:     Size  Location     Type
  2681 ;;  initialize_t    2   21[COMRAM] unsigned int 
  2682 ;;  initialize_t    2   17[COMRAM] unsigned int 
  2683 ;;  initialize_t    1   20[COMRAM] unsigned char 
  2684 ;;  initialize_t    1   19[COMRAM] unsigned char 
  2685 ;; Return value:  Size  Location     Type
  2686 ;;                  1    wreg      void 
  2687 ;; Registers used:
  2688 ;;		wreg, status,2, status,0
  2689 ;; Tracked objects:
  2690 ;;		On entry : 0/0
  2691 ;;		On exit  : 0/0
  2692 ;;		Unchanged: 0/0
  2693 ;; Data sizes:     COMRAM   BANK0   BANK1   BANK2   BANK3   BANK4   BANK5
  2694 ;;      Params:         0       0       0       0       0       0       0
  2695 ;;      Locals:         6       0       0       0       0       0       0
  2696 ;;      Temps:          2       0       0       0       0       0       0
  2697 ;;      Totals:         8       0       0       0       0       0       0
  2698 ;;Total ram usage:        8 bytes
  2699 ;; Hardware stack levels used:    1
  2700 ;; Hardware stack levels required when called:    3
  2701 ;; This function calls:
  2702 ;;		Nothing
  2703 ;; This function is called by:
  2704 ;;		_timer_display
  2705 ;; This function uses a non-reentrant model
  2706 ;;
  2707                           psect	text9,class=CODE,space=0,reloc=2,group=0
  2708                           	line	327
  2709                           global __ptext9
  2710                           __ptext9:
  2711  001308                     psect	text9
  2712                           	file	"lab6.c"
  2713                           	line	327
  2714                           	global	__size_ofi1_initialize_timer
  2715                           	__size_ofi1_initialize_timer	equ	__end_ofi1_initialize_timer-i1_initialize_timer
  2716  0000                     	
  2717                           i1_initialize_timer:
  2718  001308                     ;incstack = 0
  2719                           	opt	stack 23
  2720                           	line	329
  2721                           	
  2722                           i1l1066:
  2723  00130A                     ;lab6.c: 329: T0CONbits.T08BIT = 0;
  2724                           	bcf	((c:4053)),c,6	;volatile
  2725  00130A  9CD5               	line	330
  2726                           ;lab6.c: 330: T0CONbits.T0CS = 0;
  2727                           	bcf	((c:4053)),c,5	;volatile
  2728  00130C  9AD5               	line	331
  2729                           ;lab6.c: 331: T0CONbits.T0SE = 0;
  2730                           	bcf	((c:4053)),c,4	;volatile
  2731  00130E  98D5               	line	332
  2732                           ;lab6.c: 332: T0CONbits.PSA = 0;
  2733                           	bcf	((c:4053)),c,3	;volatile
  2734  001310  96D5               	line	333
  2735                           	
  2736                           i1l1068:
  2737  001312                     ;lab6.c: 333: T0CONbits.T0PS = 0b101;
  2738                           	movf	((c:4053)),c,w	;volatile
  2739  001312  50D5               	andlw	not (((1<<3)-1)<<0)
  2740  001314  0BF8               	iorlw	(05h & ((1<<3)-1))<<0
  2741  001316  0905               	movwf	((c:4053)),c	;volatile
  2742  001318  6ED5               	line	336
  2743                           ;lab6.c: 336: unsigned int x = (unsigned int)(2.5e6/64);
  2744                           	movlw	high(09896h)
  2745  00131A  0E98               	movwf	((c:i1initialize_timer@x+1)),c
  2746  00131C  6E13               	movlw	low(09896h)
  2747  00131E  0E96               	movwf	((c:i1initialize_timer@x)),c
  2748  001320  6E12               	line	337
  2749                           	
  2750                           i1l1070:
  2751  001322                     ;lab6.c: 337: unsigned int pre = 65535 - x;
  2752                           	movff	(c:i1initialize_timer@x),??i1_initialize_timer+0+0
  2753  001322  C012  F010         	movff	(c:i1initialize_timer@x+1),??i1_initialize_timer+0+0+1
  2754  001326  C013  F011         	comf	(??i1_initialize_timer+0+0),c
  2755  00132A  1E10               	comf	(??i1_initialize_timer+0+1),c
  2756  00132C  1E11               	infsnz	(??i1_initialize_timer+0+0),c
  2757  00132E  4A10               	incf	(??i1_initialize_timer+0+1),c
  2758  001330  2A11               	movlw	low(0FFFFh)
  2759  001332  0EFF               	addwf	(??i1_initialize_timer+0+0),c,w
  2760  001334  2410               	movwf	((c:i1initialize_timer@pre)),c
  2761  001336  6E16               	movlw	high(0FFFFh)
  2762  001338  0EFF               	addwfc	(??i1_initialize_timer+0+1),c,w
  2763  00133A  2011               	movwf	1+((c:i1initialize_timer@pre)),c
  2764  00133C  6E17               	line	339
  2765                           	
  2766                           i1l1072:
  2767  00133E                     ;lab6.c: 339: unsigned char high = (pre >> 8);
  2768                           	movf	((c:i1initialize_timer@pre+1)),c,w
  2769  00133E  5017               	movwf	((c:i1initialize_timer@high)),c
  2770  001340  6E14               	line	340
  2771                           	
  2772                           i1l1074:
  2773  001342                     ;lab6.c: 340: unsigned char low = (pre << 8) >> 8;
  2774                           	movff	(c:i1initialize_timer@pre),(c:i1initialize_timer@low)
  2775  001342  C016  F015         	line	341
  2776                           	
  2777                           i1l1076:
  2778  001346                     ;lab6.c: 341: TMR0H = high;
  2779                           	movff	(c:i1initialize_timer@high),(c:4055)	;volatile
  2780  001346  C014  FFD7         	line	342
  2781                           	
  2782                           i1l1078:
  2783  00134A                     ;lab6.c: 342: TMR0L = low;
  2784                           	movff	(c:i1initialize_timer@low),(c:4054)	;volatile
  2785  00134A  C015  FFD6         	line	343
  2786                           	
  2787                           i1l128:
  2788  00134E                     	return	;funcret
  2789  00134E  0012               	dw	0FFFFh; errata NOP
  2790  001350  FFFF               	opt stack 0
  2791                           GLOBAL	__end_ofi1_initialize_timer
  2792                           	__end_ofi1_initialize_timer:
  2793  001352                     	signat	i1_initialize_timer,89
  2794                           	global	_increment_time
  2795                           
  2796 ;; *************** function _increment_time *****************
  2797 ;; Defined at:
  2798 ;;		line 189 in file "lab6.c"
  2799 ;; Parameters:    Size  Location     Type
  2800 ;;		None
  2801 ;; Auto vars:     Size  Location     Type
  2802 ;;		None
  2803 ;; Return value:  Size  Location     Type
  2804 ;;                  1    wreg      void 
  2805 ;; Registers used:
  2806 ;;		wreg, fsr0l, fsr0h, status,2, status,0, tblptrl, tblptrh, tblptru, cstack
  2807 ;; Tracked objects:
  2808 ;;		On entry : 0/0
  2809 ;;		On exit  : 0/0
  2810 ;;		Unchanged: 0/0
  2811 ;; Data sizes:     COMRAM   BANK0   BANK1   BANK2   BANK3   BANK4   BANK5
  2812 ;;      Params:         0       0       0       0       0       0       0
  2813 ;;      Locals:         0       0       0       0       0       0       0
  2814 ;;      Temps:          0       0       0       0       0       0       0
  2815 ;;      Totals:         0       0       0       0       0       0       0
  2816 ;;Total ram usage:        0 bytes
  2817 ;; Hardware stack levels used:    1
  2818 ;; Hardware stack levels required when called:    4
  2819 ;; This function calls:
  2820 ;;		i1_Print_To_LCD
  2821 ;;		i1___awdiv
  2822 ;;		i1___awmod
  2823 ;; This function is called by:
  2824 ;;		_timer_display
  2825 ;; This function uses a non-reentrant model
  2826 ;;
  2827                           psect	text10,class=CODE,space=0,reloc=2,group=0
  2828                           	line	189
  2829                           global __ptext10
  2830                           __ptext10:
  2831  000C7E                     psect	text10
  2832                           	file	"lab6.c"
  2833                           	line	189
  2834                           	global	__size_of_increment_time
  2835                           	__size_of_increment_time	equ	__end_of_increment_time-_increment_time
  2836  0000                     	
  2837                           _increment_time:
  2838  000C7E                     ;incstack = 0
  2839                           	opt	stack 22
  2840                           	line	190
  2841                           	
  2842                           i1l1514:
  2843  000C80                     ;lab6.c: 190: s += 1;
  2844                           	incf	((c:_s)),c
  2845  000C80  2A3E               	line	192
  2846                           	
  2847                           i1l1516:
  2848  000C82                     ;lab6.c: 192: if (s > 60){
  2849                           		movlw	03Dh-1
  2850  000C82  0E3C               	cpfsgt	((c:_s)),c
  2851  000C84  643E               	goto	i1u73_21
  2852  000C86  EF47  F006         	goto	i1u73_20
  2853  000C8A  EF4A  F006         
  2854                           i1u73_21:
  2855  000C8E                     	goto	i1l1522
  2856  000C90  EF50  F006         i1u73_20:
  2857  000C94                     	line	193
  2858                           	
  2859                           i1l1518:
  2860  000C96                     ;lab6.c: 193: s = 0;
  2861                           	movlw	low(0)
  2862  000C96  0E00               	movwf	((c:_s)),c
  2863  000C98  6E3E               	line	194
  2864                           	
  2865                           i1l1520:
  2866  000C9A                     ;lab6.c: 194: m += 1;
  2867                           	incf	((c:_m)),c
  2868  000C9A  2A3F               	goto	i1l1522
  2869  000C9C  EF50  F006         	line	195
  2870                           	
  2871                           i1l104:
  2872  000CA0                     	line	197
  2873                           	
  2874                           i1l1522:
  2875  000CA0                     ;lab6.c: 195: };lab6.c: 197: if (m > 60) {
  2876                           		movlw	03Dh-1
  2877  000CA2  0E3C               	cpfsgt	((c:_m)),c
  2878  000CA4  643F               	goto	i1u74_21
  2879  000CA6  EF57  F006         	goto	i1u74_20
  2880  000CAA  EF5A  F006         
  2881                           i1u74_21:
  2882  000CAE                     	goto	i1l1528
  2883  000CB0  EF60  F006         i1u74_20:
  2884  000CB4                     	line	198
  2885                           	
  2886                           i1l1524:
  2887  000CB6                     ;lab6.c: 198: m = 0;
  2888                           	movlw	low(0)
  2889  000CB6  0E00               	movwf	((c:_m)),c
  2890  000CB8  6E3F               	line	199
  2891                           	
  2892                           i1l1526:
  2893  000CBA                     ;lab6.c: 199: h += 1;
  2894                           	incf	((c:_h)),c
  2895  000CBA  2A40               	goto	i1l1528
  2896  000CBC  EF60  F006         	line	200
  2897                           	
  2898                           i1l105:
  2899  000CC0                     	line	202
  2900                           	
  2901                           i1l1528:
  2902  000CC0                     ;lab6.c: 200: };lab6.c: 202: if (h > 24)
  2903                           		movlw	019h-1
  2904  000CC2  0E18               	cpfsgt	((c:_h)),c
  2905  000CC4  6440               	goto	i1u75_21
  2906  000CC6  EF67  F006         	goto	i1u75_20
  2907  000CCA  EF6A  F006         
  2908                           i1u75_21:
  2909  000CCE                     	goto	i1l1532
  2910  000CD0  EF6F  F006         i1u75_20:
  2911  000CD4                     	line	203
  2912                           	
  2913                           i1l1530:
  2914  000CD6                     ;lab6.c: 203: h = 0;
  2915                           	movlw	low(0)
  2916  000CD6  0E00               	movwf	((c:_h)),c
  2917  000CD8  6E40               	goto	i1l1532
  2918  000CDA  EF6F  F006         	
  2919                           i1l106:
  2920  000CDE                     	line	205
  2921                           	
  2922                           i1l1532:
  2923  000CDE                     ;lab6.c: 205: Str_1[1] = h/10 + '0';
  2924                           	movff	(c:_h),(c:i1___awdiv@dividend)
  2925  000CE0  C040  F010         	clrf	((c:i1___awdiv@dividend+1)),c
  2926  000CE4  6A11               	movlw	high(0Ah)
  2927  000CE6  0E00               	movwf	((c:i1___awdiv@divisor+1)),c
  2928  000CE8  6E13               	movlw	low(0Ah)
  2929  000CEA  0E0A               	movwf	((c:i1___awdiv@divisor)),c
  2930  000CEC  6E12               	call	i1___awdiv	;wreg free
  2931  000CEE  EC9C  F003         	movf	(0+?i1___awdiv),c,w
  2932  000CF2  5010               	addlw	low(030h)
  2933  000CF4  0F30               	movwf	(0+((c:_Str_1)+01h)),c
  2934  000CF6  6E35               	line	206
  2935                           	
  2936                           i1l1534:
  2937  000CF8                     ;lab6.c: 206: Str_1[2] = h%10 + '0';
  2938                           	movff	(c:_h),(c:i1___awmod@dividend)
  2939  000CF8  C040  F010         	clrf	((c:i1___awmod@dividend+1)),c
  2940  000CFC  6A11               	movlw	high(0Ah)
  2941  000CFE  0E00               	movwf	((c:i1___awmod@divisor+1)),c
  2942  000D00  6E13               	movlw	low(0Ah)
  2943  000D02  0E0A               	movwf	((c:i1___awmod@divisor)),c
  2944  000D04  6E12               	call	i1___awmod	;wreg free
  2945  000D06  EC39  F005         	movf	(0+?i1___awmod),c,w
  2946  000D0A  5010               	addlw	low(030h)
  2947  000D0C  0F30               	movwf	(0+((c:_Str_1)+02h)),c
  2948  000D0E  6E36               	line	207
  2949                           	
  2950                           i1l1536:
  2951  000D10                     ;lab6.c: 207: Str_1[4] = m/10 + '0';
  2952                           	movff	(c:_m),(c:i1___awdiv@dividend)
  2953  000D10  C03F  F010         	clrf	((c:i1___awdiv@dividend+1)),c
  2954  000D14  6A11               	movlw	high(0Ah)
  2955  000D16  0E00               	movwf	((c:i1___awdiv@divisor+1)),c
  2956  000D18  6E13               	movlw	low(0Ah)
  2957  000D1A  0E0A               	movwf	((c:i1___awdiv@divisor)),c
  2958  000D1C  6E12               	call	i1___awdiv	;wreg free
  2959  000D1E  EC9C  F003         	movf	(0+?i1___awdiv),c,w
  2960  000D22  5010               	addlw	low(030h)
  2961  000D24  0F30               	movwf	(0+((c:_Str_1)+04h)),c
  2962  000D26  6E38               	line	208
  2963                           	
  2964                           i1l1538:
  2965  000D28                     ;lab6.c: 208: Str_1[5] = m%10 + '0';
  2966                           	movff	(c:_m),(c:i1___awmod@dividend)
  2967  000D28  C03F  F010         	clrf	((c:i1___awmod@dividend+1)),c
  2968  000D2C  6A11               	movlw	high(0Ah)
  2969  000D2E  0E00               	movwf	((c:i1___awmod@divisor+1)),c
  2970  000D30  6E13               	movlw	low(0Ah)
  2971  000D32  0E0A               	movwf	((c:i1___awmod@divisor)),c
  2972  000D34  6E12               	call	i1___awmod	;wreg free
  2973  000D36  EC39  F005         	movf	(0+?i1___awmod),c,w
  2974  000D3A  5010               	addlw	low(030h)
  2975  000D3C  0F30               	movwf	(0+((c:_Str_1)+05h)),c
  2976  000D3E  6E39               	line	209
  2977                           	
  2978                           i1l1540:
  2979  000D40                     ;lab6.c: 209: Str_1[7] = s/10 + '0';
  2980                           	movff	(c:_s),(c:i1___awdiv@dividend)
  2981  000D40  C03E  F010         	clrf	((c:i1___awdiv@dividend+1)),c
  2982  000D44  6A11               	movlw	high(0Ah)
  2983  000D46  0E00               	movwf	((c:i1___awdiv@divisor+1)),c
  2984  000D48  6E13               	movlw	low(0Ah)
  2985  000D4A  0E0A               	movwf	((c:i1___awdiv@divisor)),c
  2986  000D4C  6E12               	call	i1___awdiv	;wreg free
  2987  000D4E  EC9C  F003         	movf	(0+?i1___awdiv),c,w
  2988  000D52  5010               	addlw	low(030h)
  2989  000D54  0F30               	movwf	(0+((c:_Str_1)+07h)),c
  2990  000D56  6E3B               	line	210
  2991                           	
  2992                           i1l1542:
  2993  000D58                     ;lab6.c: 210: Str_1[8] = s%10 + '0';
  2994                           	movff	(c:_s),(c:i1___awmod@dividend)
  2995  000D58  C03E  F010         	clrf	((c:i1___awmod@dividend+1)),c
  2996  000D5C  6A11               	movlw	high(0Ah)
  2997  000D5E  0E00               	movwf	((c:i1___awmod@divisor+1)),c
  2998  000D60  6E13               	movlw	low(0Ah)
  2999  000D62  0E0A               	movwf	((c:i1___awmod@divisor)),c
  3000  000D64  6E12               	call	i1___awmod	;wreg free
  3001  000D66  EC39  F005         	movf	(0+?i1___awmod),c,w
  3002  000D6A  5010               	addlw	low(030h)
  3003  000D6C  0F30               	movwf	(0+((c:_Str_1)+08h)),c
  3004  000D6E  6E3C               	line	212
  3005                           	
  3006                           i1l1544:
  3007  000D70                     ;lab6.c: 212: Print_To_LCD(Str_1);
  3008                           		movlw	low(_Str_1)
  3009  000D70  0E34               	movwf	((c:i1Print_To_LCD@tempPtr)),c
  3010  000D72  6E10               	movlw	high(_Str_1)
  3011  000D74  0E00               	movwf	((c:i1Print_To_LCD@tempPtr+1)),c
  3012  000D76  6E11               
  3013                           	call	i1_Print_To_LCD	;wreg free
  3014  000D78  EC57  F008         	line	213
  3015                           	
  3016                           i1l107:
  3017  000D7C                     	return	;funcret
  3018  000D7C  0012               	dw	0FFFFh; errata NOP
  3019  000D7E  FFFF               	opt stack 0
  3020                           GLOBAL	__end_of_increment_time
  3021                           	__end_of_increment_time:
  3022  000D80                     	signat	_increment_time,89
  3023                           	global	i1___awmod
  3024                           
  3025 ;; *************** function i1___awmod *****************
  3026 ;; Defined at:
  3027 ;;		line 7 in file "C:\Program Files (x86)\Microchip\xc8\v2.00\pic\sources\c90\common\awmod.c"
  3028 ;; Parameters:    Size  Location     Type
  3029 ;;  dividend        2   15[COMRAM] int 
  3030 ;;  divisor         2   17[COMRAM] int 
  3031 ;; Auto vars:     Size  Location     Type
  3032 ;;  __awmod         1   20[COMRAM] unsigned char 
  3033 ;;  __awmod         1   19[COMRAM] unsigned char 
  3034 ;; Return value:  Size  Location     Type
  3035 ;;                  2   15[COMRAM] int 
  3036 ;; Registers used:
  3037 ;;		wreg, status,2, status,0
  3038 ;; Tracked objects:
  3039 ;;		On entry : 0/0
  3040 ;;		On exit  : 0/0
  3041 ;;		Unchanged: 0/0
  3042 ;; Data sizes:     COMRAM   BANK0   BANK1   BANK2   BANK3   BANK4   BANK5
  3043 ;;      Params:         4       0       0       0       0       0       0
  3044 ;;      Locals:         2       0       0       0       0       0       0
  3045 ;;      Temps:          0       0       0       0       0       0       0
  3046 ;;      Totals:         6       0       0       0       0       0       0
  3047 ;;Total ram usage:        6 bytes
  3048 ;; Hardware stack levels used:    1
  3049 ;; Hardware stack levels required when called:    3
  3050 ;; This function calls:
  3051 ;;		Nothing
  3052 ;; This function is called by:
  3053 ;;		_increment_time
  3054 ;; This function uses a non-reentrant model
  3055 ;;
  3056                           psect	text11,class=CODE,space=0,reloc=2,group=0
  3057                           	file	"C:\Program Files (x86)\Microchip\xc8\v2.00\pic\sources\c90\common\awmod.c"
  3058                           	line	7
  3059                           global __ptext11
  3060                           __ptext11:
  3061  000A72                     psect	text11
  3062                           	file	"C:\Program Files (x86)\Microchip\xc8\v2.00\pic\sources\c90\common\awmod.c"
  3063                           	line	7
  3064                           	global	__size_ofi1___awmod
  3065                           	__size_ofi1___awmod	equ	__end_ofi1___awmod-i1___awmod
  3066  0000                     	
  3067                           i1___awmod:
  3068  000A72                     ;incstack = 0
  3069                           	opt	stack 22
  3070                           	line	12
  3071                           	
  3072                           i1l1478:
  3073  000A74                     	movlw	low(0)
  3074  000A74  0E00               	movwf	((c:i1___awmod@sign)),c
  3075  000A76  6E15               	line	13
  3076                           	
  3077                           i1l1480:
  3078  000A78                     	btfsc	((c:i1___awmod@dividend+1)),c,7
  3079  000A78  BE11               	goto	i1u67_20
  3080  000A7A  EF44  F005         	goto	i1u67_21
  3081  000A7E  EF41  F005         
  3082                           i1u67_21:
  3083  000A82                     	goto	i1l1486
  3084  000A84  EF4D  F005         i1u67_20:
  3085  000A88                     	line	14
  3086                           	
  3087                           i1l1482:
  3088  000A8A                     	negf	((c:i1___awmod@dividend)),c
  3089  000A8A  6C10               	comf	((c:i1___awmod@dividend+1)),c
  3090  000A8C  1E11               	btfsc	status,0
  3091  000A8E  B0D8               	incf	((c:i1___awmod@dividend+1)),c
  3092  000A90  2A11               	line	15
  3093                           	
  3094                           i1l1484:
  3095  000A92                     	movlw	low(01h)
  3096  000A92  0E01               	movwf	((c:i1___awmod@sign)),c
  3097  000A94  6E15               	goto	i1l1486
  3098  000A96  EF4D  F005         	line	16
  3099                           	
  3100                           i1l365:
  3101  000A9A                     	line	17
  3102                           	
  3103                           i1l1486:
  3104  000A9A                     	btfsc	((c:i1___awmod@divisor+1)),c,7
  3105  000A9C  BE13               	goto	i1u68_20
  3106  000A9E  EF56  F005         	goto	i1u68_21
  3107  000AA2  EF53  F005         
  3108                           i1u68_21:
  3109  000AA6                     	goto	i1l1490
  3110  000AA8  EF5D  F005         i1u68_20:
  3111  000AAC                     	line	18
  3112                           	
  3113                           i1l1488:
  3114  000AAE                     	negf	((c:i1___awmod@divisor)),c
  3115  000AAE  6C12               	comf	((c:i1___awmod@divisor+1)),c
  3116  000AB0  1E13               	btfsc	status,0
  3117  000AB2  B0D8               	incf	((c:i1___awmod@divisor+1)),c
  3118  000AB4  2A13               	goto	i1l1490
  3119  000AB6  EF5D  F005         	
  3120                           i1l366:
  3121  000ABA                     	line	19
  3122                           	
  3123                           i1l1490:
  3124  000ABA                     	movf	((c:i1___awmod@divisor)),c,w
  3125  000ABC  5012               iorwf	((c:i1___awmod@divisor+1)),c,w
  3126  000ABE  1013               	btfsc	status,2
  3127  000AC0  B4D8               	goto	i1u69_21
  3128  000AC2  EF65  F005         	goto	i1u69_20
  3129  000AC6  EF68  F005         
  3130                           i1u69_21:
  3131  000ACA                     	goto	i1l1506
  3132  000ACC  EFA1  F005         i1u69_20:
  3133  000AD0                     	line	20
  3134                           	
  3135                           i1l1492:
  3136  000AD2                     	movlw	low(01h)
  3137  000AD2  0E01               	movwf	((c:i1___awmod@counter)),c
  3138  000AD4  6E14               	line	21
  3139                           	goto	i1l1496
  3140  000AD6  EF74  F005         	
  3141                           i1l369:
  3142  000ADA                     	line	22
  3143                           	
  3144                           i1l1494:
  3145  000ADA                     	bcf	status,0
  3146  000ADC  90D8               	rlcf	((c:i1___awmod@divisor)),c
  3147  000ADE  3612               	rlcf	((c:i1___awmod@divisor+1)),c
  3148  000AE0  3613               	line	23
  3149                           	incf	((c:i1___awmod@counter)),c
  3150  000AE2  2A14               	goto	i1l1496
  3151  000AE4  EF74  F005         	line	24
  3152                           	
  3153                           i1l368:
  3154  000AE8                     	line	21
  3155                           	
  3156                           i1l1496:
  3157  000AE8                     	
  3158                           	btfss	((c:i1___awmod@divisor+1)),c,(15)&7
  3159  000AEA  AE13               	goto	i1u70_21
  3160  000AEC  EF7A  F005         	goto	i1u70_20
  3161  000AF0  EF7D  F005         i1u70_21:
  3162  000AF4                     	goto	i1l1494
  3163  000AF6  EF6D  F005         i1u70_20:
  3164  000AFA                     	goto	i1l1498
  3165  000AFC  EF82  F005         	
  3166                           i1l370:
  3167  000B00                     	goto	i1l1498
  3168  000B00  EF82  F005         	line	25
  3169                           	
  3170                           i1l371:
  3171  000B04                     	line	26
  3172                           	
  3173                           i1l1498:
  3174  000B04                     		movf	((c:i1___awmod@divisor)),c,w
  3175  000B06  5012               	subwf	((c:i1___awmod@dividend)),c,w
  3176  000B08  5C10               	movf	((c:i1___awmod@divisor+1)),c,w
  3177  000B0A  5013               	subwfb	((c:i1___awmod@dividend+1)),c,w
  3178  000B0C  5811               	btfss	status,0
  3179  000B0E  A0D8               	goto	i1u71_21
  3180  000B10  EF8C  F005         	goto	i1u71_20
  3181  000B14  EF8F  F005         
  3182                           i1u71_21:
  3183  000B18                     	goto	i1l1502
  3184  000B1A  EF96  F005         i1u71_20:
  3185  000B1E                     	line	27
  3186                           	
  3187                           i1l1500:
  3188  000B20                     	movf	((c:i1___awmod@divisor)),c,w
  3189  000B20  5012               	subwf	((c:i1___awmod@dividend)),c
  3190  000B22  5E10               	movf	((c:i1___awmod@divisor+1)),c,w
  3191  000B24  5013               	subwfb	((c:i1___awmod@dividend+1)),c
  3192  000B26  5A11               
  3193                           	goto	i1l1502
  3194  000B28  EF96  F005         	
  3195                           i1l372:
  3196  000B2C                     	line	28
  3197                           	
  3198                           i1l1502:
  3199  000B2C                     	bcf	status,0
  3200  000B2E  90D8               	rrcf	((c:i1___awmod@divisor+1)),c
  3201  000B30  3213               	rrcf	((c:i1___awmod@divisor)),c
  3202  000B32  3212               	line	29
  3203                           	
  3204                           i1l1504:
  3205  000B34                     	decfsz	((c:i1___awmod@counter)),c
  3206  000B34  2E14               	
  3207                           	goto	i1l1498
  3208  000B36  EF82  F005         	goto	i1l1506
  3209  000B3A  EFA1  F005         	
  3210                           i1l373:
  3211  000B3E                     	goto	i1l1506
  3212  000B3E  EFA1  F005         	line	30
  3213                           	
  3214                           i1l367:
  3215  000B42                     	line	31
  3216                           	
  3217                           i1l1506:
  3218  000B42                     	movf	((c:i1___awmod@sign)),c,w
  3219  000B44  5015               	btfsc	status,2
  3220  000B46  B4D8               	goto	i1u72_21
  3221  000B48  EFA8  F005         	goto	i1u72_20
  3222  000B4C  EFAB  F005         i1u72_21:
  3223  000B50                     	goto	i1l1510
  3224  000B52  EFB2  F005         i1u72_20:
  3225  000B56                     	line	32
  3226                           	
  3227                           i1l1508:
  3228  000B58                     	negf	((c:i1___awmod@dividend)),c
  3229  000B58  6C10               	comf	((c:i1___awmod@dividend+1)),c
  3230  000B5A  1E11               	btfsc	status,0
  3231  000B5C  B0D8               	incf	((c:i1___awmod@dividend+1)),c
  3232  000B5E  2A11               	goto	i1l1510
  3233  000B60  EFB2  F005         	
  3234                           i1l374:
  3235  000B64                     	line	33
  3236                           	
  3237                           i1l1510:
  3238  000B64                     	movff	(c:i1___awmod@dividend),(c:?i1___awmod)
  3239  000B66  C010  F010         	movff	(c:i1___awmod@dividend+1),(c:?i1___awmod+1)
  3240  000B6A  C011  F011         	goto	i1l375
  3241  000B6E  EFB9  F005         	
  3242                           i1l1512:
  3243  000B72                     	line	34
  3244                           	
  3245                           i1l375:
  3246  000B72                     	return	;funcret
  3247  000B74  0012               	dw	0FFFFh; errata NOP
  3248  000B76  FFFF               	opt stack 0
  3249                           GLOBAL	__end_ofi1___awmod
  3250                           	__end_ofi1___awmod:
  3251  000B78                     	signat	i1___awmod,90
  3252                           	global	i1___awdiv
  3253                           
  3254 ;; *************** function i1___awdiv *****************
  3255 ;; Defined at:
  3256 ;;		line 7 in file "C:\Program Files (x86)\Microchip\xc8\v2.00\pic\sources\c90\common\awdiv.c"
  3257 ;; Parameters:    Size  Location     Type
  3258 ;;  dividend        2   15[COMRAM] int 
  3259 ;;  divisor         2   17[COMRAM] int 
  3260 ;; Auto vars:     Size  Location     Type
  3261 ;;  __awdiv         2   21[COMRAM] int 
  3262 ;;  __awdiv         1   20[COMRAM] unsigned char 
  3263 ;;  __awdiv         1   19[COMRAM] unsigned char 
  3264 ;; Return value:  Size  Location     Type
  3265 ;;                  2   15[COMRAM] int 
  3266 ;; Registers used:
  3267 ;;		wreg, status,2, status,0
  3268 ;; Tracked objects:
  3269 ;;		On entry : 0/0
  3270 ;;		On exit  : 0/0
  3271 ;;		Unchanged: 0/0
  3272 ;; Data sizes:     COMRAM   BANK0   BANK1   BANK2   BANK3   BANK4   BANK5
  3273 ;;      Params:         4       0       0       0       0       0       0
  3274 ;;      Locals:         4       0       0       0       0       0       0
  3275 ;;      Temps:          0       0       0       0       0       0       0
  3276 ;;      Totals:         8       0       0       0       0       0       0
  3277 ;;Total ram usage:        8 bytes
  3278 ;; Hardware stack levels used:    1
  3279 ;; Hardware stack levels required when called:    3
  3280 ;; This function calls:
  3281 ;;		Nothing
  3282 ;; This function is called by:
  3283 ;;		_increment_time
  3284 ;; This function uses a non-reentrant model
  3285 ;;
  3286                           psect	text12,class=CODE,space=0,reloc=2,group=0
  3287                           	file	"C:\Program Files (x86)\Microchip\xc8\v2.00\pic\sources\c90\common\awdiv.c"
  3288                           	line	7
  3289                           global __ptext12
  3290                           __ptext12:
  3291  000738                     psect	text12
  3292                           	file	"C:\Program Files (x86)\Microchip\xc8\v2.00\pic\sources\c90\common\awdiv.c"
  3293                           	line	7
  3294                           	global	__size_ofi1___awdiv
  3295                           	__size_ofi1___awdiv	equ	__end_ofi1___awdiv-i1___awdiv
  3296  0000                     	
  3297                           i1___awdiv:
  3298  000738                     ;incstack = 0
  3299                           	opt	stack 22
  3300                           	line	13
  3301                           	
  3302                           i1l1434:
  3303  00073A                     	movlw	low(0)
  3304  00073A  0E00               	movwf	((c:i1___awdiv@sign)),c
  3305  00073C  6E15               	line	14
  3306                           	
  3307                           i1l1436:
  3308  00073E                     	btfsc	((c:i1___awdiv@divisor+1)),c,7
  3309  00073E  BE13               	goto	i1u61_20
  3310  000740  EFA7  F003         	goto	i1u61_21
  3311  000744  EFA4  F003         
  3312                           i1u61_21:
  3313  000748                     	goto	i1l1442
  3314  00074A  EFB0  F003         i1u61_20:
  3315  00074E                     	line	15
  3316                           	
  3317                           i1l1438:
  3318  000750                     	negf	((c:i1___awdiv@divisor)),c
  3319  000750  6C12               	comf	((c:i1___awdiv@divisor+1)),c
  3320  000752  1E13               	btfsc	status,0
  3321  000754  B0D8               	incf	((c:i1___awdiv@divisor+1)),c
  3322  000756  2A13               	line	16
  3323                           	
  3324                           i1l1440:
  3325  000758                     	movlw	low(01h)
  3326  000758  0E01               	movwf	((c:i1___awdiv@sign)),c
  3327  00075A  6E15               	goto	i1l1442
  3328  00075C  EFB0  F003         	line	17
  3329                           	
  3330                           i1l352:
  3331  000760                     	line	18
  3332                           	
  3333                           i1l1442:
  3334  000760                     	btfsc	((c:i1___awdiv@dividend+1)),c,7
  3335  000762  BE11               	goto	i1u62_20
  3336  000764  EFB9  F003         	goto	i1u62_21
  3337  000768  EFB6  F003         
  3338                           i1u62_21:
  3339  00076C                     	goto	i1l1448
  3340  00076E  EFC2  F003         i1u62_20:
  3341  000772                     	line	19
  3342                           	
  3343                           i1l1444:
  3344  000774                     	negf	((c:i1___awdiv@dividend)),c
  3345  000774  6C10               	comf	((c:i1___awdiv@dividend+1)),c
  3346  000776  1E11               	btfsc	status,0
  3347  000778  B0D8               	incf	((c:i1___awdiv@dividend+1)),c
  3348  00077A  2A11               	line	20
  3349                           	
  3350                           i1l1446:
  3351  00077C                     	movlw	(01h)&0ffh
  3352  00077C  0E01               	xorwf	((c:i1___awdiv@sign)),c
  3353  00077E  1A15               	goto	i1l1448
  3354  000780  EFC2  F003         	line	21
  3355                           	
  3356                           i1l353:
  3357  000784                     	line	22
  3358                           	
  3359                           i1l1448:
  3360  000784                     	movlw	high(0)
  3361  000786  0E00               	movwf	((c:i1___awdiv@quotient+1)),c
  3362  000788  6E17               	movlw	low(0)
  3363  00078A  0E00               	movwf	((c:i1___awdiv@quotient)),c
  3364  00078C  6E16               	line	23
  3365                           	
  3366                           i1l1450:
  3367  00078E                     	movf	((c:i1___awdiv@divisor)),c,w
  3368  00078E  5012               iorwf	((c:i1___awdiv@divisor+1)),c,w
  3369  000790  1013               	btfsc	status,2
  3370  000792  B4D8               	goto	i1u63_21
  3371  000794  EFCE  F003         	goto	i1u63_20
  3372  000798  EFD1  F003         
  3373                           i1u63_21:
  3374  00079C                     	goto	i1l1470
  3375  00079E  EF0E  F004         i1u63_20:
  3376  0007A2                     	line	24
  3377                           	
  3378                           i1l1452:
  3379  0007A4                     	movlw	low(01h)
  3380  0007A4  0E01               	movwf	((c:i1___awdiv@counter)),c
  3381  0007A6  6E14               	line	25
  3382                           	goto	i1l1456
  3383  0007A8  EFDD  F003         	
  3384                           i1l356:
  3385  0007AC                     	line	26
  3386                           	
  3387                           i1l1454:
  3388  0007AC                     	bcf	status,0
  3389  0007AE  90D8               	rlcf	((c:i1___awdiv@divisor)),c
  3390  0007B0  3612               	rlcf	((c:i1___awdiv@divisor+1)),c
  3391  0007B2  3613               	line	27
  3392                           	incf	((c:i1___awdiv@counter)),c
  3393  0007B4  2A14               	goto	i1l1456
  3394  0007B6  EFDD  F003         	line	28
  3395                           	
  3396                           i1l355:
  3397  0007BA                     	line	25
  3398                           	
  3399                           i1l1456:
  3400  0007BA                     	
  3401                           	btfss	((c:i1___awdiv@divisor+1)),c,(15)&7
  3402  0007BC  AE13               	goto	i1u64_21
  3403  0007BE  EFE3  F003         	goto	i1u64_20
  3404  0007C2  EFE6  F003         i1u64_21:
  3405  0007C6                     	goto	i1l1454
  3406  0007C8  EFD6  F003         i1u64_20:
  3407  0007CC                     	goto	i1l1458
  3408  0007CE  EFEB  F003         	
  3409                           i1l357:
  3410  0007D2                     	goto	i1l1458
  3411  0007D2  EFEB  F003         	line	29
  3412                           	
  3413                           i1l358:
  3414  0007D6                     	line	30
  3415                           	
  3416                           i1l1458:
  3417  0007D6                     	bcf	status,0
  3418  0007D8  90D8               	rlcf	((c:i1___awdiv@quotient)),c
  3419  0007DA  3616               	rlcf	((c:i1___awdiv@quotient+1)),c
  3420  0007DC  3617               	line	31
  3421                           	
  3422                           i1l1460:
  3423  0007DE                     		movf	((c:i1___awdiv@divisor)),c,w
  3424  0007DE  5012               	subwf	((c:i1___awdiv@dividend)),c,w
  3425  0007E0  5C10               	movf	((c:i1___awdiv@divisor+1)),c,w
  3426  0007E2  5013               	subwfb	((c:i1___awdiv@dividend+1)),c,w
  3427  0007E4  5811               	btfss	status,0
  3428  0007E6  A0D8               	goto	i1u65_21
  3429  0007E8  EFF8  F003         	goto	i1u65_20
  3430  0007EC  EFFB  F003         
  3431                           i1u65_21:
  3432  0007F0                     	goto	i1l1466
  3433  0007F2  EF03  F004         i1u65_20:
  3434  0007F6                     	line	32
  3435                           	
  3436                           i1l1462:
  3437  0007F8                     	movf	((c:i1___awdiv@divisor)),c,w
  3438  0007F8  5012               	subwf	((c:i1___awdiv@dividend)),c
  3439  0007FA  5E10               	movf	((c:i1___awdiv@divisor+1)),c,w
  3440  0007FC  5013               	subwfb	((c:i1___awdiv@dividend+1)),c
  3441  0007FE  5A11               
  3442                           	line	33
  3443                           	
  3444                           i1l1464:
  3445  000800                     	bsf	(0+(0/8)+(c:i1___awdiv@quotient)),c,(0)&7
  3446  000800  8016               	goto	i1l1466
  3447  000802  EF03  F004         	line	34
  3448                           	
  3449                           i1l359:
  3450  000806                     	line	35
  3451                           	
  3452                           i1l1466:
  3453  000806                     	bcf	status,0
  3454  000808  90D8               	rrcf	((c:i1___awdiv@divisor+1)),c
  3455  00080A  3213               	rrcf	((c:i1___awdiv@divisor)),c
  3456  00080C  3212               	line	36
  3457                           	
  3458                           i1l1468:
  3459  00080E                     	decfsz	((c:i1___awdiv@counter)),c
  3460  00080E  2E14               	
  3461                           	goto	i1l1458
  3462  000810  EFEB  F003         	goto	i1l1470
  3463  000814  EF0E  F004         	
  3464                           i1l360:
  3465  000818                     	goto	i1l1470
  3466  000818  EF0E  F004         	line	37
  3467                           	
  3468                           i1l354:
  3469  00081C                     	line	38
  3470                           	
  3471                           i1l1470:
  3472  00081C                     	movf	((c:i1___awdiv@sign)),c,w
  3473  00081E  5015               	btfsc	status,2
  3474  000820  B4D8               	goto	i1u66_21
  3475  000822  EF15  F004         	goto	i1u66_20
  3476  000826  EF18  F004         i1u66_21:
  3477  00082A                     	goto	i1l1474
  3478  00082C  EF1F  F004         i1u66_20:
  3479  000830                     	line	39
  3480                           	
  3481                           i1l1472:
  3482  000832                     	negf	((c:i1___awdiv@quotient)),c
  3483  000832  6C16               	comf	((c:i1___awdiv@quotient+1)),c
  3484  000834  1E17               	btfsc	status,0
  3485  000836  B0D8               	incf	((c:i1___awdiv@quotient+1)),c
  3486  000838  2A17               	goto	i1l1474
  3487  00083A  EF1F  F004         	
  3488                           i1l361:
  3489  00083E                     	line	40
  3490                           	
  3491                           i1l1474:
  3492  00083E                     	movff	(c:i1___awdiv@quotient),(c:?i1___awdiv)
  3493  000840  C016  F010         	movff	(c:i1___awdiv@quotient+1),(c:?i1___awdiv+1)
  3494  000844  C017  F011         	goto	i1l362
  3495  000848  EF26  F004         	
  3496                           i1l1476:
  3497  00084C                     	line	41
  3498                           	
  3499                           i1l362:
  3500  00084C                     	return	;funcret
  3501  00084E  0012               	dw	0FFFFh; errata NOP
  3502  000850  FFFF               	opt stack 0
  3503                           GLOBAL	__end_ofi1___awdiv
  3504                           	__end_ofi1___awdiv:
  3505  000852                     	signat	i1___awdiv,90
  3506                           	global	i1_Print_To_LCD
  3507                           
  3508 ;; *************** function i1_Print_To_LCD *****************
  3509 ;; Defined at:
  3510 ;;		line 286 in file "lab6.c"
  3511 ;; Parameters:    Size  Location     Type
  3512 ;;  tempPtr         2   15[COMRAM] PTR const unsigned char 
  3513 ;;		 -> Str_1(10), Clear2(10), Clear1(10), 
  3514 ;; Auto vars:     Size  Location     Type
  3515 ;;  Print_To_LCD    1   18[COMRAM] unsigned char 
  3516 ;; Return value:  Size  Location     Type
  3517 ;;                  1    wreg      void 
  3518 ;; Registers used:
  3519 ;;		wreg, fsr0l, fsr0h, status,2, status,0, tblptrl, tblptrh, tblptru
  3520 ;; Tracked objects:
  3521 ;;		On entry : 0/0
  3522 ;;		On exit  : 0/0
  3523 ;;		Unchanged: 0/0
  3524 ;; Data sizes:     COMRAM   BANK0   BANK1   BANK2   BANK3   BANK4   BANK5
  3525 ;;      Params:         2       0       0       0       0       0       0
  3526 ;;      Locals:         1       0       0       0       0       0       0
  3527 ;;      Temps:          1       0       0       0       0       0       0
  3528 ;;      Totals:         4       0       0       0       0       0       0
  3529 ;;Total ram usage:        4 bytes
  3530 ;; Hardware stack levels used:    1
  3531 ;; Hardware stack levels required when called:    3
  3532 ;; This function calls:
  3533 ;;		Nothing
  3534 ;; This function is called by:
  3535 ;;		_increment_time
  3536 ;; This function uses a non-reentrant model
  3537 ;;
  3538                           psect	text13,class=CODE,space=0,reloc=2,group=0
  3539                           	file	"lab6.c"
  3540                           	line	286
  3541                           global __ptext13
  3542                           __ptext13:
  3543  0010AE                     psect	text13
  3544                           	file	"lab6.c"
  3545                           	line	286
  3546                           	global	__size_ofi1_Print_To_LCD
  3547                           	__size_ofi1_Print_To_LCD	equ	__end_ofi1_Print_To_LCD-i1_Print_To_LCD
  3548  0000                     	
  3549                           i1_Print_To_LCD:
  3550  0010AE                     ;incstack = 0
  3551                           	opt	stack 22
  3552                           	line	289
  3553                           	
  3554                           i1l1410:
  3555  0010B0                     ;lab6.c: 288: char currentChar;;lab6.c: 289: PORTEbits.RE0 = 0;
  3556                           	bcf	((c:3972)),c,0	;volatile
  3557  0010B0  9084               	line	291
  3558                           ;lab6.c: 291: while (*tempPtr)
  3559                           	goto	i1l119
  3560  0010B2  EF84  F008         	
  3561                           i1l120:
  3562  0010B6                     	line	293
  3563                           	
  3564                           i1l1412:
  3565  0010B6                     ;lab6.c: 292: {;lab6.c: 293: currentChar = *tempPtr;
  3566                           	movff	(c:i1Print_To_LCD@tempPtr),tblptrl
  3567  0010B8  C010  FFF6         	movff	(c:i1Print_To_LCD@tempPtr+1),tblptrh
  3568  0010BC  C011  FFF7         	clrf	tblptru
  3569  0010C0  6AF8               	
  3570                           	movlw	high __ramtop-1
  3571  0010C2  0E05               	cpfsgt	tblptrh
  3572  0010C4  64F7               	bra	i1u58_27
  3573  0010C6  D004               	tblrd	*
  3574  0010C8  0008               		dw	0FFFFh; errata NOP
  3575  0010CA  FFFF               
  3576                           	movf	tablat,w
  3577  0010CC  50F5               	bra	i1u58_20
  3578  0010CE  D005               i1u58_27:
  3579  0010D0                     	movff	tblptrl,fsr0l
  3580  0010D0  CFF6 FFE9          	movff	tblptrh,fsr0h
  3581  0010D4  CFF7 FFEA          	movf	indf0,w
  3582  0010D8  50EF               i1u58_20:
  3583  0010DA                     	movwf	((c:i1Print_To_LCD@currentChar)),c
  3584  0010DA  6E13               	line	294
  3585                           	
  3586                           i1l1414:
  3587  0010DC                     ;lab6.c: 294: PORTEbits.RE1 = 1;
  3588                           	bsf	((c:3972)),c,1	;volatile
  3589  0010DC  8284               	line	295
  3590                           	
  3591                           i1l1416:
  3592  0010DE                     ;lab6.c: 295: PORTD = currentChar;
  3593                           	movff	(c:i1Print_To_LCD@currentChar),(c:3971)	;volatile
  3594  0010DE  C013  FF83         	line	296
  3595                           	
  3596                           i1l1418:
  3597  0010E2                     ;lab6.c: 296: PORTEbits.RE1 = 0;
  3598                           	bcf	((c:3972)),c,1	;volatile
  3599  0010E2  9284               	line	297
  3600                           	
  3601                           i1l1420:
  3602  0010E4                     ;lab6.c: 297: currentChar <<= 4;
  3603                           	swapf	((c:i1Print_To_LCD@currentChar)),c
  3604  0010E4  3A13               	movlw	240
  3605  0010E6  0EF0               	andwf	((c:i1Print_To_LCD@currentChar)),c
  3606  0010E8  1613               
  3607                           	line	298
  3608                           	
  3609                           i1l1422:
  3610  0010EA                     ;lab6.c: 298: PORTEbits.RE1 = 1;
  3611                           	bsf	((c:3972)),c,1	;volatile
  3612  0010EA  8284               	line	299
  3613                           	
  3614                           i1l1424:
  3615  0010EC                     ;lab6.c: 299: PORTD = currentChar;
  3616                           	movff	(c:i1Print_To_LCD@currentChar),(c:3971)	;volatile
  3617  0010EC  C013  FF83         	line	300
  3618                           	
  3619                           i1l1426:
  3620  0010F0                     ;lab6.c: 300: PORTEbits.RE1 = 0;
  3621                           	bcf	((c:3972)),c,1	;volatile
  3622  0010F0  9284               	line	301
  3623                           	
  3624                           i1l1428:
  3625  0010F2                     ;lab6.c: 301: _delay((unsigned long)((10)*(10000000/4000.0)));
  3626                           	opt asmopt_push
  3627                           opt asmopt_off
  3628                           movlw	25
  3629  0010F2  0E19               movwf	(??i1_Print_To_LCD+0+0)&0ffh,c,f
  3630  0010F4  6E12               	movlw	93
  3631  0010F6  0E5D               i1u120_27:
  3632  0010F8                     	dw	0FFFFh; errata NOP
  3633  0010F8  FFFF               decfsz	wreg,f
  3634  0010FA  2EE8               	bra	i1u120_27
  3635  0010FC  D7FD               	decfsz	(??i1_Print_To_LCD+0+0)&0ffh,c,f
  3636  0010FE  2E12               	bra	i1u120_27
  3637  001100  D7FB               opt asmopt_pop
  3638                           
  3639                           	line	302
  3640                           	
  3641                           i1l1430:
  3642  001102                     ;lab6.c: 302: PORTEbits.RE0 = 1;
  3643                           	bsf	((c:3972)),c,0	;volatile
  3644  001102  8084               	line	303
  3645                           	
  3646                           i1l1432:
  3647  001104                     ;lab6.c: 303: tempPtr++;
  3648                           	infsnz	((c:i1Print_To_LCD@tempPtr)),c
  3649  001104  4A10               	incf	((c:i1Print_To_LCD@tempPtr+1)),c
  3650  001106  2A11               	line	304
  3651                           	
  3652                           i1l119:
  3653  001108                     	line	291
  3654                           	movff	(c:i1Print_To_LCD@tempPtr),tblptrl
  3655  00110A  C010  FFF6         	movff	(c:i1Print_To_LCD@tempPtr+1),tblptrh
  3656  00110E  C011  FFF7         	clrf	tblptru
  3657  001112  6AF8               	
  3658                           	movlw	high __ramtop-1
  3659  001114  0E05               	cpfsgt	tblptrh
  3660  001116  64F7               	bra	i1u59_27
  3661  001118  D004               	tblrd	*
  3662  00111A  0008               		dw	0FFFFh; errata NOP
  3663  00111C  FFFF               
  3664                           	movf	tablat,w
  3665  00111E  50F5               	bra	i1u59_20
  3666  001120  D005               i1u59_27:
  3667  001122                     	movff	tblptrl,fsr0l
  3668  001122  CFF6 FFE9          	movff	tblptrh,fsr0h
  3669  001126  CFF7 FFEA          	movf	indf0,w
  3670  00112A  50EF               i1u59_20:
  3671  00112C                     	iorlw	0
  3672  00112C  0900               	btfss	status,2
  3673  00112E  A4D8               	goto	i1u60_21
  3674  001130  EF9C  F008         	goto	i1u60_20
  3675  001134  EF9F  F008         i1u60_21:
  3676  001138                     	goto	i1l1412
  3677  00113A  EF5B  F008         i1u60_20:
  3678  00113E                     	goto	i1l122
  3679  001140  EFA2  F008         	
  3680                           i1l121:
  3681  001144                     	line	305
  3682                           	
  3683                           i1l122:
  3684  001144                     	return	;funcret
  3685  001146  0012               	dw	0FFFFh; errata NOP
  3686  001148  FFFF               	opt stack 0
  3687                           GLOBAL	__end_ofi1_Print_To_LCD
  3688                           	__end_ofi1_Print_To_LCD:
  3689  00114A                     	signat	i1_Print_To_LCD,89
  3690                           	global	_My_ISR_High
  3691                           
  3692 ;; *************** function _My_ISR_High *****************
  3693 ;; Defined at:
  3694 ;;		line 122 in file "lab6.c"
  3695 ;; Parameters:    Size  Location     Type
  3696 ;;		None
  3697 ;; Auto vars:     Size  Location     Type
  3698 ;;		None
  3699 ;; Return value:  Size  Location     Type
  3700 ;;                  1    wreg      void 
  3701 ;; Registers used:
  3702 ;;		wreg, fsr0l, fsr0h, status,2, status,0, tblptrl, tblptrh, tblptru, cstack
  3703 ;; Tracked objects:
  3704 ;;		On entry : 0/0
  3705 ;;		On exit  : 0/0
  3706 ;;		Unchanged: 0/0
  3707 ;; Data sizes:     COMRAM   BANK0   BANK1   BANK2   BANK3   BANK4   BANK5
  3708 ;;      Params:         0       0       0       0       0       0       0
  3709 ;;      Locals:         0       0       0       0       0       0       0
  3710 ;;      Temps:          6       0       0       0       0       0       0
  3711 ;;      Totals:         6       0       0       0       0       0       0
  3712 ;;Total ram usage:        6 bytes
  3713 ;; Hardware stack levels used:    1
  3714 ;; Hardware stack levels required when called:    2
  3715 ;; This function calls:
  3716 ;;		_high_prio
  3717 ;; This function is called by:
  3718 ;;		Interrupt level 2
  3719 ;; This function uses a non-reentrant model
  3720 ;;
  3721                           psect	intcode,class=CODE,space=0,reloc=2
  3722                           global __pintcode
  3723                           __pintcode:
  3724  000008                     psect	intcode
  3725                           	file	"lab6.c"
  3726                           	line	122
  3727                           	global	__size_of_My_ISR_High
  3728                           	__size_of_My_ISR_High	equ	__end_of_My_ISR_High-_My_ISR_High
  3729  0000                     	
  3730                           _My_ISR_High:
  3731  000008                     ;incstack = 0
  3732                           	opt	stack 22
  3733                           	bsf int$flags,1,c ;set compiler interrupt flag (level 2)
  3734  00000A  8241               	global	int_func
  3735                           	goto	int_func
  3736  00000C  EF2B  F009         psect	intcode_body,class=CODE,space=0,reloc=2
  3737                           global __pintcode_body
  3738                           __pintcode_body:
  3739  001256                     int_func:
  3740  001256                     	dw	0FFFFh; errata NOP
  3741  001256  FFFF               	movff	fsr0l+0,??_My_ISR_High+0
  3742  001258  CFE9 F00A          	movff	fsr0h+0,??_My_ISR_High+1
  3743  00125C  CFEA F00B          	movff	tblptrl+0,??_My_ISR_High+2
  3744  001260  CFF6 F00C          	movff	tblptrh+0,??_My_ISR_High+3
  3745  001264  CFF7 F00D          	movff	tblptru+0,??_My_ISR_High+4
  3746  001268  CFF8 F00E          	movff	tablat+0,??_My_ISR_High+5
  3747  00126C  CFF5 F00F          	line	125
  3748                           	
  3749                           i2l1904:
  3750  001270                     ;lab6.c: 125: if((INTCONbits.INT0E == 1) && (INTCONbits.INT0F == 1)) {
  3751                           	btfss	((c:4082)),c,4	;volatile
  3752  001270  A8F2               	goto	i2u111_41
  3753  001272  EF3D  F009         	goto	i2u111_40
  3754  001276  EF40  F009         i2u111_41:
  3755  00127A                     	goto	i2l82
  3756  00127C  EF4F  F009         i2u111_40:
  3757  001280                     	
  3758                           i2l1906:
  3759  001282                     	btfss	((c:4082)),c,1	;volatile
  3760  001282  A2F2               	goto	i2u112_41
  3761  001284  EF46  F009         	goto	i2u112_40
  3762  001288  EF49  F009         i2u112_41:
  3763  00128C                     	goto	i2l82
  3764  00128E  EF4F  F009         i2u112_40:
  3765  001292                     	line	126
  3766                           	
  3767                           i2l1908:
  3768  001294                     ;lab6.c: 126: high_prio();
  3769                           	call	_high_prio	;wreg free
  3770  001294  EC3F  F007         	line	127
  3771                           	
  3772                           i2l1910:
  3773  001298                     ;lab6.c: 127: INTCONbits.INT0IF = 0;
  3774                           	bcf	((c:4082)),c,1	;volatile
  3775  001298  92F2               	goto	i2l82
  3776  00129A  EF4F  F009         	line	128
  3777                           	
  3778                           i2l81:
  3779  00129E                     	line	129
  3780                           	
  3781                           i2l82:
  3782  00129E                     	movff	??_My_ISR_High+5,tablat+0
  3783  0012A0  C00F  FFF5         	movff	??_My_ISR_High+4,tblptru+0
  3784  0012A4  C00E  FFF8         	movff	??_My_ISR_High+3,tblptrh+0
  3785  0012A8  C00D  FFF7         	movff	??_My_ISR_High+2,tblptrl+0
  3786  0012AC  C00C  FFF6         	movff	??_My_ISR_High+1,fsr0h+0
  3787  0012B0  C00B  FFEA         	movff	??_My_ISR_High+0,fsr0l+0
  3788  0012B4  C00A  FFE9         	bcf int$flags,1,c ;clear compiler interrupt flag (level 2)
  3789  0012B8  9241               	retfie f
  3790  0012BA  0011               	dw	0FFFFh; errata NOP
  3791  0012BC  FFFF               	opt stack 0
  3792                           GLOBAL	__end_of_My_ISR_High
  3793                           	__end_of_My_ISR_High:
  3794  0012BE                     	signat	_My_ISR_High,89
  3795                           	global	_high_prio
  3796                           
  3797 ;; *************** function _high_prio *****************
  3798 ;; Defined at:
  3799 ;;		line 140 in file "lab6.c"
  3800 ;; Parameters:    Size  Location     Type
  3801 ;;		None
  3802 ;; Auto vars:     Size  Location     Type
  3803 ;;		None
  3804 ;; Return value:  Size  Location     Type
  3805 ;;                  1    wreg      void 
  3806 ;; Registers used:
  3807 ;;		wreg, fsr0l, fsr0h, status,2, status,0, tblptrl, tblptrh, tblptru, cstack
  3808 ;; Tracked objects:
  3809 ;;		On entry : 0/0
  3810 ;;		On exit  : 0/0
  3811 ;;		Unchanged: 0/0
  3812 ;; Data sizes:     COMRAM   BANK0   BANK1   BANK2   BANK3   BANK4   BANK5
  3813 ;;      Params:         0       0       0       0       0       0       0
  3814 ;;      Locals:         0       0       0       0       0       0       0
  3815 ;;      Temps:          1       0       0       0       0       0       0
  3816 ;;      Totals:         1       0       0       0       0       0       0
  3817 ;;Total ram usage:        1 bytes
  3818 ;; Hardware stack levels used:    1
  3819 ;; Hardware stack levels required when called:    1
  3820 ;; This function calls:
  3821 ;;		i2_Print_To_LCD
  3822 ;;		i2___awdiv
  3823 ;;		i2___awmod
  3824 ;;		i2_initialize_timer
  3825 ;; This function is called by:
  3826 ;;		_My_ISR_High
  3827 ;; This function uses a non-reentrant model
  3828 ;;
  3829                           psect	text15,class=CODE,space=0,reloc=2,group=0
  3830                           	line	140
  3831                           global __ptext15
  3832                           __ptext15:
  3833  000E7E                     psect	text15
  3834                           	file	"lab6.c"
  3835                           	line	140
  3836                           	global	__size_of_high_prio
  3837                           	__size_of_high_prio	equ	__end_of_high_prio-_high_prio
  3838  0000                     	
  3839                           _high_prio:
  3840  000E7E                     ;incstack = 0
  3841                           	opt	stack 22
  3842                           	line	141
  3843                           	
  3844                           i2l1742:
  3845  000E80                     ;lab6.c: 141: s = 0;
  3846                           	movlw	low(0)
  3847  000E80  0E00               	movwf	((c:_s)),c
  3848  000E82  6E3E               	line	142
  3849                           ;lab6.c: 142: m = 0;
  3850                           	movlw	low(0)
  3851  000E84  0E00               	movwf	((c:_m)),c
  3852  000E86  6E3F               	line	143
  3853                           ;lab6.c: 143: h = 0;
  3854                           	movlw	low(0)
  3855  000E88  0E00               	movwf	((c:_h)),c
  3856  000E8A  6E40               	line	146
  3857                           ;lab6.c: 146: while(PORTBbits.RB0 == 1){
  3858                           	goto	i2l1746
  3859  000E8C  EF56  F007         	
  3860                           i2l92:
  3861  000E90                     	line	147
  3862                           ;lab6.c: 147: PORTAbits.RA1 = 1;
  3863                           	bsf	((c:3968)),c,1	;volatile
  3864  000E92  8280               	line	148
  3865                           ;lab6.c: 148: PORTAbits.RA2 = 0;
  3866                           	bcf	((c:3968)),c,2	;volatile
  3867  000E94  9480               	line	149
  3868                           ;lab6.c: 149: PORTAbits.RA3 = 1;
  3869                           	bsf	((c:3968)),c,3	;volatile
  3870  000E96  8680               	line	151
  3871                           	
  3872                           i2l1744:
  3873  000E98                     ;lab6.c: 151: _delay((unsigned long)((5)*(10000000/4000.0)));
  3874                           	opt asmopt_push
  3875                           opt asmopt_off
  3876                           movlw	13
  3877  000E98  0E0D               movwf	(??_high_prio+0+0)&0ffh,c,f
  3878  000E9A  6E09               	movlw	46
  3879  000E9C  0E2E               i2u121_47:
  3880  000E9E                     	dw	0FFFFh; errata NOP
  3881  000E9E  FFFF               decfsz	wreg,f
  3882  000EA0  2EE8               	bra	i2u121_47
  3883  000EA2  D7FD               	decfsz	(??_high_prio+0+0)&0ffh,c,f
  3884  000EA4  2E09               	bra	i2u121_47
  3885  000EA6  D7FB               opt asmopt_pop
  3886                           
  3887                           	goto	i2l1746
  3888  000EA8  EF56  F007         	line	152
  3889                           	
  3890                           i2l91:
  3891  000EAC                     	line	146
  3892                           	
  3893                           i2l1746:
  3894  000EAC                     	btfsc	((c:3969)),c,0	;volatile
  3895  000EAE  B081               	goto	i2u95_41
  3896  000EB0  EF5C  F007         	goto	i2u95_40
  3897  000EB4  EF5F  F007         i2u95_41:
  3898  000EB8                     	goto	i2l92
  3899  000EBA  EF48  F007         i2u95_40:
  3900  000EBE                     	
  3901                           i2l93:
  3902  000EC0                     	line	154
  3903                           ;lab6.c: 152: };lab6.c: 154: PORTAbits.RA1 = 0;
  3904                           	bcf	((c:3968)),c,1	;volatile
  3905  000EC0  9280               	line	155
  3906                           ;lab6.c: 155: PORTAbits.RA2 = 1;
  3907                           	bsf	((c:3968)),c,2	;volatile
  3908  000EC2  8480               	line	156
  3909                           ;lab6.c: 156: PORTAbits.RA3 = 0;
  3910                           	bcf	((c:3968)),c,3	;volatile
  3911  000EC4  9680               	line	158
  3912                           	
  3913                           i2l1748:
  3914  000EC6                     ;lab6.c: 158: initialize_timer();
  3915                           	call	i2_initialize_timer	;wreg free
  3916  000EC6  ECA9  F009         	line	160
  3917                           ;lab6.c: 160: Str_1[1] = h/10 + '0';
  3918                           	movff	(c:_h),(c:i2___awdiv@dividend)
  3919  000ECA  C040  F001         	clrf	((c:i2___awdiv@dividend+1)),c
  3920  000ECE  6A02               	movlw	high(0Ah)
  3921  000ED0  0E00               	movwf	((c:i2___awdiv@divisor+1)),c
  3922  000ED2  6E04               	movlw	low(0Ah)
  3923  000ED4  0E0A               	movwf	((c:i2___awdiv@divisor)),c
  3924  000ED6  6E03               	call	i2___awdiv	;wreg free
  3925  000ED8  EC29  F004         	movf	(0+?i2___awdiv),c,w
  3926  000EDC  5001               	addlw	low(030h)
  3927  000EDE  0F30               	movwf	(0+((c:_Str_1)+01h)),c
  3928  000EE0  6E35               	line	161
  3929                           ;lab6.c: 161: Str_1[2] = h%10 + '0';
  3930                           	movff	(c:_h),(c:i2___awmod@dividend)
  3931  000EE2  C040  F001         	clrf	((c:i2___awmod@dividend+1)),c
  3932  000EE6  6A02               	movlw	high(0Ah)
  3933  000EE8  0E00               	movwf	((c:i2___awmod@divisor+1)),c
  3934  000EEA  6E04               	movlw	low(0Ah)
  3935  000EEC  0E0A               	movwf	((c:i2___awmod@divisor)),c
  3936  000EEE  6E03               	call	i2___awmod	;wreg free
  3937  000EF0  ECBC  F005         	movf	(0+?i2___awmod),c,w
  3938  000EF4  5001               	addlw	low(030h)
  3939  000EF6  0F30               	movwf	(0+((c:_Str_1)+02h)),c
  3940  000EF8  6E36               	line	162
  3941                           ;lab6.c: 162: Str_1[4] = m/10 + '0';
  3942                           	movff	(c:_m),(c:i2___awdiv@dividend)
  3943  000EFA  C03F  F001         	clrf	((c:i2___awdiv@dividend+1)),c
  3944  000EFE  6A02               	movlw	high(0Ah)
  3945  000F00  0E00               	movwf	((c:i2___awdiv@divisor+1)),c
  3946  000F02  6E04               	movlw	low(0Ah)
  3947  000F04  0E0A               	movwf	((c:i2___awdiv@divisor)),c
  3948  000F06  6E03               	call	i2___awdiv	;wreg free
  3949  000F08  EC29  F004         	movf	(0+?i2___awdiv),c,w
  3950  000F0C  5001               	addlw	low(030h)
  3951  000F0E  0F30               	movwf	(0+((c:_Str_1)+04h)),c
  3952  000F10  6E38               	line	163
  3953                           ;lab6.c: 163: Str_1[5] = m%10 + '0';
  3954                           	movff	(c:_m),(c:i2___awmod@dividend)
  3955  000F12  C03F  F001         	clrf	((c:i2___awmod@dividend+1)),c
  3956  000F16  6A02               	movlw	high(0Ah)
  3957  000F18  0E00               	movwf	((c:i2___awmod@divisor+1)),c
  3958  000F1A  6E04               	movlw	low(0Ah)
  3959  000F1C  0E0A               	movwf	((c:i2___awmod@divisor)),c
  3960  000F1E  6E03               	call	i2___awmod	;wreg free
  3961  000F20  ECBC  F005         	movf	(0+?i2___awmod),c,w
  3962  000F24  5001               	addlw	low(030h)
  3963  000F26  0F30               	movwf	(0+((c:_Str_1)+05h)),c
  3964  000F28  6E39               	line	164
  3965                           ;lab6.c: 164: Str_1[7] = s/10 + '0';
  3966                           	movff	(c:_s),(c:i2___awdiv@dividend)
  3967  000F2A  C03E  F001         	clrf	((c:i2___awdiv@dividend+1)),c
  3968  000F2E  6A02               	movlw	high(0Ah)
  3969  000F30  0E00               	movwf	((c:i2___awdiv@divisor+1)),c
  3970  000F32  6E04               	movlw	low(0Ah)
  3971  000F34  0E0A               	movwf	((c:i2___awdiv@divisor)),c
  3972  000F36  6E03               	call	i2___awdiv	;wreg free
  3973  000F38  EC29  F004         	movf	(0+?i2___awdiv),c,w
  3974  000F3C  5001               	addlw	low(030h)
  3975  000F3E  0F30               	movwf	(0+((c:_Str_1)+07h)),c
  3976  000F40  6E3B               	line	165
  3977                           ;lab6.c: 165: Str_1[8] = s%10 + '0';
  3978                           	movff	(c:_s),(c:i2___awmod@dividend)
  3979  000F42  C03E  F001         	clrf	((c:i2___awmod@dividend+1)),c
  3980  000F46  6A02               	movlw	high(0Ah)
  3981  000F48  0E00               	movwf	((c:i2___awmod@divisor+1)),c
  3982  000F4A  6E04               	movlw	low(0Ah)
  3983  000F4C  0E0A               	movwf	((c:i2___awmod@divisor)),c
  3984  000F4E  6E03               	call	i2___awmod	;wreg free
  3985  000F50  ECBC  F005         	movf	(0+?i2___awmod),c,w
  3986  000F54  5001               	addlw	low(030h)
  3987  000F56  0F30               	movwf	(0+((c:_Str_1)+08h)),c
  3988  000F58  6E3C               	line	167
  3989                           	
  3990                           i2l1750:
  3991  000F5A                     ;lab6.c: 167: Print_To_LCD(Str_1);
  3992                           		movlw	low(_Str_1)
  3993  000F5A  0E34               	movwf	((c:i2Print_To_LCD@tempPtr)),c
  3994  000F5C  6E01               	movlw	high(_Str_1)
  3995  000F5E  0E00               	movwf	((c:i2Print_To_LCD@tempPtr+1)),c
  3996  000F60  6E02               
  3997                           	call	i2_Print_To_LCD	;wreg free
  3998  000F62  ECA5  F008         	line	168
  3999                           	
  4000                           i2l94:
  4001  000F66                     	return	;funcret
  4002  000F66  0012               	dw	0FFFFh; errata NOP
  4003  000F68  FFFF               	opt stack 0
  4004                           GLOBAL	__end_of_high_prio
  4005                           	__end_of_high_prio:
  4006  000F6A                     	signat	_high_prio,89
  4007                           	global	i2_initialize_timer
  4008                           
  4009 ;; *************** function i2_initialize_timer *****************
  4010 ;; Defined at:
  4011 ;;		line 327 in file "lab6.c"
  4012 ;; Parameters:    Size  Location     Type
  4013 ;;		None
  4014 ;; Auto vars:     Size  Location     Type
  4015 ;;  initialize_t    2    6[COMRAM] unsigned int 
  4016 ;;  initialize_t    2    2[COMRAM] unsigned int 
  4017 ;;  initialize_t    1    5[COMRAM] unsigned char 
  4018 ;;  initialize_t    1    4[COMRAM] unsigned char 
  4019 ;; Return value:  Size  Location     Type
  4020 ;;                  1    wreg      void 
  4021 ;; Registers used:
  4022 ;;		wreg, status,2, status,0
  4023 ;; Tracked objects:
  4024 ;;		On entry : 0/0
  4025 ;;		On exit  : 0/0
  4026 ;;		Unchanged: 0/0
  4027 ;; Data sizes:     COMRAM   BANK0   BANK1   BANK2   BANK3   BANK4   BANK5
  4028 ;;      Params:         0       0       0       0       0       0       0
  4029 ;;      Locals:         6       0       0       0       0       0       0
  4030 ;;      Temps:          2       0       0       0       0       0       0
  4031 ;;      Totals:         8       0       0       0       0       0       0
  4032 ;;Total ram usage:        8 bytes
  4033 ;; Hardware stack levels used:    1
  4034 ;; This function calls:
  4035 ;;		Nothing
  4036 ;; This function is called by:
  4037 ;;		_high_prio
  4038 ;; This function uses a non-reentrant model
  4039 ;;
  4040                           psect	text16,class=CODE,space=0,reloc=2,group=0
  4041                           	line	327
  4042                           global __ptext16
  4043                           __ptext16:
  4044  001352                     psect	text16
  4045                           	file	"lab6.c"
  4046                           	line	327
  4047                           	global	__size_ofi2_initialize_timer
  4048                           	__size_ofi2_initialize_timer	equ	__end_ofi2_initialize_timer-i2_initialize_timer
  4049  0000                     	
  4050                           i2_initialize_timer:
  4051  001352                     ;incstack = 0
  4052                           	opt	stack 22
  4053                           	line	329
  4054                           	
  4055                           i2l1600:
  4056  001354                     ;lab6.c: 329: T0CONbits.T08BIT = 0;
  4057                           	bcf	((c:4053)),c,6	;volatile
  4058  001354  9CD5               	line	330
  4059                           ;lab6.c: 330: T0CONbits.T0CS = 0;
  4060                           	bcf	((c:4053)),c,5	;volatile
  4061  001356  9AD5               	line	331
  4062                           ;lab6.c: 331: T0CONbits.T0SE = 0;
  4063                           	bcf	((c:4053)),c,4	;volatile
  4064  001358  98D5               	line	332
  4065                           ;lab6.c: 332: T0CONbits.PSA = 0;
  4066                           	bcf	((c:4053)),c,3	;volatile
  4067  00135A  96D5               	line	333
  4068                           	
  4069                           i2l1602:
  4070  00135C                     ;lab6.c: 333: T0CONbits.T0PS = 0b101;
  4071                           	movf	((c:4053)),c,w	;volatile
  4072  00135C  50D5               	andlw	not (((1<<3)-1)<<0)
  4073  00135E  0BF8               	iorlw	(05h & ((1<<3)-1))<<0
  4074  001360  0905               	movwf	((c:4053)),c	;volatile
  4075  001362  6ED5               	line	336
  4076                           ;lab6.c: 336: unsigned int x = (unsigned int)(2.5e6/64);
  4077                           	movlw	high(09896h)
  4078  001364  0E98               	movwf	((c:i2initialize_timer@x+1)),c
  4079  001366  6E04               	movlw	low(09896h)
  4080  001368  0E96               	movwf	((c:i2initialize_timer@x)),c
  4081  00136A  6E03               	line	337
  4082                           	
  4083                           i2l1604:
  4084  00136C                     ;lab6.c: 337: unsigned int pre = 65535 - x;
  4085                           	movff	(c:i2initialize_timer@x),??i2_initialize_timer+0+0
  4086  00136C  C003  F001         	movff	(c:i2initialize_timer@x+1),??i2_initialize_timer+0+0+1
  4087  001370  C004  F002         	comf	(??i2_initialize_timer+0+0),c
  4088  001374  1E01               	comf	(??i2_initialize_timer+0+1),c
  4089  001376  1E02               	infsnz	(??i2_initialize_timer+0+0),c
  4090  001378  4A01               	incf	(??i2_initialize_timer+0+1),c
  4091  00137A  2A02               	movlw	low(0FFFFh)
  4092  00137C  0EFF               	addwf	(??i2_initialize_timer+0+0),c,w
  4093  00137E  2401               	movwf	((c:i2initialize_timer@pre)),c
  4094  001380  6E07               	movlw	high(0FFFFh)
  4095  001382  0EFF               	addwfc	(??i2_initialize_timer+0+1),c,w
  4096  001384  2002               	movwf	1+((c:i2initialize_timer@pre)),c
  4097  001386  6E08               	line	339
  4098                           	
  4099                           i2l1606:
  4100  001388                     ;lab6.c: 339: unsigned char high = (pre >> 8);
  4101                           	movf	((c:i2initialize_timer@pre+1)),c,w
  4102  001388  5008               	movwf	((c:i2initialize_timer@high)),c
  4103  00138A  6E05               	line	340
  4104                           	
  4105                           i2l1608:
  4106  00138C                     ;lab6.c: 340: unsigned char low = (pre << 8) >> 8;
  4107                           	movff	(c:i2initialize_timer@pre),(c:i2initialize_timer@low)
  4108  00138C  C007  F006         	line	341
  4109                           	
  4110                           i2l1610:
  4111  001390                     ;lab6.c: 341: TMR0H = high;
  4112                           	movff	(c:i2initialize_timer@high),(c:4055)	;volatile
  4113  001390  C005  FFD7         	line	342
  4114                           	
  4115                           i2l1612:
  4116  001394                     ;lab6.c: 342: TMR0L = low;
  4117                           	movff	(c:i2initialize_timer@low),(c:4054)	;volatile
  4118  001394  C006  FFD6         	line	343
  4119                           	
  4120                           i2l128:
  4121  001398                     	return	;funcret
  4122  001398  0012               	dw	0FFFFh; errata NOP
  4123  00139A  FFFF               	opt stack 0
  4124                           GLOBAL	__end_ofi2_initialize_timer
  4125                           	__end_ofi2_initialize_timer:
  4126  00139C                     	signat	i2_initialize_timer,89
  4127                           	global	i2___awmod
  4128                           
  4129 ;; *************** function i2___awmod *****************
  4130 ;; Defined at:
  4131 ;;		line 7 in file "C:\Program Files (x86)\Microchip\xc8\v2.00\pic\sources\c90\common\awmod.c"
  4132 ;; Parameters:    Size  Location     Type
  4133 ;;  dividend        2    0[COMRAM] int 
  4134 ;;  divisor         2    2[COMRAM] int 
  4135 ;; Auto vars:     Size  Location     Type
  4136 ;;  __awmod         1    5[COMRAM] unsigned char 
  4137 ;;  __awmod         1    4[COMRAM] unsigned char 
  4138 ;; Return value:  Size  Location     Type
  4139 ;;                  2    0[COMRAM] int 
  4140 ;; Registers used:
  4141 ;;		wreg, status,2, status,0
  4142 ;; Tracked objects:
  4143 ;;		On entry : 0/0
  4144 ;;		On exit  : 0/0
  4145 ;;		Unchanged: 0/0
  4146 ;; Data sizes:     COMRAM   BANK0   BANK1   BANK2   BANK3   BANK4   BANK5
  4147 ;;      Params:         4       0       0       0       0       0       0
  4148 ;;      Locals:         2       0       0       0       0       0       0
  4149 ;;      Temps:          0       0       0       0       0       0       0
  4150 ;;      Totals:         6       0       0       0       0       0       0
  4151 ;;Total ram usage:        6 bytes
  4152 ;; Hardware stack levels used:    1
  4153 ;; This function calls:
  4154 ;;		Nothing
  4155 ;; This function is called by:
  4156 ;;		_high_prio
  4157 ;; This function uses a non-reentrant model
  4158 ;;
  4159                           psect	text17,class=CODE,space=0,reloc=2,group=0
  4160                           	file	"C:\Program Files (x86)\Microchip\xc8\v2.00\pic\sources\c90\common\awmod.c"
  4161                           	line	7
  4162                           global __ptext17
  4163                           __ptext17:
  4164  000B78                     psect	text17
  4165                           	file	"C:\Program Files (x86)\Microchip\xc8\v2.00\pic\sources\c90\common\awmod.c"
  4166                           	line	7
  4167                           	global	__size_ofi2___awmod
  4168                           	__size_ofi2___awmod	equ	__end_ofi2___awmod-i2___awmod
  4169  0000                     	
  4170                           i2___awmod:
  4171  000B78                     ;incstack = 0
  4172                           	opt	stack 22
  4173                           	line	12
  4174                           	
  4175                           i2l1658:
  4176  000B7A                     	movlw	low(0)
  4177  000B7A  0E00               	movwf	((c:i2___awmod@sign)),c
  4178  000B7C  6E06               	line	13
  4179                           	
  4180                           i2l1660:
  4181  000B7E                     	btfsc	((c:i2___awmod@dividend+1)),c,7
  4182  000B7E  BE02               	goto	i2u86_40
  4183  000B80  EFC7  F005         	goto	i2u86_41
  4184  000B84  EFC4  F005         
  4185                           i2u86_41:
  4186  000B88                     	goto	i2l1666
  4187  000B8A  EFD0  F005         i2u86_40:
  4188  000B8E                     	line	14
  4189                           	
  4190                           i2l1662:
  4191  000B90                     	negf	((c:i2___awmod@dividend)),c
  4192  000B90  6C01               	comf	((c:i2___awmod@dividend+1)),c
  4193  000B92  1E02               	btfsc	status,0
  4194  000B94  B0D8               	incf	((c:i2___awmod@dividend+1)),c
  4195  000B96  2A02               	line	15
  4196                           	
  4197                           i2l1664:
  4198  000B98                     	movlw	low(01h)
  4199  000B98  0E01               	movwf	((c:i2___awmod@sign)),c
  4200  000B9A  6E06               	goto	i2l1666
  4201  000B9C  EFD0  F005         	line	16
  4202                           	
  4203                           i2l365:
  4204  000BA0                     	line	17
  4205                           	
  4206                           i2l1666:
  4207  000BA0                     	btfsc	((c:i2___awmod@divisor+1)),c,7
  4208  000BA2  BE04               	goto	i2u87_40
  4209  000BA4  EFD9  F005         	goto	i2u87_41
  4210  000BA8  EFD6  F005         
  4211                           i2u87_41:
  4212  000BAC                     	goto	i2l1670
  4213  000BAE  EFE0  F005         i2u87_40:
  4214  000BB2                     	line	18
  4215                           	
  4216                           i2l1668:
  4217  000BB4                     	negf	((c:i2___awmod@divisor)),c
  4218  000BB4  6C03               	comf	((c:i2___awmod@divisor+1)),c
  4219  000BB6  1E04               	btfsc	status,0
  4220  000BB8  B0D8               	incf	((c:i2___awmod@divisor+1)),c
  4221  000BBA  2A04               	goto	i2l1670
  4222  000BBC  EFE0  F005         	
  4223                           i2l366:
  4224  000BC0                     	line	19
  4225                           	
  4226                           i2l1670:
  4227  000BC0                     	movf	((c:i2___awmod@divisor)),c,w
  4228  000BC2  5003               iorwf	((c:i2___awmod@divisor+1)),c,w
  4229  000BC4  1004               	btfsc	status,2
  4230  000BC6  B4D8               	goto	i2u88_41
  4231  000BC8  EFE8  F005         	goto	i2u88_40
  4232  000BCC  EFEB  F005         
  4233                           i2u88_41:
  4234  000BD0                     	goto	i2l1686
  4235  000BD2  EF24  F006         i2u88_40:
  4236  000BD6                     	line	20
  4237                           	
  4238                           i2l1672:
  4239  000BD8                     	movlw	low(01h)
  4240  000BD8  0E01               	movwf	((c:i2___awmod@counter)),c
  4241  000BDA  6E05               	line	21
  4242                           	goto	i2l1676
  4243  000BDC  EFF7  F005         	
  4244                           i2l369:
  4245  000BE0                     	line	22
  4246                           	
  4247                           i2l1674:
  4248  000BE0                     	bcf	status,0
  4249  000BE2  90D8               	rlcf	((c:i2___awmod@divisor)),c
  4250  000BE4  3603               	rlcf	((c:i2___awmod@divisor+1)),c
  4251  000BE6  3604               	line	23
  4252                           	incf	((c:i2___awmod@counter)),c
  4253  000BE8  2A05               	goto	i2l1676
  4254  000BEA  EFF7  F005         	line	24
  4255                           	
  4256                           i2l368:
  4257  000BEE                     	line	21
  4258                           	
  4259                           i2l1676:
  4260  000BEE                     	
  4261                           	btfss	((c:i2___awmod@divisor+1)),c,(15)&7
  4262  000BF0  AE04               	goto	i2u89_41
  4263  000BF2  EFFD  F005         	goto	i2u89_40
  4264  000BF6  EF00  F006         i2u89_41:
  4265  000BFA                     	goto	i2l1674
  4266  000BFC  EFF0  F005         i2u89_40:
  4267  000C00                     	goto	i2l1678
  4268  000C02  EF05  F006         	
  4269                           i2l370:
  4270  000C06                     	goto	i2l1678
  4271  000C06  EF05  F006         	line	25
  4272                           	
  4273                           i2l371:
  4274  000C0A                     	line	26
  4275                           	
  4276                           i2l1678:
  4277  000C0A                     		movf	((c:i2___awmod@divisor)),c,w
  4278  000C0C  5003               	subwf	((c:i2___awmod@dividend)),c,w
  4279  000C0E  5C01               	movf	((c:i2___awmod@divisor+1)),c,w
  4280  000C10  5004               	subwfb	((c:i2___awmod@dividend+1)),c,w
  4281  000C12  5802               	btfss	status,0
  4282  000C14  A0D8               	goto	i2u90_41
  4283  000C16  EF0F  F006         	goto	i2u90_40
  4284  000C1A  EF12  F006         
  4285                           i2u90_41:
  4286  000C1E                     	goto	i2l1682
  4287  000C20  EF19  F006         i2u90_40:
  4288  000C24                     	line	27
  4289                           	
  4290                           i2l1680:
  4291  000C26                     	movf	((c:i2___awmod@divisor)),c,w
  4292  000C26  5003               	subwf	((c:i2___awmod@dividend)),c
  4293  000C28  5E01               	movf	((c:i2___awmod@divisor+1)),c,w
  4294  000C2A  5004               	subwfb	((c:i2___awmod@dividend+1)),c
  4295  000C2C  5A02               
  4296                           	goto	i2l1682
  4297  000C2E  EF19  F006         	
  4298                           i2l372:
  4299  000C32                     	line	28
  4300                           	
  4301                           i2l1682:
  4302  000C32                     	bcf	status,0
  4303  000C34  90D8               	rrcf	((c:i2___awmod@divisor+1)),c
  4304  000C36  3204               	rrcf	((c:i2___awmod@divisor)),c
  4305  000C38  3203               	line	29
  4306                           	
  4307                           i2l1684:
  4308  000C3A                     	decfsz	((c:i2___awmod@counter)),c
  4309  000C3A  2E05               	
  4310                           	goto	i2l1678
  4311  000C3C  EF05  F006         	goto	i2l1686
  4312  000C40  EF24  F006         	
  4313                           i2l373:
  4314  000C44                     	goto	i2l1686
  4315  000C44  EF24  F006         	line	30
  4316                           	
  4317                           i2l367:
  4318  000C48                     	line	31
  4319                           	
  4320                           i2l1686:
  4321  000C48                     	movf	((c:i2___awmod@sign)),c,w
  4322  000C4A  5006               	btfsc	status,2
  4323  000C4C  B4D8               	goto	i2u91_41
  4324  000C4E  EF2B  F006         	goto	i2u91_40
  4325  000C52  EF2E  F006         i2u91_41:
  4326  000C56                     	goto	i2l1690
  4327  000C58  EF35  F006         i2u91_40:
  4328  000C5C                     	line	32
  4329                           	
  4330                           i2l1688:
  4331  000C5E                     	negf	((c:i2___awmod@dividend)),c
  4332  000C5E  6C01               	comf	((c:i2___awmod@dividend+1)),c
  4333  000C60  1E02               	btfsc	status,0
  4334  000C62  B0D8               	incf	((c:i2___awmod@dividend+1)),c
  4335  000C64  2A02               	goto	i2l1690
  4336  000C66  EF35  F006         	
  4337                           i2l374:
  4338  000C6A                     	line	33
  4339                           	
  4340                           i2l1690:
  4341  000C6A                     	movff	(c:i2___awmod@dividend),(c:?i2___awmod)
  4342  000C6C  C001  F001         	movff	(c:i2___awmod@dividend+1),(c:?i2___awmod+1)
  4343  000C70  C002  F002         	goto	i2l375
  4344  000C74  EF3C  F006         	
  4345                           i2l1692:
  4346  000C78                     	line	34
  4347                           	
  4348                           i2l375:
  4349  000C78                     	return	;funcret
  4350  000C7A  0012               	dw	0FFFFh; errata NOP
  4351  000C7C  FFFF               	opt stack 0
  4352                           GLOBAL	__end_ofi2___awmod
  4353                           	__end_ofi2___awmod:
  4354  000C7E                     	signat	i2___awmod,90
  4355                           	global	i2___awdiv
  4356                           
  4357 ;; *************** function i2___awdiv *****************
  4358 ;; Defined at:
  4359 ;;		line 7 in file "C:\Program Files (x86)\Microchip\xc8\v2.00\pic\sources\c90\common\awdiv.c"
  4360 ;; Parameters:    Size  Location     Type
  4361 ;;  dividend        2    0[COMRAM] int 
  4362 ;;  divisor         2    2[COMRAM] int 
  4363 ;; Auto vars:     Size  Location     Type
  4364 ;;  __awdiv         2    6[COMRAM] int 
  4365 ;;  __awdiv         1    5[COMRAM] unsigned char 
  4366 ;;  __awdiv         1    4[COMRAM] unsigned char 
  4367 ;; Return value:  Size  Location     Type
  4368 ;;                  2    0[COMRAM] int 
  4369 ;; Registers used:
  4370 ;;		wreg, status,2, status,0
  4371 ;; Tracked objects:
  4372 ;;		On entry : 0/0
  4373 ;;		On exit  : 0/0
  4374 ;;		Unchanged: 0/0
  4375 ;; Data sizes:     COMRAM   BANK0   BANK1   BANK2   BANK3   BANK4   BANK5
  4376 ;;      Params:         4       0       0       0       0       0       0
  4377 ;;      Locals:         4       0       0       0       0       0       0
  4378 ;;      Temps:          0       0       0       0       0       0       0
  4379 ;;      Totals:         8       0       0       0       0       0       0
  4380 ;;Total ram usage:        8 bytes
  4381 ;; Hardware stack levels used:    1
  4382 ;; This function calls:
  4383 ;;		Nothing
  4384 ;; This function is called by:
  4385 ;;		_high_prio
  4386 ;; This function uses a non-reentrant model
  4387 ;;
  4388                           psect	text18,class=CODE,space=0,reloc=2,group=0
  4389                           	file	"C:\Program Files (x86)\Microchip\xc8\v2.00\pic\sources\c90\common\awdiv.c"
  4390                           	line	7
  4391                           global __ptext18
  4392                           __ptext18:
  4393  000852                     psect	text18
  4394                           	file	"C:\Program Files (x86)\Microchip\xc8\v2.00\pic\sources\c90\common\awdiv.c"
  4395                           	line	7
  4396                           	global	__size_ofi2___awdiv
  4397                           	__size_ofi2___awdiv	equ	__end_ofi2___awdiv-i2___awdiv
  4398  0000                     	
  4399                           i2___awdiv:
  4400  000852                     ;incstack = 0
  4401                           	opt	stack 22
  4402                           	line	13
  4403                           	
  4404                           i2l1614:
  4405  000854                     	movlw	low(0)
  4406  000854  0E00               	movwf	((c:i2___awdiv@sign)),c
  4407  000856  6E06               	line	14
  4408                           	
  4409                           i2l1616:
  4410  000858                     	btfsc	((c:i2___awdiv@divisor+1)),c,7
  4411  000858  BE04               	goto	i2u80_40
  4412  00085A  EF34  F004         	goto	i2u80_41
  4413  00085E  EF31  F004         
  4414                           i2u80_41:
  4415  000862                     	goto	i2l1622
  4416  000864  EF3D  F004         i2u80_40:
  4417  000868                     	line	15
  4418                           	
  4419                           i2l1618:
  4420  00086A                     	negf	((c:i2___awdiv@divisor)),c
  4421  00086A  6C03               	comf	((c:i2___awdiv@divisor+1)),c
  4422  00086C  1E04               	btfsc	status,0
  4423  00086E  B0D8               	incf	((c:i2___awdiv@divisor+1)),c
  4424  000870  2A04               	line	16
  4425                           	
  4426                           i2l1620:
  4427  000872                     	movlw	low(01h)
  4428  000872  0E01               	movwf	((c:i2___awdiv@sign)),c
  4429  000874  6E06               	goto	i2l1622
  4430  000876  EF3D  F004         	line	17
  4431                           	
  4432                           i2l352:
  4433  00087A                     	line	18
  4434                           	
  4435                           i2l1622:
  4436  00087A                     	btfsc	((c:i2___awdiv@dividend+1)),c,7
  4437  00087C  BE02               	goto	i2u81_40
  4438  00087E  EF46  F004         	goto	i2u81_41
  4439  000882  EF43  F004         
  4440                           i2u81_41:
  4441  000886                     	goto	i2l1628
  4442  000888  EF4F  F004         i2u81_40:
  4443  00088C                     	line	19
  4444                           	
  4445                           i2l1624:
  4446  00088E                     	negf	((c:i2___awdiv@dividend)),c
  4447  00088E  6C01               	comf	((c:i2___awdiv@dividend+1)),c
  4448  000890  1E02               	btfsc	status,0
  4449  000892  B0D8               	incf	((c:i2___awdiv@dividend+1)),c
  4450  000894  2A02               	line	20
  4451                           	
  4452                           i2l1626:
  4453  000896                     	movlw	(01h)&0ffh
  4454  000896  0E01               	xorwf	((c:i2___awdiv@sign)),c
  4455  000898  1A06               	goto	i2l1628
  4456  00089A  EF4F  F004         	line	21
  4457                           	
  4458                           i2l353:
  4459  00089E                     	line	22
  4460                           	
  4461                           i2l1628:
  4462  00089E                     	movlw	high(0)
  4463  0008A0  0E00               	movwf	((c:i2___awdiv@quotient+1)),c
  4464  0008A2  6E08               	movlw	low(0)
  4465  0008A4  0E00               	movwf	((c:i2___awdiv@quotient)),c
  4466  0008A6  6E07               	line	23
  4467                           	
  4468                           i2l1630:
  4469  0008A8                     	movf	((c:i2___awdiv@divisor)),c,w
  4470  0008A8  5003               iorwf	((c:i2___awdiv@divisor+1)),c,w
  4471  0008AA  1004               	btfsc	status,2
  4472  0008AC  B4D8               	goto	i2u82_41
  4473  0008AE  EF5B  F004         	goto	i2u82_40
  4474  0008B2  EF5E  F004         
  4475                           i2u82_41:
  4476  0008B6                     	goto	i2l1650
  4477  0008B8  EF9B  F004         i2u82_40:
  4478  0008BC                     	line	24
  4479                           	
  4480                           i2l1632:
  4481  0008BE                     	movlw	low(01h)
  4482  0008BE  0E01               	movwf	((c:i2___awdiv@counter)),c
  4483  0008C0  6E05               	line	25
  4484                           	goto	i2l1636
  4485  0008C2  EF6A  F004         	
  4486                           i2l356:
  4487  0008C6                     	line	26
  4488                           	
  4489                           i2l1634:
  4490  0008C6                     	bcf	status,0
  4491  0008C8  90D8               	rlcf	((c:i2___awdiv@divisor)),c
  4492  0008CA  3603               	rlcf	((c:i2___awdiv@divisor+1)),c
  4493  0008CC  3604               	line	27
  4494                           	incf	((c:i2___awdiv@counter)),c
  4495  0008CE  2A05               	goto	i2l1636
  4496  0008D0  EF6A  F004         	line	28
  4497                           	
  4498                           i2l355:
  4499  0008D4                     	line	25
  4500                           	
  4501                           i2l1636:
  4502  0008D4                     	
  4503                           	btfss	((c:i2___awdiv@divisor+1)),c,(15)&7
  4504  0008D6  AE04               	goto	i2u83_41
  4505  0008D8  EF70  F004         	goto	i2u83_40
  4506  0008DC  EF73  F004         i2u83_41:
  4507  0008E0                     	goto	i2l1634
  4508  0008E2  EF63  F004         i2u83_40:
  4509  0008E6                     	goto	i2l1638
  4510  0008E8  EF78  F004         	
  4511                           i2l357:
  4512  0008EC                     	goto	i2l1638
  4513  0008EC  EF78  F004         	line	29
  4514                           	
  4515                           i2l358:
  4516  0008F0                     	line	30
  4517                           	
  4518                           i2l1638:
  4519  0008F0                     	bcf	status,0
  4520  0008F2  90D8               	rlcf	((c:i2___awdiv@quotient)),c
  4521  0008F4  3607               	rlcf	((c:i2___awdiv@quotient+1)),c
  4522  0008F6  3608               	line	31
  4523                           	
  4524                           i2l1640:
  4525  0008F8                     		movf	((c:i2___awdiv@divisor)),c,w
  4526  0008F8  5003               	subwf	((c:i2___awdiv@dividend)),c,w
  4527  0008FA  5C01               	movf	((c:i2___awdiv@divisor+1)),c,w
  4528  0008FC  5004               	subwfb	((c:i2___awdiv@dividend+1)),c,w
  4529  0008FE  5802               	btfss	status,0
  4530  000900  A0D8               	goto	i2u84_41
  4531  000902  EF85  F004         	goto	i2u84_40
  4532  000906  EF88  F004         
  4533                           i2u84_41:
  4534  00090A                     	goto	i2l1646
  4535  00090C  EF90  F004         i2u84_40:
  4536  000910                     	line	32
  4537                           	
  4538                           i2l1642:
  4539  000912                     	movf	((c:i2___awdiv@divisor)),c,w
  4540  000912  5003               	subwf	((c:i2___awdiv@dividend)),c
  4541  000914  5E01               	movf	((c:i2___awdiv@divisor+1)),c,w
  4542  000916  5004               	subwfb	((c:i2___awdiv@dividend+1)),c
  4543  000918  5A02               
  4544                           	line	33
  4545                           	
  4546                           i2l1644:
  4547  00091A                     	bsf	(0+(0/8)+(c:i2___awdiv@quotient)),c,(0)&7
  4548  00091A  8007               	goto	i2l1646
  4549  00091C  EF90  F004         	line	34
  4550                           	
  4551                           i2l359:
  4552  000920                     	line	35
  4553                           	
  4554                           i2l1646:
  4555  000920                     	bcf	status,0
  4556  000922  90D8               	rrcf	((c:i2___awdiv@divisor+1)),c
  4557  000924  3204               	rrcf	((c:i2___awdiv@divisor)),c
  4558  000926  3203               	line	36
  4559                           	
  4560                           i2l1648:
  4561  000928                     	decfsz	((c:i2___awdiv@counter)),c
  4562  000928  2E05               	
  4563                           	goto	i2l1638
  4564  00092A  EF78  F004         	goto	i2l1650
  4565  00092E  EF9B  F004         	
  4566                           i2l360:
  4567  000932                     	goto	i2l1650
  4568  000932  EF9B  F004         	line	37
  4569                           	
  4570                           i2l354:
  4571  000936                     	line	38
  4572                           	
  4573                           i2l1650:
  4574  000936                     	movf	((c:i2___awdiv@sign)),c,w
  4575  000938  5006               	btfsc	status,2
  4576  00093A  B4D8               	goto	i2u85_41
  4577  00093C  EFA2  F004         	goto	i2u85_40
  4578  000940  EFA5  F004         i2u85_41:
  4579  000944                     	goto	i2l1654
  4580  000946  EFAC  F004         i2u85_40:
  4581  00094A                     	line	39
  4582                           	
  4583                           i2l1652:
  4584  00094C                     	negf	((c:i2___awdiv@quotient)),c
  4585  00094C  6C07               	comf	((c:i2___awdiv@quotient+1)),c
  4586  00094E  1E08               	btfsc	status,0
  4587  000950  B0D8               	incf	((c:i2___awdiv@quotient+1)),c
  4588  000952  2A08               	goto	i2l1654
  4589  000954  EFAC  F004         	
  4590                           i2l361:
  4591  000958                     	line	40
  4592                           	
  4593                           i2l1654:
  4594  000958                     	movff	(c:i2___awdiv@quotient),(c:?i2___awdiv)
  4595  00095A  C007  F001         	movff	(c:i2___awdiv@quotient+1),(c:?i2___awdiv+1)
  4596  00095E  C008  F002         	goto	i2l362
  4597  000962  EFB3  F004         	
  4598                           i2l1656:
  4599  000966                     	line	41
  4600                           	
  4601                           i2l362:
  4602  000966                     	return	;funcret
  4603  000968  0012               	dw	0FFFFh; errata NOP
  4604  00096A  FFFF               	opt stack 0
  4605                           GLOBAL	__end_ofi2___awdiv
  4606                           	__end_ofi2___awdiv:
  4607  00096C                     	signat	i2___awdiv,90
  4608                           	global	i2_Print_To_LCD
  4609                           
  4610 ;; *************** function i2_Print_To_LCD *****************
  4611 ;; Defined at:
  4612 ;;		line 286 in file "lab6.c"
  4613 ;; Parameters:    Size  Location     Type
  4614 ;;  tempPtr         2    0[COMRAM] PTR const unsigned char 
  4615 ;;		 -> Str_1(10), Clear2(10), Clear1(10), 
  4616 ;; Auto vars:     Size  Location     Type
  4617 ;;  Print_To_LCD    1    3[COMRAM] unsigned char 
  4618 ;; Return value:  Size  Location     Type
  4619 ;;                  1    wreg      void 
  4620 ;; Registers used:
  4621 ;;		wreg, fsr0l, fsr0h, status,2, status,0, tblptrl, tblptrh, tblptru
  4622 ;; Tracked objects:
  4623 ;;		On entry : 0/0
  4624 ;;		On exit  : 0/0
  4625 ;;		Unchanged: 0/0
  4626 ;; Data sizes:     COMRAM   BANK0   BANK1   BANK2   BANK3   BANK4   BANK5
  4627 ;;      Params:         2       0       0       0       0       0       0
  4628 ;;      Locals:         1       0       0       0       0       0       0
  4629 ;;      Temps:          1       0       0       0       0       0       0
  4630 ;;      Totals:         4       0       0       0       0       0       0
  4631 ;;Total ram usage:        4 bytes
  4632 ;; Hardware stack levels used:    1
  4633 ;; This function calls:
  4634 ;;		Nothing
  4635 ;; This function is called by:
  4636 ;;		_high_prio
  4637 ;; This function uses a non-reentrant model
  4638 ;;
  4639                           psect	text19,class=CODE,space=0,reloc=2,group=0
  4640                           	file	"lab6.c"
  4641                           	line	286
  4642                           global __ptext19
  4643                           __ptext19:
  4644  00114A                     psect	text19
  4645                           	file	"lab6.c"
  4646                           	line	286
  4647                           	global	__size_ofi2_Print_To_LCD
  4648                           	__size_ofi2_Print_To_LCD	equ	__end_ofi2_Print_To_LCD-i2_Print_To_LCD
  4649  0000                     	
  4650                           i2_Print_To_LCD:
  4651  00114A                     ;incstack = 0
  4652                           	opt	stack 22
  4653                           	line	289
  4654                           	
  4655                           i2l1576:
  4656  00114C                     ;lab6.c: 288: char currentChar;;lab6.c: 289: PORTEbits.RE0 = 0;
  4657                           	bcf	((c:3972)),c,0	;volatile
  4658  00114C  9084               	line	291
  4659                           ;lab6.c: 291: while (*tempPtr)
  4660                           	goto	i2l119
  4661  00114E  EFD2  F008         	
  4662                           i2l120:
  4663  001152                     	line	293
  4664                           	
  4665                           i2l1578:
  4666  001152                     ;lab6.c: 292: {;lab6.c: 293: currentChar = *tempPtr;
  4667                           	movff	(c:i2Print_To_LCD@tempPtr),tblptrl
  4668  001154  C001  FFF6         	movff	(c:i2Print_To_LCD@tempPtr+1),tblptrh
  4669  001158  C002  FFF7         	clrf	tblptru
  4670  00115C  6AF8               	
  4671                           	movlw	high __ramtop-1
  4672  00115E  0E05               	cpfsgt	tblptrh
  4673  001160  64F7               	bra	i2u77_47
  4674  001162  D004               	tblrd	*
  4675  001164  0008               		dw	0FFFFh; errata NOP
  4676  001166  FFFF               
  4677                           	movf	tablat,w
  4678  001168  50F5               	bra	i2u77_40
  4679  00116A  D005               i2u77_47:
  4680  00116C                     	movff	tblptrl,fsr0l
  4681  00116C  CFF6 FFE9          	movff	tblptrh,fsr0h
  4682  001170  CFF7 FFEA          	movf	indf0,w
  4683  001174  50EF               i2u77_40:
  4684  001176                     	movwf	((c:i2Print_To_LCD@currentChar)),c
  4685  001176  6E04               	line	294
  4686                           	
  4687                           i2l1580:
  4688  001178                     ;lab6.c: 294: PORTEbits.RE1 = 1;
  4689                           	bsf	((c:3972)),c,1	;volatile
  4690  001178  8284               	line	295
  4691                           	
  4692                           i2l1582:
  4693  00117A                     ;lab6.c: 295: PORTD = currentChar;
  4694                           	movff	(c:i2Print_To_LCD@currentChar),(c:3971)	;volatile
  4695  00117A  C004  FF83         	line	296
  4696                           	
  4697                           i2l1584:
  4698  00117E                     ;lab6.c: 296: PORTEbits.RE1 = 0;
  4699                           	bcf	((c:3972)),c,1	;volatile
  4700  00117E  9284               	line	297
  4701                           	
  4702                           i2l1586:
  4703  001180                     ;lab6.c: 297: currentChar <<= 4;
  4704                           	swapf	((c:i2Print_To_LCD@currentChar)),c
  4705  001180  3A04               	movlw	240
  4706  001182  0EF0               	andwf	((c:i2Print_To_LCD@currentChar)),c
  4707  001184  1604               
  4708                           	line	298
  4709                           	
  4710                           i2l1588:
  4711  001186                     ;lab6.c: 298: PORTEbits.RE1 = 1;
  4712                           	bsf	((c:3972)),c,1	;volatile
  4713  001186  8284               	line	299
  4714                           	
  4715                           i2l1590:
  4716  001188                     ;lab6.c: 299: PORTD = currentChar;
  4717                           	movff	(c:i2Print_To_LCD@currentChar),(c:3971)	;volatile
  4718  001188  C004  FF83         	line	300
  4719                           	
  4720                           i2l1592:
  4721  00118C                     ;lab6.c: 300: PORTEbits.RE1 = 0;
  4722                           	bcf	((c:3972)),c,1	;volatile
  4723  00118C  9284               	line	301
  4724                           	
  4725                           i2l1594:
  4726  00118E                     ;lab6.c: 301: _delay((unsigned long)((10)*(10000000/4000.0)));
  4727                           	opt asmopt_push
  4728                           opt asmopt_off
  4729                           movlw	25
  4730  00118E  0E19               movwf	(??i2_Print_To_LCD+0+0)&0ffh,c,f
  4731  001190  6E03               	movlw	93
  4732  001192  0E5D               i2u122_47:
  4733  001194                     	dw	0FFFFh; errata NOP
  4734  001194  FFFF               decfsz	wreg,f
  4735  001196  2EE8               	bra	i2u122_47
  4736  001198  D7FD               	decfsz	(??i2_Print_To_LCD+0+0)&0ffh,c,f
  4737  00119A  2E03               	bra	i2u122_47
  4738  00119C  D7FB               opt asmopt_pop
  4739                           
  4740                           	line	302
  4741                           	
  4742                           i2l1596:
  4743  00119E                     ;lab6.c: 302: PORTEbits.RE0 = 1;
  4744                           	bsf	((c:3972)),c,0	;volatile
  4745  00119E  8084               	line	303
  4746                           	
  4747                           i2l1598:
  4748  0011A0                     ;lab6.c: 303: tempPtr++;
  4749                           	infsnz	((c:i2Print_To_LCD@tempPtr)),c
  4750  0011A0  4A01               	incf	((c:i2Print_To_LCD@tempPtr+1)),c
  4751  0011A2  2A02               	line	304
  4752                           	
  4753                           i2l119:
  4754  0011A4                     	line	291
  4755                           	movff	(c:i2Print_To_LCD@tempPtr),tblptrl
  4756  0011A6  C001  FFF6         	movff	(c:i2Print_To_LCD@tempPtr+1),tblptrh
  4757  0011AA  C002  FFF7         	clrf	tblptru
  4758  0011AE  6AF8               	
  4759                           	movlw	high __ramtop-1
  4760  0011B0  0E05               	cpfsgt	tblptrh
  4761  0011B2  64F7               	bra	i2u78_47
  4762  0011B4  D004               	tblrd	*
  4763  0011B6  0008               		dw	0FFFFh; errata NOP
  4764  0011B8  FFFF               
  4765                           	movf	tablat,w
  4766  0011BA  50F5               	bra	i2u78_40
  4767  0011BC  D005               i2u78_47:
  4768  0011BE                     	movff	tblptrl,fsr0l
  4769  0011BE  CFF6 FFE9          	movff	tblptrh,fsr0h
  4770  0011C2  CFF7 FFEA          	movf	indf0,w
  4771  0011C6  50EF               i2u78_40:
  4772  0011C8                     	iorlw	0
  4773  0011C8  0900               	btfss	status,2
  4774  0011CA  A4D8               	goto	i2u79_41
  4775  0011CC  EFEA  F008         	goto	i2u79_40
  4776  0011D0  EFED  F008         i2u79_41:
  4777  0011D4                     	goto	i2l1578
  4778  0011D6  EFA9  F008         i2u79_40:
  4779  0011DA                     	goto	i2l122
  4780  0011DC  EFF0  F008         	
  4781                           i2l121:
  4782  0011E0                     	line	305
  4783                           	
  4784                           i2l122:
  4785  0011E0                     	return	;funcret
  4786  0011E2  0012               	dw	0FFFFh; errata NOP
  4787  0011E4  FFFF               	opt stack 0
  4788                           GLOBAL	__end_ofi2_Print_To_LCD
  4789                           	__end_ofi2_Print_To_LCD:
  4790  0011E6                     	signat	i2_Print_To_LCD,89
  4791                           psect	smallconst
  4792                           	db 0	; dummy byte at the end
  4793  00061D  00                 	global	__smallconst
  4794                           	global	__mediumconst
  4795                           	GLOBAL	__activetblptr
  4796                           __activetblptr	EQU	2
  4797  0000                     	psect	intsave_regs,class=BIGRAM,space=1,noexec
  4798                           	PSECT	rparam,class=COMRAM,space=1,noexec
  4799                           	GLOBAL	__Lrparam
  4800                           	FNCONF	rparam,??,?
  4801                           	GLOBAL	___rparam_used
  4802                           	___rparam_used EQU 1
  4803  0000                     	GLOBAL	___param_bank
  4804                           	___param_bank EQU 0
  4805  0000                     GLOBAL	__Lparam, __Hparam
  4806                           GLOBAL	__Lrparam, __Hrparam
  4807                           __Lparam	EQU	__Lrparam
  4808  0000                     __Hparam	EQU	__Hrparam
  4809  0000                            psect   temp,common,ovrld,class=COMRAM,space=1
  4810                           	global	btemp
  4811                           btemp:
  4812  000041                     	ds	1
  4813  000041                     	global	int$flags
  4814                           	int$flags	set btemp
  4815  0000                     	global	wtemp8
  4816                           	wtemp8 set btemp+1
  4817  0000                     	global	ttemp5
  4818                           	ttemp5 set btemp+1
  4819  0000                     	global	ttemp6
  4820                           	ttemp6 set btemp+4
  4821  0000                     	global	ttemp7
  4822                           	ttemp7 set btemp+8
  4823  0000                     	end
  4824  000D80  FFFF               


Data Sizes:
    Strings     0
    Constant    28
    Data        20
    BSS         3
    Persistent  0
    Stack       0

Auto Spaces:
    Space          Size  Autos    Used
    COMRAM          126     41      64
    BANK0           128      0       0
    BANK1           256      0       0
    BANK2           256      0       0
    BANK3           256      0       0
    BANK4           256      0       0
    BANK5           256      0       0

Pointer List with Targets:

    Print_To_LCD@tempPtr	PTR const unsigned char  size(2) Largest target is 10
		 -> Str_1(COMRAM[10]), Clear2(CODE[10]), Clear1(CODE[10]), 

    Initialize_LCD@tempPtr	PTR unsigned char  size(2) Largest target is 8
		 -> LCDstr(CODE[8]), 


Critical Paths under _main in COMRAM

    _main->___awdiv
    _main->_initialize_timer
    _Initialize_PIC->_Initialize_LCD

Critical Paths under _Timer in COMRAM

    _Timer->_timer_display
    _timer_display->i1_initialize_timer
    _increment_time->i1___awdiv

Critical Paths under _My_ISR_High in COMRAM

    _My_ISR_High->_high_prio
    _high_prio->i2___awdiv
    _high_prio->i2_initialize_timer

Critical Paths under _main in BANK0

    None.

Critical Paths under _Timer in BANK0

    None.

Critical Paths under _My_ISR_High in BANK0

    None.

Critical Paths under _main in BANK1

    None.

Critical Paths under _Timer in BANK1

    None.

Critical Paths under _My_ISR_High in BANK1

    None.

Critical Paths under _main in BANK2

    None.

Critical Paths under _Timer in BANK2

    None.

Critical Paths under _My_ISR_High in BANK2

    None.

Critical Paths under _main in BANK3

    None.

Critical Paths under _Timer in BANK3

    None.

Critical Paths under _My_ISR_High in BANK3

    None.

Critical Paths under _main in BANK4

    None.

Critical Paths under _Timer in BANK4

    None.

Critical Paths under _My_ISR_High in BANK4

    None.

Critical Paths under _main in BANK5

    None.

Critical Paths under _Timer in BANK5

    None.

Critical Paths under _My_ISR_High in BANK5

    None.

Call Graph Tables:

 ---------------------------------------------------------------------------------
 (Depth) Function   	        Calls       Base Space   Used Autos Params    Refs
 ---------------------------------------------------------------------------------
 (0) _main                                                 0     0      0    3333
                     _Initialize_PIC
                       _Print_To_LCD
                            ___awdiv
                            ___awmod
                   _initialize_timer
 ---------------------------------------------------------------------------------
 (1) _initialize_timer                                     8     8      0     114
                                             33 COMRAM     8     8      0
 ---------------------------------------------------------------------------------
 (1) ___awmod                                              6     2      4    1352
                                             33 COMRAM     6     2      4
 ---------------------------------------------------------------------------------
 (1) ___awdiv                                              8     4      4    1356
                                             33 COMRAM     8     4      4
 ---------------------------------------------------------------------------------
 (1) _Print_To_LCD                                         4     2      2     419
                                             33 COMRAM     4     2      2
 ---------------------------------------------------------------------------------
 (1) _Initialize_PIC                                       0     0      0      92
                     _Initialize_LCD
 ---------------------------------------------------------------------------------
 (2) _Initialize_LCD                                       5     5      0      92
                                             33 COMRAM     5     5      0
 ---------------------------------------------------------------------------------
 Estimated maximum stack depth 2
 ---------------------------------------------------------------------------------
 (Depth) Function   	        Calls       Base Space   Used Autos Params    Refs
 ---------------------------------------------------------------------------------
 (3) _Timer                                                9     9      0    1100
                                             24 COMRAM     9     9      0
                      _timer_display
 ---------------------------------------------------------------------------------
 (4) _timer_display                                        1     1      0    1100
                                             23 COMRAM     1     1      0
                     _increment_time
                 i1_initialize_timer
 ---------------------------------------------------------------------------------
 (5) i1_initialize_timer                                   8     8      0      75
                                             15 COMRAM     8     8      0
 ---------------------------------------------------------------------------------
 (5) _increment_time                                       0     0      0    1025
                     i1_Print_To_LCD
                          i1___awdiv
                          i1___awmod
 ---------------------------------------------------------------------------------
 (6) i1___awmod                                            6     2      4     452
                                             15 COMRAM     6     2      4
 ---------------------------------------------------------------------------------
 (6) i1___awdiv                                            8     4      4     456
                                             15 COMRAM     8     4      4
 ---------------------------------------------------------------------------------
 (6) i1_Print_To_LCD                                       4     2      2     117
                                             15 COMRAM     4     2      2
 ---------------------------------------------------------------------------------
 Estimated maximum stack depth 6
 ---------------------------------------------------------------------------------
 (Depth) Function   	        Calls       Base Space   Used Autos Params    Refs
 ---------------------------------------------------------------------------------
 (7) _My_ISR_High                                          6     6      0    1139
                                              9 COMRAM     6     6      0
                          _high_prio
 ---------------------------------------------------------------------------------
 (8) _high_prio                                            1     1      0    1139
                                              8 COMRAM     1     1      0
                     i2_Print_To_LCD
                          i2___awdiv
                          i2___awmod
                 i2_initialize_timer
 ---------------------------------------------------------------------------------
 (9) i2_initialize_timer                                   8     8      0     114
                                              0 COMRAM     8     8      0
 ---------------------------------------------------------------------------------
 (9) i2___awmod                                            6     2      4     452
                                              0 COMRAM     6     2      4
 ---------------------------------------------------------------------------------
 (9) i2___awdiv                                            8     4      4     456
                                              0 COMRAM     8     4      4
 ---------------------------------------------------------------------------------
 (9) i2_Print_To_LCD                                       4     2      2     117
                                              0 COMRAM     4     2      2
 ---------------------------------------------------------------------------------
 Estimated maximum stack depth 9
 ---------------------------------------------------------------------------------

 Call Graph Graphs:

 _main (ROOT)
   _Initialize_PIC
     _Initialize_LCD
   _Print_To_LCD
   ___awdiv
   ___awmod
   _initialize_timer

 _Timer (ROOT)
   _timer_display
     _increment_time
       i1_Print_To_LCD
       i1___awdiv
       i1___awmod
     i1_initialize_timer

 _My_ISR_High (ROOT)
   _high_prio
     i2_Print_To_LCD
     i2___awdiv
     i2___awmod
     i2_initialize_timer

 Address spaces:
Name               Size   Autos  Total    Cost      Usage
BIGRAM             5FF      0       0      17        0.0%
EEDATA             100      0       0       0        0.0%
BITBANK5           100      0       0      16        0.0%
BANK5              100      0       0      14        0.0%
BITBANK4           100      0       0      12        0.0%
BANK4              100      0       0      13        0.0%
BITBANK3           100      0       0      10        0.0%
BANK3              100      0       0      11        0.0%
BITBANK2           100      0       0       8        0.0%
BANK2              100      0       0       9        0.0%
BITBANK1           100      0       0       6        0.0%
BANK1              100      0       0       7        0.0%
BITBANK0            80      0       0       4        0.0%
BANK0               80      0       0       5        0.0%
BITCOMRAM           7E      0       0       0        0.0%
COMRAM              7E     29      40       1       50.8%
BITSFR               0      0       0     200        0.0%
SFR                  0      0       0     200        0.0%
STACK                0      0       0       2        0.0%
NULL                 0      0       0       0        0.0%
ABS                  0      0      40      15        0.0%
DATA                 0      0      40       3        0.0%
CODE                 0      0       0       0        0.0%


Microchip Technology PIC18 Macro Assembler V2.00 build -1524193055 
Symbol Table                                                                                   Wed Nov 07 11:57:04 2018

                                                        _h 0040  
                                                        _m 003F  
                                                        _s 003E  
                                                       l73 0E74  
                                                       l74 0E76  
                                                       l75 0E7A  
                                                       l76 0E7A  
                                             ___awdiv@sign 0027  
                                                       bsr 000FE0  
                                              __CFG_OSC$HS 000000  
                                                      l110 13F8  
                                                      l120 101A  
                                                      l113 0FE4  
                                                      l121 10A8  
                                                      l114 0F94  
                                                      l122 10A8  
                                                      l115 100C  
                                                      l116 100C  
                                                      l119 106C  
                                                      l128 1304  
                                                      l360 06FE  
                                                      l352 0646  
                                                      l361 0724  
                                                      l353 066A  
                                                      l362 0732  
                                                      l354 0702  
                                                      l370 09FA  
                                                      l355 06A0  
                                                      l371 09FE  
                                                      l356 0692  
                                                      l372 0A26  
                                                      l357 06B8  
                                                      l373 0A38  
                                                      l365 0994  
                                                      l358 06BC  
                                                      l374 0A5E  
                                                      l366 09B4  
                                                      l359 06EC  
                                                      l375 0A6C  
                                                      l367 0A3C  
                                                      l368 09E2  
                                                      l369 09D4  
                                                      u760 1006  
                                                      u920 103E  
                                                      u761 1000  
                                                      u930 1090  
                                                      u940 10A2  
                                                      u941 109C  
                                                      u927 1034  
                                                      u937 1086  
                                                      u990 0634  
                                                      u991 062E  
                                    i2Print_To_LCD@tempPtr 0001  
                                             __CFG_BOR$OFF 000000  
                                             ___awmod@sign 0027  
                                                      wreg 000FE8  
                                             __CFG_LVP$OFF 000000  
                                       i2_initialize_timer 1352  
                                             __CFG_WDT$OFF 000000  
                                                     l1700 13F2  
                                                     l1550 0F88  
                                                     l1702 13F4  
                                                     l1710 1042  
                                                     l1560 0FAE  
                                                     l1552 0F94  
                                                     l1720 1054  
                                                     l1712 1046  
                                                     l1704 1014  
                                                     l1800 06F4  
                                                     l1570 0FCC  
                                                     l1562 0FBE  
                                                     l1554 0FA6  
                                                     l1546 0F6C  
                                                     l1722 1056  
                                                     l1714 1048  
                                                     l1706 101A  
                                                     l1802 0702  
                                                     l1810 096E  
                                                     l1730 12C8  
                                                     l1572 0FDC  
                                                     l1564 0FC4  
                                                     l1556 0FA8  
                                                     l1548 0F86  
                                                     l1724 1066  
                                                     l1716 104E  
                                                     l1708 1040  
                                                     l1804 0718  
                                                     l1820 09A8  
                                                     l1812 0972  
                                                     l1740 1300  
                                                     l1732 12D8  
                                                     l1900 0E70  
                                                     l1566 0FC6  
                                                     l1558 0FAC  
                                                     l1574 0FE4  
                                                     l1726 1068  
                                                     l1718 1050  
                                                     l1806 0724  
                                                     l1830 09FE  
                                                     l1822 09B4  
                                                     l1814 0984  
                                                     l1734 12F4  
                                                     l1902 0E72  
                                                     l1568 0FCA  
                                                     l1808 0732  
                                                     l1840 0A52  
                                                     l1832 0A1A  
                                                     l1824 09CC  
                                                     l1816 098C  
                                                     l1736 12F8  
                                                     l1728 12C0  
                                                     l1770 0636  
                                                     l1842 0A5E  
                                                     l1834 0A26  
                                                     l1826 09D4  
                                                     l1818 0994  
                                                     l1738 12FC  
                                                     l1850 0D92  
                                                     l1780 066A  
                                                     l1772 063E  
                                                     l1844 0A6C  
                                                     l1836 0A2E  
                                                     l1828 09E2  
                                                     l1860 0DAC  
                                                     l1852 0D9E  
                                                     l1694 13D2  
                                                     l1790 06BC  
                                                     l1782 0674  
                                                     l1774 0646  
                                                     l1766 0620  
                                                     l1838 0A3C  
                                                     l1870 0DBA  
                                                     l1862 0DAE  
                                                     l1854 0DA2  
                                                     l1846 0D80  
                                                     l1696 13EE  
                                                     l1792 06C4  
                                                     l1784 068A  
                                                     l1776 065A  
                                                     l1768 0624  
                                                     l1880 0DCC  
                                                     l1872 0DBC  
                                                     l1864 0DB2  
                                                     l1856 0DA6  
                                                     l1848 0D86  
                                                     l1698 13F0  
                                                     l1794 06DE  
                                                     l1786 0692  
                                                     l1778 0662  
                                                     l1890 0E30  
                                                     l1882 0DD0  
                                                     l1874 0DC0  
                                                     l1866 0DB6  
                                                     l1858 0DAA  
                                                     l1796 06E6  
                                                     l1788 06A0  
                                                     l1892 0E48  
                                                     l1884 0DE8  
                                                     l1876 0DC4  
                                                     l1868 0DB8  
                                                     l1798 06EC  
                                                     l1894 0E60  
                                                     l1886 0E00  
                                                     l1878 0DC8  
                                                     l1896 0E6C  
                                                     l1888 0E18  
                                                     l1898 0E6E  
                                                     u1000 0658  
                                                     u1001 0652  
                                                     u1010 0688  
                                                     u1011 0682  
                                                     u1020 06B2  
                                                     u1100 0A50  
                                                     u1021 06AC  
                                                     u1101 0A4A  
                                                     u1030 06DC  
                                                     u1031 06D6  
                                                     u1040 0716  
                                                     u1041 0710  
                                                     u1050 0982  
                                                     u1051 097C  
                                                     u1060 09A6  
                                                     u1061 09A0  
                                                     u1070 09CA  
                                                     u1071 09C4  
                                                     u1080 09F4  
                                                     u1081 09EE  
                                                     u1090 0A18  
                                                     u1091 0A12  
                                                     u1157 105C  
                                                     u1167 0F76  
                                                     u1177 0FB4  
                                                     u1187 0FD2  
                                                     i1l87 006E  
                                                     i1l88 006E  
                                                     i2l81 129E  
                                                     i1l97 1230  
                                                     i2l82 129E  
                                                     i1l98 11EC  
                                                     i2l91 0EAC  
                                                     i1l99 122C  
                                                     i2l92 0E90  
                                                     i2l93 0EC0  
                                                     i2l94 0F66  
                                             __CFG_STVR$ON 000000  
                                                     _main 0D80  
                                                     fsr0h 000FEA  
                                                     indf0 000FEF  
                                                     fsr0l 000FE9  
                                                     fsr1l 000FE1  
                                                     btemp 0041  
                                      ?i2_initialize_timer 0001  
                                                     start 009A  
                                          ??_timer_display 0018  
                                          ?i1_Print_To_LCD 0010  
                                             ___param_bank 000000  
                                           i2_Print_To_LCD 114A  
                                            ??_My_ISR_High 000A  
                                            __CFG_OSCS$OFF 000000  
                                                    ?_main 0001  
                                           i1___awdiv@sign 0015  
                                        initialize_timer@x 0024  
                                          __end_of___awdiv 0738  
                                          __end_of___awmod 0A72  
                                          ___awdiv@divisor 0024  
                                     ??i2_initialize_timer 0001  
                                                    i1l100 1248  
                                                    i1l101 1252  
                                                    i1l120 10B6  
                                                    i1l104 0CA0  
                                                    i1l121 1144  
                                                    i1l105 0CC0  
                                                    i1l122 1144  
                                                    i1l106 0CDE  
                                                    i1l107 0D7C  
                                                    i1l119 1108  
                                                    i1l128 134E  
                                                    i2l120 1152  
                                                    i1l360 0818  
                                                    i1l352 0760  
                                                    i2l121 11E0  
                                                    i1l361 083E  
                                                    i1l353 0784  
                                                    i2l122 11E0  
                                                    i1l362 084C  
                                                    i1l354 081C  
                                                    i1l370 0B00  
                                                    i1l355 07BA  
                                                    i1l371 0B04  
                                                    i1l356 07AC  
                                                    i1l372 0B2C  
                                                    i1l357 07D2  
                                                    i1l373 0B3E  
                                                    i1l365 0A9A  
                                                    i1l358 07D6  
                                                    i1l374 0B64  
                                                    i1l366 0ABA  
                                                    i2l119 11A4  
                                                    i1l359 0806  
                                                    i1l375 0B72  
                                                    i1l367 0B42  
                                                    i2l128 1398  
                                                    i1l368 0AE8  
                                                    i1l369 0ADA  
                                                    i2l360 0932  
                                                    i2l352 087A  
                                                    i2l361 0958  
                                                    i2l353 089E  
                                                    i2l362 0966  
                                                    i2l354 0936  
                                                    i2l370 0C06  
                                                    i2l355 08D4  
                                                    i2l371 0C0A  
                                                    i2l356 08C6  
                                                    i2l372 0C32  
                                                    i2l357 08EC  
                                                    i2l373 0C44  
                                                    i2l365 0BA0  
                                                    i2l358 08F0  
                                                    i2l374 0C6A  
                                                    i2l366 0BC0  
                                                    i2l359 0920  
                                                    i2l375 0C78  
                                                    i2l367 0C48  
                                                    i2l368 0BEE  
                                                    i2l369 0BE0  
                                          ___awdiv@counter 0026  
                                                    _TMR0H 000FD7  
                                                    _TMR0L 000FD6  
                                                    _PORTA 000F80  
                                                    _PORTD 000F83  
                                                    _TRISA 000F92  
                                                    _TRISB 000F93  
                                                    _TRISC 000F94  
                                                    _TRISD 000F95  
                                                    _TRISE 000F96  
                                            __CFG_PWRT$OFF 000000  
                                                    _Timer 0018  
                                                    _Str_1 0034  
                                                    _Str_2 002A  
                                           i1___awmod@sign 0015  
                                                    tablat 000FF5  
                                Initialize_LCD@currentChar 0026  
                                                    ttemp5 0042  
                                                    ttemp6 0045  
                                                    ttemp7 0049  
                                                    status 000FD8  
                                                    wtemp8 0042  
                                       __size_ofi1___awdiv 011A  
                                       __size_ofi1___awmod 0106  
                                       __size_ofi2___awdiv 011A  
                                       __size_ofi2___awmod 0106  
                                          __initialization 139C  
                                   __end_ofi2_Print_To_LCD 11E6  
                                  __size_of_Initialize_LCD 00A8  
                                  __size_of_Initialize_PIC 002C  
                                             __end_of_main 0E7E  
                                    i2initialize_timer@low 0006  
                                    i2initialize_timer@pre 0007  
                                                   ??_main 002A  
                                            __activetblptr 000002  
                                      __end_of_My_ISR_High 12BE  
                                                   ?_Timer 0001  
                                          __CFG_CCP2MUX$ON 000000  
                                                   _ADCON1 000FC1  
                                         ___awdiv@dividend 0022  
                                                   i1l1070 1322  
                                                   i1l1072 133E  
                                                   i1l1410 10B0  
                                                   i1l1074 1342  
                                                   i1l1066 130A  
                                                   i1l1420 10E4  
                                                   i1l1412 10B6  
                                                   i1l1500 0B20  
                                                   i1l1076 1346  
                                                   i1l1068 1312  
                                                   i1l1430 1102  
                                                   i1l1422 10EA  
                                                   i1l1414 10DC  
                                                   i1l1510 0B64  
                                                   i1l1502 0B2C  
                                                   i1l1078 134A  
                                                   i1l1432 1104  
                                                   i1l1424 10EC  
                                                   i1l1416 10DE  
                                                   i1l1440 0758  
                                                   i1l1512 0B72  
                                                   i1l1504 0B34  
                                                   i1l1520 0C9A  
                                                   i1l1426 10F0  
                                                   i1l1418 10E2  
                                                   i1l1450 078E  
                                                   i1l1442 0760  
                                                   i1l1434 073A  
                                                   i1l1506 0B42  
                                                   i1l1530 0CD6  
                                                   i1l1522 0CA0  
                                                   i1l1514 0C80  
                                                   i1l1428 10F2  
                                                   i1l1460 07DE  
                                                   i1l1452 07A4  
                                                   i1l1444 0774  
                                                   i1l1436 073E  
                                                   i1l1508 0B58  
                                                   i1l1540 0D40  
                                                   i1l1532 0CDE  
                                                   i1l1524 0CB6  
                                                   i1l1516 0C82  
                                                   i1l1462 07F8  
                                                   i1l1454 07AC  
                                                   i1l1470 081C  
                                                   i1l1446 077C  
                                                   i1l1438 0750  
                                                   i1l1542 0D58  
                                                   i1l1534 0CF8  
                                                   i1l1526 0CBA  
                                                   i1l1518 0C96  
                                                   i1l1472 0832  
                                                   i1l1464 0800  
                                                   i1l1456 07BA  
                                                   i1l1448 0784  
                                                   i1l1480 0A78  
                                                   i1l1544 0D70  
                                                   i1l1536 0D10  
                                                   i1l1528 0CC0  
                                                   i1l1474 083E  
                                                   i1l1466 0806  
                                                   i1l1458 07D6  
                                                   i1l1490 0ABA  
                                                   i1l1482 0A8A  
                                                   i1l1538 0D28  
                                                   i1l1476 084C  
                                                   i1l1468 080E  
                                                   i1l1492 0AD2  
                                                   i1l1484 0A92  
                                                   i1l1494 0ADA  
                                                   i1l1486 0A9A  
                                                   i1l1478 0A74  
                                                   i1l1496 0AE8  
                                                   i1l1488 0AAE  
                                                   i1l1760 1230  
                                                   i1l1752 11E8  
                                                   i1l1912 0040  
                                                   i1l1498 0B04  
                                                   i1l1762 1248  
                                                   i1l1754 1200  
                                                   i1l1914 0052  
                                                   i1l1764 124E  
                                                   i1l1756 1212  
                                                   i1l1916 0064  
                                                   i1l1758 1216  
                                                   i1l1918 0068  
                                                   i2l1600 1354  
                                                   i2l1610 1390  
                                                   i2l1602 135C  
                                                   i2l1620 0872  
                                                   i2l1612 1394  
                                                   i2l1604 136C  
                                                   i2l1630 08A8  
                                                   i2l1622 087A  
                                                   i2l1614 0854  
                                                   i2l1606 1388  
                                                   i2l1640 08F8  
                                                   i2l1632 08BE  
                                                   i2l1624 088E  
                                                   i2l1616 0858  
                                                   i2l1608 138C  
                                                   i2l1642 0912  
                                                   i2l1634 08C6  
                                                   i2l1650 0936  
                                                   i2l1626 0896  
                                                   i2l1618 086A  
                                                   i2l1580 1178  
                                                   i2l1652 094C  
                                                   i2l1644 091A  
                                                   i2l1636 08D4  
                                                   i2l1628 089E  
                                                   i2l1660 0B7E  
                                                   i2l1590 1188  
                                                   i2l1582 117A  
                                                   i2l1654 0958  
                                                   i2l1646 0920  
                                                   i2l1638 08F0  
                                                   i2l1670 0BC0  
                                                   i2l1662 0B90  
                                                   i2l1750 0F5A  
                                                   i2l1742 0E80  
                                                   i2l1910 1298  
                                                   i2l1592 118C  
                                                   i2l1584 117E  
                                                   i2l1576 114C  
                                                   i2l1656 0966  
                                                   i2l1648 0928  
                                                   i2l1680 0C26  
                                                   i2l1672 0BD8  
                                                   i2l1664 0B98  
                                                   i2l1744 0E98  
                                                   i2l1904 1270  
                                                   i2l1594 118E  
                                                   i2l1586 1180  
                                                   i2l1578 1152  
                                                   i2l1690 0C6A  
                                                   i2l1682 0C32  
                                                   i2l1674 0BE0  
                                                   i2l1666 0BA0  
                                                   i2l1658 0B7A  
                                                   i2l1746 0EAC  
                                                   i2l1906 1282  
                                                   i2l1596 119E  
                                                   i2l1588 1186  
                                                   i2l1692 0C78  
                                                   i2l1684 0C3A  
                                                   i2l1676 0BEE  
                                                   i2l1668 0BB4  
                                                   i2l1748 0EC6  
                                                   i2l1908 1294  
                                                   i2l1598 11A0  
                                                   i2l1678 0C0A  
                                                   i2l1686 0C48  
                                                   i2l1688 0C5E  
                                                   _LCDstr 0615  
                                                   _Clear1 060B  
                                                   _Clear2 0601  
                                        ?_initialize_timer 0001  
                                          ?i2_Print_To_LCD 0001  
                                       ??_initialize_timer 0022  
                                                ??___awdiv 0026  
                                                ??___awmod 0026  
                                         ___awdiv@quotient 0028  
                                          ___awmod@divisor 0024  
                                          ___awmod@counter 0026  
                                           i2___awdiv@sign 0006  
                                        __end_ofi1___awdiv 0852  
                                        __end_ofi1___awmod 0B78  
                                             __pdataCOMRAM 002A  
                                      Print_To_LCD@tempPtr 0022  
                                        __end_ofi2___awdiv 096C  
                                        __end_ofi2___awmod 0C7E  
                                             __mediumconst 0000  
                                                   tblptrh 000FF7  
                                                   tblptrl 000FF6  
                                                   tblptru 000FF8  
                                           i2___awmod@sign 0006  
                                  __size_of_increment_time 0102  
                                               __accesstop 0080  
                                  __end_of__initialization 13C2  
                              __size_ofi1_initialize_timer 004A  
                                            ___rparam_used 000001  
                                           __pcstackCOMRAM 0001  
                                            __end_of_Timer 009A  
                                              _My_ISR_High 0008  
                                   i2initialize_timer@high 0005  
                                                  ??_Timer 0019  
                                       __size_of_high_prio 00EC  
                                         ??i1_Print_To_LCD 0012  
                                           _Initialize_LCD 0F6A  
                                           _Initialize_PIC 13D0  
                                      initialize_timer@low 0027  
                                      initialize_timer@pre 0028  
                                       i1___awdiv@dividend 0010  
                                                  _INTCON2 000FF1  
                                                  _INTCON3 000FF0  
                                                  i1u60_20 113E  
                                                  i1u60_21 1138  
                                                  i1u61_20 074E  
                                                  i1u61_21 0748  
                                                  i1u62_20 0772  
                                                  i1u70_20 0AFA  
                                                  i1u62_21 076C  
                                                  i1u70_21 0AF4  
                                                  i1u63_20 07A2  
                                                  i1u71_20 0B1E  
                                                  i1u63_21 079C  
                                                  i1u71_21 0B18  
                                                  i1u64_20 07CC  
                                                  i1u72_20 0B56  
                                                  i1u64_21 07C6  
                                                  i1u72_21 0B50  
                                                  i1u65_20 07F6  
                                                  i1u73_20 0C94  
                                                  i1u65_21 07F0  
                                                  i1u73_21 0C8E  
                                                  i1u58_20 10DA  
                                                  i1u66_20 0830  
                                                  i1u74_20 0CB4  
                                                  i1u66_21 082A  
                                                  i1u74_21 0CAE  
                                                  i1u58_27 10D0  
                                                  i1u59_20 112C  
                                                  i1u67_20 0A88  
                                                  i1u75_20 0CD4  
                                                  i1u67_21 0A82  
                                                  i1u75_21 0CCE  
                                                  i1u59_27 1122  
                                                  i1u68_20 0AAC  
                                                  i1u68_21 0AA6  
                                                  i1u69_20 0AD0  
                                                  i1u69_21 0ACA  
                                                  i1u96_20 11FE  
                                                  i1u96_21 11F8  
                                                  i2u80_40 0868  
                                                  i2u80_41 0862  
                                                  i1u97_20 1210  
                                                  i1u97_21 120A  
                                                  i2u81_40 088C  
                                                  i2u81_41 0886  
                                                  i1u98_20 1242  
                                                  i1u98_21 123C  
                                                  i2u82_40 08BC  
                                                  i2u90_40 0C24  
                                                  i2u82_41 08B6  
                                                  i2u90_41 0C1E  
                                                  i2u83_40 08E6  
                                                  i2u91_40 0C5C  
                                                  i2u83_41 08E0  
                                                  i2u91_41 0C56  
                                                  i2u84_40 0910  
                                                  i2u84_41 090A  
                                                  i2u77_40 1176  
                                                  i2u85_40 094A  
                                                  i2u85_41 0944  
                                                  i2u77_47 116C  
                                                  i2u78_40 11C8  
                                                  i2u86_40 0B8E  
                                                  i2u86_41 0B88  
                                                  i2u78_47 11BE  
                                                  i2u79_40 11DA  
                                                  i2u87_40 0BB2  
                                                  i2u95_40 0EBE  
                                                  i2u79_41 11D4  
                                                  i2u87_41 0BAC  
                                                  i2u95_41 0EB8  
                                                  i2u88_40 0BD6  
                                                  i2u88_41 0BD0  
                                                  i2u89_40 0C00  
                                                  i2u89_41 0BFA  
                                   __end_of_Initialize_LCD 1012  
                                   __end_of_Initialize_PIC 13FC  
                                                  __Hparam 0000  
                                                  __Lparam 0000  
                                       i1___awdiv@quotient 0016  
                                            ?_Print_To_LCD 0022  
                                        __end_of_high_prio 0F6A  
                                                  ___awdiv 061E  
                                                  ___awmod 096C  
                                    __end_of_timer_display 1256  
                                             __psmallconst 0600  
                                                  __pcinit 139C  
                                                  __ramtop 0600  
                                                  __ptext0 0D80  
                                                  __ptext1 12BE  
                                                  __ptext2 096C  
                                                  __ptext3 061E  
                                                  __ptext4 1012  
                                                  __ptext5 13D0  
                                                  __ptext6 0F6A  
                                                  __ptext8 11E6  
                                                  __ptext9 1308  
                                                _T0CONbits 000FD5  
                              __size_ofi2_initialize_timer 004A  
                                         ___awmod@dividend 0022  
                                           _increment_time 0C7E  
                                           __pintcode_body 1256  
                                     end_of_initialization 13C2  
                                            __Lmediumconst 0000  
                                      i1initialize_timer@x 0012  
                                                  int_func 1256  
                                         ??i2_Print_To_LCD 0003  
                                          ?_Initialize_LCD 0001  
                                          ?_Initialize_PIC 0001  
                                           ??_Print_To_LCD 0024  
                                                  postdec1 000FE5  
                                                  postinc0 000FEE  
                                                _PORTAbits 000F80  
                                                _PORTBbits 000F81  
                                                _PORTEbits 000F84  
                                __size_of_initialize_timer 004A  
                                   __end_of_increment_time 0D80  
                                                i1___awdiv 0738  
                                                i1___awmod 0A72  
                                                i2___awdiv 0852  
                                                i2___awmod 0B78  
                                  Print_To_LCD@currentChar 0025  
                                           __end_of_LCDstr 061D  
                                       i2___awdiv@dividend 0001  
                                           __end_of_Clear1 0615  
                                           __end_of_Clear2 060B  
                                i1Print_To_LCD@currentChar 0013  
                                             ?_My_ISR_High 0001  
                                            __pidataCOMRAM 13FC  
                                      start_initialization 139C  
                                       i2___awdiv@quotient 0007  
                                          ?_increment_time 0001  
                                               ?i1___awdiv 0010  
                                               ?i1___awmod 0010  
                                               ?i2___awdiv 0001  
                                               ?i2___awmod 0001  
                               __end_ofi1_initialize_timer 1352  
                                       i1___awmod@dividend 0010  
                                   i1initialize_timer@high 0014  
                                              __pbssCOMRAM 003E  
                                     __end_of_Print_To_LCD 10AE  
                                                __pintcode 0008  
                                                 ?___awdiv 0022  
                                                 ?___awmod 0022  
                                        i1___awdiv@divisor 0012  
                                              __pintcodelo 0018  
                                        i1___awdiv@counter 0014  
                                                _high_prio 0E7E  
                                              __smallconst 0600  
                                    i1Print_To_LCD@tempPtr 0010  
                                     initialize_timer@high 0026  
                                         _initialize_timer 12BE  
                                           __size_of_Timer 0082  
                                              ??i1___awdiv 0014  
                                              ??i1___awmod 0014  
                                              ??i2___awdiv 0005  
                                              ??i2___awmod 0005  
                                         ??_Initialize_LCD 0022  
                                         ??_Initialize_PIC 0027  
                                                 i1u120_27 10F8  
                                                 i1u113_20 0050  
                                                 i1u113_21 004A  
                                                 i1u114_20 0062  
                                                 i1u114_21 005C  
                                                 i1u119_27 121C  
                                                 i2u111_40 1280  
                                                 i2u111_41 127A  
                                                 i2u112_40 1292  
                                                 i2u112_41 128C  
                                                 i2u121_47 0E9E  
                                                 i2u122_47 1194  
                                                 _RCONbits 000FD0  
                                  __size_ofi1_Print_To_LCD 009C  
                               __end_ofi2_initialize_timer 139C  
                                               ?_high_prio 0001  
                                     __size_of_My_ISR_High 12B6  
                                        i2___awdiv@divisor 0003  
                                        i2___awdiv@counter 0005  
                                                copy_data0 13B0  
                                       i2___awmod@dividend 0001  
                                   __size_of_timer_display 0070  
                                      i2initialize_timer@x 0003  
                                    Initialize_LCD@tempPtr 0024  
                                                 __Hrparam 0000  
                                                 __Lrparam 0000  
                                        i1___awmod@divisor 0012  
                                        i1___awmod@counter 0014  
                                    i1initialize_timer@low 0015  
                                    i1initialize_timer@pre 0016  
                                         __size_of___awdiv 011A  
                                         __size_of___awmod 0106  
                                    __size_of_Print_To_LCD 009C  
                                         ??_increment_time 0018  
                                                 __ptext10 0C7E  
                                                 __ptext11 0A72  
                                                 __ptext12 0738  
                                                 __ptext13 10AE  
                                                 __ptext15 0E7E  
                                                 __ptext16 1352  
                                                 __ptext17 0B78  
                                                 __ptext18 0852  
                                                 __ptext19 114A  
                                            __size_of_main 00FE  
                                             _Print_To_LCD 1012  
                                                 int$flags 0041  
                                       i1_initialize_timer 1308  
                                            _timer_display 11E6  
                                  __size_ofi2_Print_To_LCD 009C  
                                i2Print_To_LCD@currentChar 0004  
                                              ??_high_prio 0009  
                                      ?i1_initialize_timer 0001  
                                        i2___awmod@divisor 0003  
                                        i2___awmod@counter 0005  
                                               _INTCONbits 000FF2  
                                                 intlevel1 1410  
                                                 intlevel2 1410  
                                     ??i1_initialize_timer 0010  
                                 __end_of_initialize_timer 1308  
                                           ?_timer_display 0001  
                                           i1_Print_To_LCD 10AE  
                                   __end_ofi1_Print_To_LCD 114A  
